
build/test/TEST_dense_mpi:     file format elf64-x86-64


Disassembly of section .init:

0000000000009000 <_init>:
    9000:	f3 0f 1e fa          	endbr64 
    9004:	48 83 ec 08          	sub    $0x8,%rsp
    9008:	48 8b 05 d9 3f 01 00 	mov    0x13fd9(%rip),%rax        # 1cfe8 <__gmon_start__@Base>
    900f:	48 85 c0             	test   %rax,%rax
    9012:	74 02                	je     9016 <_init+0x16>
    9014:	ff d0                	call   *%rax
    9016:	48 83 c4 08          	add    $0x8,%rsp
    901a:	c3                   	ret    

Disassembly of section .plt:

0000000000009020 <.plt>:
    9020:	ff 35 da 38 01 00    	push   0x138da(%rip)        # 1c900 <_GLOBAL_OFFSET_TABLE_+0x8>
    9026:	f2 ff 25 db 38 01 00 	bnd jmp *0x138db(%rip)        # 1c908 <_GLOBAL_OFFSET_TABLE_+0x10>
    902d:	0f 1f 00             	nopl   (%rax)
    9030:	f3 0f 1e fa          	endbr64 
    9034:	68 00 00 00 00       	push   $0x0
    9039:	f2 e9 e1 ff ff ff    	bnd jmp 9020 <_init+0x20>
    903f:	90                   	nop
    9040:	f3 0f 1e fa          	endbr64 
    9044:	68 01 00 00 00       	push   $0x1
    9049:	f2 e9 d1 ff ff ff    	bnd jmp 9020 <_init+0x20>
    904f:	90                   	nop
    9050:	f3 0f 1e fa          	endbr64 
    9054:	68 02 00 00 00       	push   $0x2
    9059:	f2 e9 c1 ff ff ff    	bnd jmp 9020 <_init+0x20>
    905f:	90                   	nop
    9060:	f3 0f 1e fa          	endbr64 
    9064:	68 03 00 00 00       	push   $0x3
    9069:	f2 e9 b1 ff ff ff    	bnd jmp 9020 <_init+0x20>
    906f:	90                   	nop
    9070:	f3 0f 1e fa          	endbr64 
    9074:	68 04 00 00 00       	push   $0x4
    9079:	f2 e9 a1 ff ff ff    	bnd jmp 9020 <_init+0x20>
    907f:	90                   	nop
    9080:	f3 0f 1e fa          	endbr64 
    9084:	68 05 00 00 00       	push   $0x5
    9089:	f2 e9 91 ff ff ff    	bnd jmp 9020 <_init+0x20>
    908f:	90                   	nop
    9090:	f3 0f 1e fa          	endbr64 
    9094:	68 06 00 00 00       	push   $0x6
    9099:	f2 e9 81 ff ff ff    	bnd jmp 9020 <_init+0x20>
    909f:	90                   	nop
    90a0:	f3 0f 1e fa          	endbr64 
    90a4:	68 07 00 00 00       	push   $0x7
    90a9:	f2 e9 71 ff ff ff    	bnd jmp 9020 <_init+0x20>
    90af:	90                   	nop
    90b0:	f3 0f 1e fa          	endbr64 
    90b4:	68 08 00 00 00       	push   $0x8
    90b9:	f2 e9 61 ff ff ff    	bnd jmp 9020 <_init+0x20>
    90bf:	90                   	nop
    90c0:	f3 0f 1e fa          	endbr64 
    90c4:	68 09 00 00 00       	push   $0x9
    90c9:	f2 e9 51 ff ff ff    	bnd jmp 9020 <_init+0x20>
    90cf:	90                   	nop
    90d0:	f3 0f 1e fa          	endbr64 
    90d4:	68 0a 00 00 00       	push   $0xa
    90d9:	f2 e9 41 ff ff ff    	bnd jmp 9020 <_init+0x20>
    90df:	90                   	nop
    90e0:	f3 0f 1e fa          	endbr64 
    90e4:	68 0b 00 00 00       	push   $0xb
    90e9:	f2 e9 31 ff ff ff    	bnd jmp 9020 <_init+0x20>
    90ef:	90                   	nop
    90f0:	f3 0f 1e fa          	endbr64 
    90f4:	68 0c 00 00 00       	push   $0xc
    90f9:	f2 e9 21 ff ff ff    	bnd jmp 9020 <_init+0x20>
    90ff:	90                   	nop
    9100:	f3 0f 1e fa          	endbr64 
    9104:	68 0d 00 00 00       	push   $0xd
    9109:	f2 e9 11 ff ff ff    	bnd jmp 9020 <_init+0x20>
    910f:	90                   	nop
    9110:	f3 0f 1e fa          	endbr64 
    9114:	68 0e 00 00 00       	push   $0xe
    9119:	f2 e9 01 ff ff ff    	bnd jmp 9020 <_init+0x20>
    911f:	90                   	nop
    9120:	f3 0f 1e fa          	endbr64 
    9124:	68 0f 00 00 00       	push   $0xf
    9129:	f2 e9 f1 fe ff ff    	bnd jmp 9020 <_init+0x20>
    912f:	90                   	nop
    9130:	f3 0f 1e fa          	endbr64 
    9134:	68 10 00 00 00       	push   $0x10
    9139:	f2 e9 e1 fe ff ff    	bnd jmp 9020 <_init+0x20>
    913f:	90                   	nop
    9140:	f3 0f 1e fa          	endbr64 
    9144:	68 11 00 00 00       	push   $0x11
    9149:	f2 e9 d1 fe ff ff    	bnd jmp 9020 <_init+0x20>
    914f:	90                   	nop
    9150:	f3 0f 1e fa          	endbr64 
    9154:	68 12 00 00 00       	push   $0x12
    9159:	f2 e9 c1 fe ff ff    	bnd jmp 9020 <_init+0x20>
    915f:	90                   	nop
    9160:	f3 0f 1e fa          	endbr64 
    9164:	68 13 00 00 00       	push   $0x13
    9169:	f2 e9 b1 fe ff ff    	bnd jmp 9020 <_init+0x20>
    916f:	90                   	nop
    9170:	f3 0f 1e fa          	endbr64 
    9174:	68 14 00 00 00       	push   $0x14
    9179:	f2 e9 a1 fe ff ff    	bnd jmp 9020 <_init+0x20>
    917f:	90                   	nop
    9180:	f3 0f 1e fa          	endbr64 
    9184:	68 15 00 00 00       	push   $0x15
    9189:	f2 e9 91 fe ff ff    	bnd jmp 9020 <_init+0x20>
    918f:	90                   	nop
    9190:	f3 0f 1e fa          	endbr64 
    9194:	68 16 00 00 00       	push   $0x16
    9199:	f2 e9 81 fe ff ff    	bnd jmp 9020 <_init+0x20>
    919f:	90                   	nop
    91a0:	f3 0f 1e fa          	endbr64 
    91a4:	68 17 00 00 00       	push   $0x17
    91a9:	f2 e9 71 fe ff ff    	bnd jmp 9020 <_init+0x20>
    91af:	90                   	nop
    91b0:	f3 0f 1e fa          	endbr64 
    91b4:	68 18 00 00 00       	push   $0x18
    91b9:	f2 e9 61 fe ff ff    	bnd jmp 9020 <_init+0x20>
    91bf:	90                   	nop
    91c0:	f3 0f 1e fa          	endbr64 
    91c4:	68 19 00 00 00       	push   $0x19
    91c9:	f2 e9 51 fe ff ff    	bnd jmp 9020 <_init+0x20>
    91cf:	90                   	nop
    91d0:	f3 0f 1e fa          	endbr64 
    91d4:	68 1a 00 00 00       	push   $0x1a
    91d9:	f2 e9 41 fe ff ff    	bnd jmp 9020 <_init+0x20>
    91df:	90                   	nop
    91e0:	f3 0f 1e fa          	endbr64 
    91e4:	68 1b 00 00 00       	push   $0x1b
    91e9:	f2 e9 31 fe ff ff    	bnd jmp 9020 <_init+0x20>
    91ef:	90                   	nop
    91f0:	f3 0f 1e fa          	endbr64 
    91f4:	68 1c 00 00 00       	push   $0x1c
    91f9:	f2 e9 21 fe ff ff    	bnd jmp 9020 <_init+0x20>
    91ff:	90                   	nop
    9200:	f3 0f 1e fa          	endbr64 
    9204:	68 1d 00 00 00       	push   $0x1d
    9209:	f2 e9 11 fe ff ff    	bnd jmp 9020 <_init+0x20>
    920f:	90                   	nop
    9210:	f3 0f 1e fa          	endbr64 
    9214:	68 1e 00 00 00       	push   $0x1e
    9219:	f2 e9 01 fe ff ff    	bnd jmp 9020 <_init+0x20>
    921f:	90                   	nop
    9220:	f3 0f 1e fa          	endbr64 
    9224:	68 1f 00 00 00       	push   $0x1f
    9229:	f2 e9 f1 fd ff ff    	bnd jmp 9020 <_init+0x20>
    922f:	90                   	nop
    9230:	f3 0f 1e fa          	endbr64 
    9234:	68 20 00 00 00       	push   $0x20
    9239:	f2 e9 e1 fd ff ff    	bnd jmp 9020 <_init+0x20>
    923f:	90                   	nop
    9240:	f3 0f 1e fa          	endbr64 
    9244:	68 21 00 00 00       	push   $0x21
    9249:	f2 e9 d1 fd ff ff    	bnd jmp 9020 <_init+0x20>
    924f:	90                   	nop
    9250:	f3 0f 1e fa          	endbr64 
    9254:	68 22 00 00 00       	push   $0x22
    9259:	f2 e9 c1 fd ff ff    	bnd jmp 9020 <_init+0x20>
    925f:	90                   	nop
    9260:	f3 0f 1e fa          	endbr64 
    9264:	68 23 00 00 00       	push   $0x23
    9269:	f2 e9 b1 fd ff ff    	bnd jmp 9020 <_init+0x20>
    926f:	90                   	nop
    9270:	f3 0f 1e fa          	endbr64 
    9274:	68 24 00 00 00       	push   $0x24
    9279:	f2 e9 a1 fd ff ff    	bnd jmp 9020 <_init+0x20>
    927f:	90                   	nop
    9280:	f3 0f 1e fa          	endbr64 
    9284:	68 25 00 00 00       	push   $0x25
    9289:	f2 e9 91 fd ff ff    	bnd jmp 9020 <_init+0x20>
    928f:	90                   	nop
    9290:	f3 0f 1e fa          	endbr64 
    9294:	68 26 00 00 00       	push   $0x26
    9299:	f2 e9 81 fd ff ff    	bnd jmp 9020 <_init+0x20>
    929f:	90                   	nop
    92a0:	f3 0f 1e fa          	endbr64 
    92a4:	68 27 00 00 00       	push   $0x27
    92a9:	f2 e9 71 fd ff ff    	bnd jmp 9020 <_init+0x20>
    92af:	90                   	nop
    92b0:	f3 0f 1e fa          	endbr64 
    92b4:	68 28 00 00 00       	push   $0x28
    92b9:	f2 e9 61 fd ff ff    	bnd jmp 9020 <_init+0x20>
    92bf:	90                   	nop
    92c0:	f3 0f 1e fa          	endbr64 
    92c4:	68 29 00 00 00       	push   $0x29
    92c9:	f2 e9 51 fd ff ff    	bnd jmp 9020 <_init+0x20>
    92cf:	90                   	nop
    92d0:	f3 0f 1e fa          	endbr64 
    92d4:	68 2a 00 00 00       	push   $0x2a
    92d9:	f2 e9 41 fd ff ff    	bnd jmp 9020 <_init+0x20>
    92df:	90                   	nop
    92e0:	f3 0f 1e fa          	endbr64 
    92e4:	68 2b 00 00 00       	push   $0x2b
    92e9:	f2 e9 31 fd ff ff    	bnd jmp 9020 <_init+0x20>
    92ef:	90                   	nop
    92f0:	f3 0f 1e fa          	endbr64 
    92f4:	68 2c 00 00 00       	push   $0x2c
    92f9:	f2 e9 21 fd ff ff    	bnd jmp 9020 <_init+0x20>
    92ff:	90                   	nop
    9300:	f3 0f 1e fa          	endbr64 
    9304:	68 2d 00 00 00       	push   $0x2d
    9309:	f2 e9 11 fd ff ff    	bnd jmp 9020 <_init+0x20>
    930f:	90                   	nop
    9310:	f3 0f 1e fa          	endbr64 
    9314:	68 2e 00 00 00       	push   $0x2e
    9319:	f2 e9 01 fd ff ff    	bnd jmp 9020 <_init+0x20>
    931f:	90                   	nop
    9320:	f3 0f 1e fa          	endbr64 
    9324:	68 2f 00 00 00       	push   $0x2f
    9329:	f2 e9 f1 fc ff ff    	bnd jmp 9020 <_init+0x20>
    932f:	90                   	nop
    9330:	f3 0f 1e fa          	endbr64 
    9334:	68 30 00 00 00       	push   $0x30
    9339:	f2 e9 e1 fc ff ff    	bnd jmp 9020 <_init+0x20>
    933f:	90                   	nop
    9340:	f3 0f 1e fa          	endbr64 
    9344:	68 31 00 00 00       	push   $0x31
    9349:	f2 e9 d1 fc ff ff    	bnd jmp 9020 <_init+0x20>
    934f:	90                   	nop
    9350:	f3 0f 1e fa          	endbr64 
    9354:	68 32 00 00 00       	push   $0x32
    9359:	f2 e9 c1 fc ff ff    	bnd jmp 9020 <_init+0x20>
    935f:	90                   	nop
    9360:	f3 0f 1e fa          	endbr64 
    9364:	68 33 00 00 00       	push   $0x33
    9369:	f2 e9 b1 fc ff ff    	bnd jmp 9020 <_init+0x20>
    936f:	90                   	nop
    9370:	f3 0f 1e fa          	endbr64 
    9374:	68 34 00 00 00       	push   $0x34
    9379:	f2 e9 a1 fc ff ff    	bnd jmp 9020 <_init+0x20>
    937f:	90                   	nop
    9380:	f3 0f 1e fa          	endbr64 
    9384:	68 35 00 00 00       	push   $0x35
    9389:	f2 e9 91 fc ff ff    	bnd jmp 9020 <_init+0x20>
    938f:	90                   	nop
    9390:	f3 0f 1e fa          	endbr64 
    9394:	68 36 00 00 00       	push   $0x36
    9399:	f2 e9 81 fc ff ff    	bnd jmp 9020 <_init+0x20>
    939f:	90                   	nop
    93a0:	f3 0f 1e fa          	endbr64 
    93a4:	68 37 00 00 00       	push   $0x37
    93a9:	f2 e9 71 fc ff ff    	bnd jmp 9020 <_init+0x20>
    93af:	90                   	nop
    93b0:	f3 0f 1e fa          	endbr64 
    93b4:	68 38 00 00 00       	push   $0x38
    93b9:	f2 e9 61 fc ff ff    	bnd jmp 9020 <_init+0x20>
    93bf:	90                   	nop
    93c0:	f3 0f 1e fa          	endbr64 
    93c4:	68 39 00 00 00       	push   $0x39
    93c9:	f2 e9 51 fc ff ff    	bnd jmp 9020 <_init+0x20>
    93cf:	90                   	nop
    93d0:	f3 0f 1e fa          	endbr64 
    93d4:	68 3a 00 00 00       	push   $0x3a
    93d9:	f2 e9 41 fc ff ff    	bnd jmp 9020 <_init+0x20>
    93df:	90                   	nop
    93e0:	f3 0f 1e fa          	endbr64 
    93e4:	68 3b 00 00 00       	push   $0x3b
    93e9:	f2 e9 31 fc ff ff    	bnd jmp 9020 <_init+0x20>
    93ef:	90                   	nop
    93f0:	f3 0f 1e fa          	endbr64 
    93f4:	68 3c 00 00 00       	push   $0x3c
    93f9:	f2 e9 21 fc ff ff    	bnd jmp 9020 <_init+0x20>
    93ff:	90                   	nop
    9400:	f3 0f 1e fa          	endbr64 
    9404:	68 3d 00 00 00       	push   $0x3d
    9409:	f2 e9 11 fc ff ff    	bnd jmp 9020 <_init+0x20>
    940f:	90                   	nop
    9410:	f3 0f 1e fa          	endbr64 
    9414:	68 3e 00 00 00       	push   $0x3e
    9419:	f2 e9 01 fc ff ff    	bnd jmp 9020 <_init+0x20>
    941f:	90                   	nop
    9420:	f3 0f 1e fa          	endbr64 
    9424:	68 3f 00 00 00       	push   $0x3f
    9429:	f2 e9 f1 fb ff ff    	bnd jmp 9020 <_init+0x20>
    942f:	90                   	nop
    9430:	f3 0f 1e fa          	endbr64 
    9434:	68 40 00 00 00       	push   $0x40
    9439:	f2 e9 e1 fb ff ff    	bnd jmp 9020 <_init+0x20>
    943f:	90                   	nop
    9440:	f3 0f 1e fa          	endbr64 
    9444:	68 41 00 00 00       	push   $0x41
    9449:	f2 e9 d1 fb ff ff    	bnd jmp 9020 <_init+0x20>
    944f:	90                   	nop
    9450:	f3 0f 1e fa          	endbr64 
    9454:	68 42 00 00 00       	push   $0x42
    9459:	f2 e9 c1 fb ff ff    	bnd jmp 9020 <_init+0x20>
    945f:	90                   	nop
    9460:	f3 0f 1e fa          	endbr64 
    9464:	68 43 00 00 00       	push   $0x43
    9469:	f2 e9 b1 fb ff ff    	bnd jmp 9020 <_init+0x20>
    946f:	90                   	nop
    9470:	f3 0f 1e fa          	endbr64 
    9474:	68 44 00 00 00       	push   $0x44
    9479:	f2 e9 a1 fb ff ff    	bnd jmp 9020 <_init+0x20>
    947f:	90                   	nop
    9480:	f3 0f 1e fa          	endbr64 
    9484:	68 45 00 00 00       	push   $0x45
    9489:	f2 e9 91 fb ff ff    	bnd jmp 9020 <_init+0x20>
    948f:	90                   	nop
    9490:	f3 0f 1e fa          	endbr64 
    9494:	68 46 00 00 00       	push   $0x46
    9499:	f2 e9 81 fb ff ff    	bnd jmp 9020 <_init+0x20>
    949f:	90                   	nop
    94a0:	f3 0f 1e fa          	endbr64 
    94a4:	68 47 00 00 00       	push   $0x47
    94a9:	f2 e9 71 fb ff ff    	bnd jmp 9020 <_init+0x20>
    94af:	90                   	nop
    94b0:	f3 0f 1e fa          	endbr64 
    94b4:	68 48 00 00 00       	push   $0x48
    94b9:	f2 e9 61 fb ff ff    	bnd jmp 9020 <_init+0x20>
    94bf:	90                   	nop
    94c0:	f3 0f 1e fa          	endbr64 
    94c4:	68 49 00 00 00       	push   $0x49
    94c9:	f2 e9 51 fb ff ff    	bnd jmp 9020 <_init+0x20>
    94cf:	90                   	nop
    94d0:	f3 0f 1e fa          	endbr64 
    94d4:	68 4a 00 00 00       	push   $0x4a
    94d9:	f2 e9 41 fb ff ff    	bnd jmp 9020 <_init+0x20>
    94df:	90                   	nop
    94e0:	f3 0f 1e fa          	endbr64 
    94e4:	68 4b 00 00 00       	push   $0x4b
    94e9:	f2 e9 31 fb ff ff    	bnd jmp 9020 <_init+0x20>
    94ef:	90                   	nop
    94f0:	f3 0f 1e fa          	endbr64 
    94f4:	68 4c 00 00 00       	push   $0x4c
    94f9:	f2 e9 21 fb ff ff    	bnd jmp 9020 <_init+0x20>
    94ff:	90                   	nop
    9500:	f3 0f 1e fa          	endbr64 
    9504:	68 4d 00 00 00       	push   $0x4d
    9509:	f2 e9 11 fb ff ff    	bnd jmp 9020 <_init+0x20>
    950f:	90                   	nop
    9510:	f3 0f 1e fa          	endbr64 
    9514:	68 4e 00 00 00       	push   $0x4e
    9519:	f2 e9 01 fb ff ff    	bnd jmp 9020 <_init+0x20>
    951f:	90                   	nop
    9520:	f3 0f 1e fa          	endbr64 
    9524:	68 4f 00 00 00       	push   $0x4f
    9529:	f2 e9 f1 fa ff ff    	bnd jmp 9020 <_init+0x20>
    952f:	90                   	nop
    9530:	f3 0f 1e fa          	endbr64 
    9534:	68 50 00 00 00       	push   $0x50
    9539:	f2 e9 e1 fa ff ff    	bnd jmp 9020 <_init+0x20>
    953f:	90                   	nop
    9540:	f3 0f 1e fa          	endbr64 
    9544:	68 51 00 00 00       	push   $0x51
    9549:	f2 e9 d1 fa ff ff    	bnd jmp 9020 <_init+0x20>
    954f:	90                   	nop
    9550:	f3 0f 1e fa          	endbr64 
    9554:	68 52 00 00 00       	push   $0x52
    9559:	f2 e9 c1 fa ff ff    	bnd jmp 9020 <_init+0x20>
    955f:	90                   	nop
    9560:	f3 0f 1e fa          	endbr64 
    9564:	68 53 00 00 00       	push   $0x53
    9569:	f2 e9 b1 fa ff ff    	bnd jmp 9020 <_init+0x20>
    956f:	90                   	nop
    9570:	f3 0f 1e fa          	endbr64 
    9574:	68 54 00 00 00       	push   $0x54
    9579:	f2 e9 a1 fa ff ff    	bnd jmp 9020 <_init+0x20>
    957f:	90                   	nop
    9580:	f3 0f 1e fa          	endbr64 
    9584:	68 55 00 00 00       	push   $0x55
    9589:	f2 e9 91 fa ff ff    	bnd jmp 9020 <_init+0x20>
    958f:	90                   	nop
    9590:	f3 0f 1e fa          	endbr64 
    9594:	68 56 00 00 00       	push   $0x56
    9599:	f2 e9 81 fa ff ff    	bnd jmp 9020 <_init+0x20>
    959f:	90                   	nop
    95a0:	f3 0f 1e fa          	endbr64 
    95a4:	68 57 00 00 00       	push   $0x57
    95a9:	f2 e9 71 fa ff ff    	bnd jmp 9020 <_init+0x20>
    95af:	90                   	nop
    95b0:	f3 0f 1e fa          	endbr64 
    95b4:	68 58 00 00 00       	push   $0x58
    95b9:	f2 e9 61 fa ff ff    	bnd jmp 9020 <_init+0x20>
    95bf:	90                   	nop
    95c0:	f3 0f 1e fa          	endbr64 
    95c4:	68 59 00 00 00       	push   $0x59
    95c9:	f2 e9 51 fa ff ff    	bnd jmp 9020 <_init+0x20>
    95cf:	90                   	nop
    95d0:	f3 0f 1e fa          	endbr64 
    95d4:	68 5a 00 00 00       	push   $0x5a
    95d9:	f2 e9 41 fa ff ff    	bnd jmp 9020 <_init+0x20>
    95df:	90                   	nop
    95e0:	f3 0f 1e fa          	endbr64 
    95e4:	68 5b 00 00 00       	push   $0x5b
    95e9:	f2 e9 31 fa ff ff    	bnd jmp 9020 <_init+0x20>
    95ef:	90                   	nop
    95f0:	f3 0f 1e fa          	endbr64 
    95f4:	68 5c 00 00 00       	push   $0x5c
    95f9:	f2 e9 21 fa ff ff    	bnd jmp 9020 <_init+0x20>
    95ff:	90                   	nop
    9600:	f3 0f 1e fa          	endbr64 
    9604:	68 5d 00 00 00       	push   $0x5d
    9609:	f2 e9 11 fa ff ff    	bnd jmp 9020 <_init+0x20>
    960f:	90                   	nop
    9610:	f3 0f 1e fa          	endbr64 
    9614:	68 5e 00 00 00       	push   $0x5e
    9619:	f2 e9 01 fa ff ff    	bnd jmp 9020 <_init+0x20>
    961f:	90                   	nop
    9620:	f3 0f 1e fa          	endbr64 
    9624:	68 5f 00 00 00       	push   $0x5f
    9629:	f2 e9 f1 f9 ff ff    	bnd jmp 9020 <_init+0x20>
    962f:	90                   	nop
    9630:	f3 0f 1e fa          	endbr64 
    9634:	68 60 00 00 00       	push   $0x60
    9639:	f2 e9 e1 f9 ff ff    	bnd jmp 9020 <_init+0x20>
    963f:	90                   	nop
    9640:	f3 0f 1e fa          	endbr64 
    9644:	68 61 00 00 00       	push   $0x61
    9649:	f2 e9 d1 f9 ff ff    	bnd jmp 9020 <_init+0x20>
    964f:	90                   	nop
    9650:	f3 0f 1e fa          	endbr64 
    9654:	68 62 00 00 00       	push   $0x62
    9659:	f2 e9 c1 f9 ff ff    	bnd jmp 9020 <_init+0x20>
    965f:	90                   	nop
    9660:	f3 0f 1e fa          	endbr64 
    9664:	68 63 00 00 00       	push   $0x63
    9669:	f2 e9 b1 f9 ff ff    	bnd jmp 9020 <_init+0x20>
    966f:	90                   	nop
    9670:	f3 0f 1e fa          	endbr64 
    9674:	68 64 00 00 00       	push   $0x64
    9679:	f2 e9 a1 f9 ff ff    	bnd jmp 9020 <_init+0x20>
    967f:	90                   	nop
    9680:	f3 0f 1e fa          	endbr64 
    9684:	68 65 00 00 00       	push   $0x65
    9689:	f2 e9 91 f9 ff ff    	bnd jmp 9020 <_init+0x20>
    968f:	90                   	nop
    9690:	f3 0f 1e fa          	endbr64 
    9694:	68 66 00 00 00       	push   $0x66
    9699:	f2 e9 81 f9 ff ff    	bnd jmp 9020 <_init+0x20>
    969f:	90                   	nop
    96a0:	f3 0f 1e fa          	endbr64 
    96a4:	68 67 00 00 00       	push   $0x67
    96a9:	f2 e9 71 f9 ff ff    	bnd jmp 9020 <_init+0x20>
    96af:	90                   	nop
    96b0:	f3 0f 1e fa          	endbr64 
    96b4:	68 68 00 00 00       	push   $0x68
    96b9:	f2 e9 61 f9 ff ff    	bnd jmp 9020 <_init+0x20>
    96bf:	90                   	nop
    96c0:	f3 0f 1e fa          	endbr64 
    96c4:	68 69 00 00 00       	push   $0x69
    96c9:	f2 e9 51 f9 ff ff    	bnd jmp 9020 <_init+0x20>
    96cf:	90                   	nop
    96d0:	f3 0f 1e fa          	endbr64 
    96d4:	68 6a 00 00 00       	push   $0x6a
    96d9:	f2 e9 41 f9 ff ff    	bnd jmp 9020 <_init+0x20>
    96df:	90                   	nop
    96e0:	f3 0f 1e fa          	endbr64 
    96e4:	68 6b 00 00 00       	push   $0x6b
    96e9:	f2 e9 31 f9 ff ff    	bnd jmp 9020 <_init+0x20>
    96ef:	90                   	nop
    96f0:	f3 0f 1e fa          	endbr64 
    96f4:	68 6c 00 00 00       	push   $0x6c
    96f9:	f2 e9 21 f9 ff ff    	bnd jmp 9020 <_init+0x20>
    96ff:	90                   	nop
    9700:	f3 0f 1e fa          	endbr64 
    9704:	68 6d 00 00 00       	push   $0x6d
    9709:	f2 e9 11 f9 ff ff    	bnd jmp 9020 <_init+0x20>
    970f:	90                   	nop
    9710:	f3 0f 1e fa          	endbr64 
    9714:	68 6e 00 00 00       	push   $0x6e
    9719:	f2 e9 01 f9 ff ff    	bnd jmp 9020 <_init+0x20>
    971f:	90                   	nop
    9720:	f3 0f 1e fa          	endbr64 
    9724:	68 6f 00 00 00       	push   $0x6f
    9729:	f2 e9 f1 f8 ff ff    	bnd jmp 9020 <_init+0x20>
    972f:	90                   	nop
    9730:	f3 0f 1e fa          	endbr64 
    9734:	68 70 00 00 00       	push   $0x70
    9739:	f2 e9 e1 f8 ff ff    	bnd jmp 9020 <_init+0x20>
    973f:	90                   	nop
    9740:	f3 0f 1e fa          	endbr64 
    9744:	68 71 00 00 00       	push   $0x71
    9749:	f2 e9 d1 f8 ff ff    	bnd jmp 9020 <_init+0x20>
    974f:	90                   	nop
    9750:	f3 0f 1e fa          	endbr64 
    9754:	68 72 00 00 00       	push   $0x72
    9759:	f2 e9 c1 f8 ff ff    	bnd jmp 9020 <_init+0x20>
    975f:	90                   	nop
    9760:	f3 0f 1e fa          	endbr64 
    9764:	68 73 00 00 00       	push   $0x73
    9769:	f2 e9 b1 f8 ff ff    	bnd jmp 9020 <_init+0x20>
    976f:	90                   	nop
    9770:	f3 0f 1e fa          	endbr64 
    9774:	68 74 00 00 00       	push   $0x74
    9779:	f2 e9 a1 f8 ff ff    	bnd jmp 9020 <_init+0x20>
    977f:	90                   	nop
    9780:	f3 0f 1e fa          	endbr64 
    9784:	68 75 00 00 00       	push   $0x75
    9789:	f2 e9 91 f8 ff ff    	bnd jmp 9020 <_init+0x20>
    978f:	90                   	nop
    9790:	f3 0f 1e fa          	endbr64 
    9794:	68 76 00 00 00       	push   $0x76
    9799:	f2 e9 81 f8 ff ff    	bnd jmp 9020 <_init+0x20>
    979f:	90                   	nop
    97a0:	f3 0f 1e fa          	endbr64 
    97a4:	68 77 00 00 00       	push   $0x77
    97a9:	f2 e9 71 f8 ff ff    	bnd jmp 9020 <_init+0x20>
    97af:	90                   	nop
    97b0:	f3 0f 1e fa          	endbr64 
    97b4:	68 78 00 00 00       	push   $0x78
    97b9:	f2 e9 61 f8 ff ff    	bnd jmp 9020 <_init+0x20>
    97bf:	90                   	nop
    97c0:	f3 0f 1e fa          	endbr64 
    97c4:	68 79 00 00 00       	push   $0x79
    97c9:	f2 e9 51 f8 ff ff    	bnd jmp 9020 <_init+0x20>
    97cf:	90                   	nop
    97d0:	f3 0f 1e fa          	endbr64 
    97d4:	68 7a 00 00 00       	push   $0x7a
    97d9:	f2 e9 41 f8 ff ff    	bnd jmp 9020 <_init+0x20>
    97df:	90                   	nop
    97e0:	f3 0f 1e fa          	endbr64 
    97e4:	68 7b 00 00 00       	push   $0x7b
    97e9:	f2 e9 31 f8 ff ff    	bnd jmp 9020 <_init+0x20>
    97ef:	90                   	nop
    97f0:	f3 0f 1e fa          	endbr64 
    97f4:	68 7c 00 00 00       	push   $0x7c
    97f9:	f2 e9 21 f8 ff ff    	bnd jmp 9020 <_init+0x20>
    97ff:	90                   	nop
    9800:	f3 0f 1e fa          	endbr64 
    9804:	68 7d 00 00 00       	push   $0x7d
    9809:	f2 e9 11 f8 ff ff    	bnd jmp 9020 <_init+0x20>
    980f:	90                   	nop
    9810:	f3 0f 1e fa          	endbr64 
    9814:	68 7e 00 00 00       	push   $0x7e
    9819:	f2 e9 01 f8 ff ff    	bnd jmp 9020 <_init+0x20>
    981f:	90                   	nop
    9820:	f3 0f 1e fa          	endbr64 
    9824:	68 7f 00 00 00       	push   $0x7f
    9829:	f2 e9 f1 f7 ff ff    	bnd jmp 9020 <_init+0x20>
    982f:	90                   	nop
    9830:	f3 0f 1e fa          	endbr64 
    9834:	68 80 00 00 00       	push   $0x80
    9839:	f2 e9 e1 f7 ff ff    	bnd jmp 9020 <_init+0x20>
    983f:	90                   	nop
    9840:	f3 0f 1e fa          	endbr64 
    9844:	68 81 00 00 00       	push   $0x81
    9849:	f2 e9 d1 f7 ff ff    	bnd jmp 9020 <_init+0x20>
    984f:	90                   	nop
    9850:	f3 0f 1e fa          	endbr64 
    9854:	68 82 00 00 00       	push   $0x82
    9859:	f2 e9 c1 f7 ff ff    	bnd jmp 9020 <_init+0x20>
    985f:	90                   	nop
    9860:	f3 0f 1e fa          	endbr64 
    9864:	68 83 00 00 00       	push   $0x83
    9869:	f2 e9 b1 f7 ff ff    	bnd jmp 9020 <_init+0x20>
    986f:	90                   	nop
    9870:	f3 0f 1e fa          	endbr64 
    9874:	68 84 00 00 00       	push   $0x84
    9879:	f2 e9 a1 f7 ff ff    	bnd jmp 9020 <_init+0x20>
    987f:	90                   	nop
    9880:	f3 0f 1e fa          	endbr64 
    9884:	68 85 00 00 00       	push   $0x85
    9889:	f2 e9 91 f7 ff ff    	bnd jmp 9020 <_init+0x20>
    988f:	90                   	nop
    9890:	f3 0f 1e fa          	endbr64 
    9894:	68 86 00 00 00       	push   $0x86
    9899:	f2 e9 81 f7 ff ff    	bnd jmp 9020 <_init+0x20>
    989f:	90                   	nop
    98a0:	f3 0f 1e fa          	endbr64 
    98a4:	68 87 00 00 00       	push   $0x87
    98a9:	f2 e9 71 f7 ff ff    	bnd jmp 9020 <_init+0x20>
    98af:	90                   	nop
    98b0:	f3 0f 1e fa          	endbr64 
    98b4:	68 88 00 00 00       	push   $0x88
    98b9:	f2 e9 61 f7 ff ff    	bnd jmp 9020 <_init+0x20>
    98bf:	90                   	nop
    98c0:	f3 0f 1e fa          	endbr64 
    98c4:	68 89 00 00 00       	push   $0x89
    98c9:	f2 e9 51 f7 ff ff    	bnd jmp 9020 <_init+0x20>
    98cf:	90                   	nop
    98d0:	f3 0f 1e fa          	endbr64 
    98d4:	68 8a 00 00 00       	push   $0x8a
    98d9:	f2 e9 41 f7 ff ff    	bnd jmp 9020 <_init+0x20>
    98df:	90                   	nop
    98e0:	f3 0f 1e fa          	endbr64 
    98e4:	68 8b 00 00 00       	push   $0x8b
    98e9:	f2 e9 31 f7 ff ff    	bnd jmp 9020 <_init+0x20>
    98ef:	90                   	nop
    98f0:	f3 0f 1e fa          	endbr64 
    98f4:	68 8c 00 00 00       	push   $0x8c
    98f9:	f2 e9 21 f7 ff ff    	bnd jmp 9020 <_init+0x20>
    98ff:	90                   	nop
    9900:	f3 0f 1e fa          	endbr64 
    9904:	68 8d 00 00 00       	push   $0x8d
    9909:	f2 e9 11 f7 ff ff    	bnd jmp 9020 <_init+0x20>
    990f:	90                   	nop
    9910:	f3 0f 1e fa          	endbr64 
    9914:	68 8e 00 00 00       	push   $0x8e
    9919:	f2 e9 01 f7 ff ff    	bnd jmp 9020 <_init+0x20>
    991f:	90                   	nop
    9920:	f3 0f 1e fa          	endbr64 
    9924:	68 8f 00 00 00       	push   $0x8f
    9929:	f2 e9 f1 f6 ff ff    	bnd jmp 9020 <_init+0x20>
    992f:	90                   	nop
    9930:	f3 0f 1e fa          	endbr64 
    9934:	68 90 00 00 00       	push   $0x90
    9939:	f2 e9 e1 f6 ff ff    	bnd jmp 9020 <_init+0x20>
    993f:	90                   	nop
    9940:	f3 0f 1e fa          	endbr64 
    9944:	68 91 00 00 00       	push   $0x91
    9949:	f2 e9 d1 f6 ff ff    	bnd jmp 9020 <_init+0x20>
    994f:	90                   	nop
    9950:	f3 0f 1e fa          	endbr64 
    9954:	68 92 00 00 00       	push   $0x92
    9959:	f2 e9 c1 f6 ff ff    	bnd jmp 9020 <_init+0x20>
    995f:	90                   	nop
    9960:	f3 0f 1e fa          	endbr64 
    9964:	68 93 00 00 00       	push   $0x93
    9969:	f2 e9 b1 f6 ff ff    	bnd jmp 9020 <_init+0x20>
    996f:	90                   	nop
    9970:	f3 0f 1e fa          	endbr64 
    9974:	68 94 00 00 00       	push   $0x94
    9979:	f2 e9 a1 f6 ff ff    	bnd jmp 9020 <_init+0x20>
    997f:	90                   	nop
    9980:	f3 0f 1e fa          	endbr64 
    9984:	68 95 00 00 00       	push   $0x95
    9989:	f2 e9 91 f6 ff ff    	bnd jmp 9020 <_init+0x20>
    998f:	90                   	nop
    9990:	f3 0f 1e fa          	endbr64 
    9994:	68 96 00 00 00       	push   $0x96
    9999:	f2 e9 81 f6 ff ff    	bnd jmp 9020 <_init+0x20>
    999f:	90                   	nop
    99a0:	f3 0f 1e fa          	endbr64 
    99a4:	68 97 00 00 00       	push   $0x97
    99a9:	f2 e9 71 f6 ff ff    	bnd jmp 9020 <_init+0x20>
    99af:	90                   	nop
    99b0:	f3 0f 1e fa          	endbr64 
    99b4:	68 98 00 00 00       	push   $0x98
    99b9:	f2 e9 61 f6 ff ff    	bnd jmp 9020 <_init+0x20>
    99bf:	90                   	nop
    99c0:	f3 0f 1e fa          	endbr64 
    99c4:	68 99 00 00 00       	push   $0x99
    99c9:	f2 e9 51 f6 ff ff    	bnd jmp 9020 <_init+0x20>
    99cf:	90                   	nop
    99d0:	f3 0f 1e fa          	endbr64 
    99d4:	68 9a 00 00 00       	push   $0x9a
    99d9:	f2 e9 41 f6 ff ff    	bnd jmp 9020 <_init+0x20>
    99df:	90                   	nop
    99e0:	f3 0f 1e fa          	endbr64 
    99e4:	68 9b 00 00 00       	push   $0x9b
    99e9:	f2 e9 31 f6 ff ff    	bnd jmp 9020 <_init+0x20>
    99ef:	90                   	nop
    99f0:	f3 0f 1e fa          	endbr64 
    99f4:	68 9c 00 00 00       	push   $0x9c
    99f9:	f2 e9 21 f6 ff ff    	bnd jmp 9020 <_init+0x20>
    99ff:	90                   	nop
    9a00:	f3 0f 1e fa          	endbr64 
    9a04:	68 9d 00 00 00       	push   $0x9d
    9a09:	f2 e9 11 f6 ff ff    	bnd jmp 9020 <_init+0x20>
    9a0f:	90                   	nop
    9a10:	f3 0f 1e fa          	endbr64 
    9a14:	68 9e 00 00 00       	push   $0x9e
    9a19:	f2 e9 01 f6 ff ff    	bnd jmp 9020 <_init+0x20>
    9a1f:	90                   	nop
    9a20:	f3 0f 1e fa          	endbr64 
    9a24:	68 9f 00 00 00       	push   $0x9f
    9a29:	f2 e9 f1 f5 ff ff    	bnd jmp 9020 <_init+0x20>
    9a2f:	90                   	nop
    9a30:	f3 0f 1e fa          	endbr64 
    9a34:	68 a0 00 00 00       	push   $0xa0
    9a39:	f2 e9 e1 f5 ff ff    	bnd jmp 9020 <_init+0x20>
    9a3f:	90                   	nop
    9a40:	f3 0f 1e fa          	endbr64 
    9a44:	68 a1 00 00 00       	push   $0xa1
    9a49:	f2 e9 d1 f5 ff ff    	bnd jmp 9020 <_init+0x20>
    9a4f:	90                   	nop
    9a50:	f3 0f 1e fa          	endbr64 
    9a54:	68 a2 00 00 00       	push   $0xa2
    9a59:	f2 e9 c1 f5 ff ff    	bnd jmp 9020 <_init+0x20>
    9a5f:	90                   	nop
    9a60:	f3 0f 1e fa          	endbr64 
    9a64:	68 a3 00 00 00       	push   $0xa3
    9a69:	f2 e9 b1 f5 ff ff    	bnd jmp 9020 <_init+0x20>
    9a6f:	90                   	nop
    9a70:	f3 0f 1e fa          	endbr64 
    9a74:	68 a4 00 00 00       	push   $0xa4
    9a79:	f2 e9 a1 f5 ff ff    	bnd jmp 9020 <_init+0x20>
    9a7f:	90                   	nop
    9a80:	f3 0f 1e fa          	endbr64 
    9a84:	68 a5 00 00 00       	push   $0xa5
    9a89:	f2 e9 91 f5 ff ff    	bnd jmp 9020 <_init+0x20>
    9a8f:	90                   	nop
    9a90:	f3 0f 1e fa          	endbr64 
    9a94:	68 a6 00 00 00       	push   $0xa6
    9a99:	f2 e9 81 f5 ff ff    	bnd jmp 9020 <_init+0x20>
    9a9f:	90                   	nop
    9aa0:	f3 0f 1e fa          	endbr64 
    9aa4:	68 a7 00 00 00       	push   $0xa7
    9aa9:	f2 e9 71 f5 ff ff    	bnd jmp 9020 <_init+0x20>
    9aaf:	90                   	nop
    9ab0:	f3 0f 1e fa          	endbr64 
    9ab4:	68 a8 00 00 00       	push   $0xa8
    9ab9:	f2 e9 61 f5 ff ff    	bnd jmp 9020 <_init+0x20>
    9abf:	90                   	nop
    9ac0:	f3 0f 1e fa          	endbr64 
    9ac4:	68 a9 00 00 00       	push   $0xa9
    9ac9:	f2 e9 51 f5 ff ff    	bnd jmp 9020 <_init+0x20>
    9acf:	90                   	nop
    9ad0:	f3 0f 1e fa          	endbr64 
    9ad4:	68 aa 00 00 00       	push   $0xaa
    9ad9:	f2 e9 41 f5 ff ff    	bnd jmp 9020 <_init+0x20>
    9adf:	90                   	nop
    9ae0:	f3 0f 1e fa          	endbr64 
    9ae4:	68 ab 00 00 00       	push   $0xab
    9ae9:	f2 e9 31 f5 ff ff    	bnd jmp 9020 <_init+0x20>
    9aef:	90                   	nop
    9af0:	f3 0f 1e fa          	endbr64 
    9af4:	68 ac 00 00 00       	push   $0xac
    9af9:	f2 e9 21 f5 ff ff    	bnd jmp 9020 <_init+0x20>
    9aff:	90                   	nop
    9b00:	f3 0f 1e fa          	endbr64 
    9b04:	68 ad 00 00 00       	push   $0xad
    9b09:	f2 e9 11 f5 ff ff    	bnd jmp 9020 <_init+0x20>
    9b0f:	90                   	nop
    9b10:	f3 0f 1e fa          	endbr64 
    9b14:	68 ae 00 00 00       	push   $0xae
    9b19:	f2 e9 01 f5 ff ff    	bnd jmp 9020 <_init+0x20>
    9b1f:	90                   	nop
    9b20:	f3 0f 1e fa          	endbr64 
    9b24:	68 af 00 00 00       	push   $0xaf
    9b29:	f2 e9 f1 f4 ff ff    	bnd jmp 9020 <_init+0x20>
    9b2f:	90                   	nop
    9b30:	f3 0f 1e fa          	endbr64 
    9b34:	68 b0 00 00 00       	push   $0xb0
    9b39:	f2 e9 e1 f4 ff ff    	bnd jmp 9020 <_init+0x20>
    9b3f:	90                   	nop
    9b40:	f3 0f 1e fa          	endbr64 
    9b44:	68 b1 00 00 00       	push   $0xb1
    9b49:	f2 e9 d1 f4 ff ff    	bnd jmp 9020 <_init+0x20>
    9b4f:	90                   	nop
    9b50:	f3 0f 1e fa          	endbr64 
    9b54:	68 b2 00 00 00       	push   $0xb2
    9b59:	f2 e9 c1 f4 ff ff    	bnd jmp 9020 <_init+0x20>
    9b5f:	90                   	nop
    9b60:	f3 0f 1e fa          	endbr64 
    9b64:	68 b3 00 00 00       	push   $0xb3
    9b69:	f2 e9 b1 f4 ff ff    	bnd jmp 9020 <_init+0x20>
    9b6f:	90                   	nop
    9b70:	f3 0f 1e fa          	endbr64 
    9b74:	68 b4 00 00 00       	push   $0xb4
    9b79:	f2 e9 a1 f4 ff ff    	bnd jmp 9020 <_init+0x20>
    9b7f:	90                   	nop
    9b80:	f3 0f 1e fa          	endbr64 
    9b84:	68 b5 00 00 00       	push   $0xb5
    9b89:	f2 e9 91 f4 ff ff    	bnd jmp 9020 <_init+0x20>
    9b8f:	90                   	nop
    9b90:	f3 0f 1e fa          	endbr64 
    9b94:	68 b6 00 00 00       	push   $0xb6
    9b99:	f2 e9 81 f4 ff ff    	bnd jmp 9020 <_init+0x20>
    9b9f:	90                   	nop
    9ba0:	f3 0f 1e fa          	endbr64 
    9ba4:	68 b7 00 00 00       	push   $0xb7
    9ba9:	f2 e9 71 f4 ff ff    	bnd jmp 9020 <_init+0x20>
    9baf:	90                   	nop
    9bb0:	f3 0f 1e fa          	endbr64 
    9bb4:	68 b8 00 00 00       	push   $0xb8
    9bb9:	f2 e9 61 f4 ff ff    	bnd jmp 9020 <_init+0x20>
    9bbf:	90                   	nop
    9bc0:	f3 0f 1e fa          	endbr64 
    9bc4:	68 b9 00 00 00       	push   $0xb9
    9bc9:	f2 e9 51 f4 ff ff    	bnd jmp 9020 <_init+0x20>
    9bcf:	90                   	nop
    9bd0:	f3 0f 1e fa          	endbr64 
    9bd4:	68 ba 00 00 00       	push   $0xba
    9bd9:	f2 e9 41 f4 ff ff    	bnd jmp 9020 <_init+0x20>
    9bdf:	90                   	nop
    9be0:	f3 0f 1e fa          	endbr64 
    9be4:	68 bb 00 00 00       	push   $0xbb
    9be9:	f2 e9 31 f4 ff ff    	bnd jmp 9020 <_init+0x20>
    9bef:	90                   	nop
    9bf0:	f3 0f 1e fa          	endbr64 
    9bf4:	68 bc 00 00 00       	push   $0xbc
    9bf9:	f2 e9 21 f4 ff ff    	bnd jmp 9020 <_init+0x20>
    9bff:	90                   	nop
    9c00:	f3 0f 1e fa          	endbr64 
    9c04:	68 bd 00 00 00       	push   $0xbd
    9c09:	f2 e9 11 f4 ff ff    	bnd jmp 9020 <_init+0x20>
    9c0f:	90                   	nop
    9c10:	f3 0f 1e fa          	endbr64 
    9c14:	68 be 00 00 00       	push   $0xbe
    9c19:	f2 e9 01 f4 ff ff    	bnd jmp 9020 <_init+0x20>
    9c1f:	90                   	nop
    9c20:	f3 0f 1e fa          	endbr64 
    9c24:	68 bf 00 00 00       	push   $0xbf
    9c29:	f2 e9 f1 f3 ff ff    	bnd jmp 9020 <_init+0x20>
    9c2f:	90                   	nop
    9c30:	f3 0f 1e fa          	endbr64 
    9c34:	68 c0 00 00 00       	push   $0xc0
    9c39:	f2 e9 e1 f3 ff ff    	bnd jmp 9020 <_init+0x20>
    9c3f:	90                   	nop
    9c40:	f3 0f 1e fa          	endbr64 
    9c44:	68 c1 00 00 00       	push   $0xc1
    9c49:	f2 e9 d1 f3 ff ff    	bnd jmp 9020 <_init+0x20>
    9c4f:	90                   	nop
    9c50:	f3 0f 1e fa          	endbr64 
    9c54:	68 c2 00 00 00       	push   $0xc2
    9c59:	f2 e9 c1 f3 ff ff    	bnd jmp 9020 <_init+0x20>
    9c5f:	90                   	nop
    9c60:	f3 0f 1e fa          	endbr64 
    9c64:	68 c3 00 00 00       	push   $0xc3
    9c69:	f2 e9 b1 f3 ff ff    	bnd jmp 9020 <_init+0x20>
    9c6f:	90                   	nop
    9c70:	f3 0f 1e fa          	endbr64 
    9c74:	68 c4 00 00 00       	push   $0xc4
    9c79:	f2 e9 a1 f3 ff ff    	bnd jmp 9020 <_init+0x20>
    9c7f:	90                   	nop
    9c80:	f3 0f 1e fa          	endbr64 
    9c84:	68 c5 00 00 00       	push   $0xc5
    9c89:	f2 e9 91 f3 ff ff    	bnd jmp 9020 <_init+0x20>
    9c8f:	90                   	nop
    9c90:	f3 0f 1e fa          	endbr64 
    9c94:	68 c6 00 00 00       	push   $0xc6
    9c99:	f2 e9 81 f3 ff ff    	bnd jmp 9020 <_init+0x20>
    9c9f:	90                   	nop
    9ca0:	f3 0f 1e fa          	endbr64 
    9ca4:	68 c7 00 00 00       	push   $0xc7
    9ca9:	f2 e9 71 f3 ff ff    	bnd jmp 9020 <_init+0x20>
    9caf:	90                   	nop
    9cb0:	f3 0f 1e fa          	endbr64 
    9cb4:	68 c8 00 00 00       	push   $0xc8
    9cb9:	f2 e9 61 f3 ff ff    	bnd jmp 9020 <_init+0x20>
    9cbf:	90                   	nop
    9cc0:	f3 0f 1e fa          	endbr64 
    9cc4:	68 c9 00 00 00       	push   $0xc9
    9cc9:	f2 e9 51 f3 ff ff    	bnd jmp 9020 <_init+0x20>
    9ccf:	90                   	nop
    9cd0:	f3 0f 1e fa          	endbr64 
    9cd4:	68 ca 00 00 00       	push   $0xca
    9cd9:	f2 e9 41 f3 ff ff    	bnd jmp 9020 <_init+0x20>
    9cdf:	90                   	nop
    9ce0:	f3 0f 1e fa          	endbr64 
    9ce4:	68 cb 00 00 00       	push   $0xcb
    9ce9:	f2 e9 31 f3 ff ff    	bnd jmp 9020 <_init+0x20>
    9cef:	90                   	nop
    9cf0:	f3 0f 1e fa          	endbr64 
    9cf4:	68 cc 00 00 00       	push   $0xcc
    9cf9:	f2 e9 21 f3 ff ff    	bnd jmp 9020 <_init+0x20>
    9cff:	90                   	nop
    9d00:	f3 0f 1e fa          	endbr64 
    9d04:	68 cd 00 00 00       	push   $0xcd
    9d09:	f2 e9 11 f3 ff ff    	bnd jmp 9020 <_init+0x20>
    9d0f:	90                   	nop
    9d10:	f3 0f 1e fa          	endbr64 
    9d14:	68 ce 00 00 00       	push   $0xce
    9d19:	f2 e9 01 f3 ff ff    	bnd jmp 9020 <_init+0x20>
    9d1f:	90                   	nop
    9d20:	f3 0f 1e fa          	endbr64 
    9d24:	68 cf 00 00 00       	push   $0xcf
    9d29:	f2 e9 f1 f2 ff ff    	bnd jmp 9020 <_init+0x20>
    9d2f:	90                   	nop
    9d30:	f3 0f 1e fa          	endbr64 
    9d34:	68 d0 00 00 00       	push   $0xd0
    9d39:	f2 e9 e1 f2 ff ff    	bnd jmp 9020 <_init+0x20>
    9d3f:	90                   	nop
    9d40:	f3 0f 1e fa          	endbr64 
    9d44:	68 d1 00 00 00       	push   $0xd1
    9d49:	f2 e9 d1 f2 ff ff    	bnd jmp 9020 <_init+0x20>
    9d4f:	90                   	nop
    9d50:	f3 0f 1e fa          	endbr64 
    9d54:	68 d2 00 00 00       	push   $0xd2
    9d59:	f2 e9 c1 f2 ff ff    	bnd jmp 9020 <_init+0x20>
    9d5f:	90                   	nop
    9d60:	f3 0f 1e fa          	endbr64 
    9d64:	68 d3 00 00 00       	push   $0xd3
    9d69:	f2 e9 b1 f2 ff ff    	bnd jmp 9020 <_init+0x20>
    9d6f:	90                   	nop
    9d70:	f3 0f 1e fa          	endbr64 
    9d74:	68 d4 00 00 00       	push   $0xd4
    9d79:	f2 e9 a1 f2 ff ff    	bnd jmp 9020 <_init+0x20>
    9d7f:	90                   	nop
    9d80:	f3 0f 1e fa          	endbr64 
    9d84:	68 d5 00 00 00       	push   $0xd5
    9d89:	f2 e9 91 f2 ff ff    	bnd jmp 9020 <_init+0x20>
    9d8f:	90                   	nop

Disassembly of section .plt.got:

0000000000009d90 <__cxa_finalize@plt>:
    9d90:	f3 0f 1e fa          	endbr64 
    9d94:	f2 ff 25 2d 32 01 00 	bnd jmp *0x1322d(%rip)        # 1cfc8 <__cxa_finalize@GLIBC_2.2.5>
    9d9b:	0f 1f 44 00 00       	nopl   0x0(%rax,%rax,1)

Disassembly of section .plt.sec:

0000000000009da0 <_Znam@plt>:
    9da0:	f3 0f 1e fa          	endbr64 
    9da4:	f2 ff 25 65 2b 01 00 	bnd jmp *0x12b65(%rip)        # 1c910 <_Znam@GLIBCXX_3.4>
    9dab:	0f 1f 44 00 00       	nopl   0x0(%rax,%rax,1)

0000000000009db0 <_ZNKSt7__cxx1112basic_stringIcSt11char_traitsIcESaIcEE8capacityEv@plt>:
    9db0:	f3 0f 1e fa          	endbr64 
    9db4:	f2 ff 25 5d 2b 01 00 	bnd jmp *0x12b5d(%rip)        # 1c918 <_ZNKSt7__cxx1112basic_stringIcSt11char_traitsIcESaIcEE8capacityEv@GLIBCXX_3.4.21>
    9dbb:	0f 1f 44 00 00       	nopl   0x0(%rax,%rax,1)

0000000000009dc0 <printf@plt>:
    9dc0:	f3 0f 1e fa          	endbr64 
    9dc4:	f2 ff 25 55 2b 01 00 	bnd jmp *0x12b55(%rip)        # 1c920 <printf@GLIBC_2.2.5>
    9dcb:	0f 1f 44 00 00       	nopl   0x0(%rax,%rax,1)

0000000000009dd0 <MPI_Win_unlock@plt>:
    9dd0:	f3 0f 1e fa          	endbr64 
    9dd4:	f2 ff 25 4d 2b 01 00 	bnd jmp *0x12b4d(%rip)        # 1c928 <MPI_Win_unlock@Base>
    9ddb:	0f 1f 44 00 00       	nopl   0x0(%rax,%rax,1)

0000000000009de0 <MPI_Group_excl@plt>:
    9de0:	f3 0f 1e fa          	endbr64 
    9de4:	f2 ff 25 45 2b 01 00 	bnd jmp *0x12b45(%rip)        # 1c930 <MPI_Group_excl@Base>
    9deb:	0f 1f 44 00 00       	nopl   0x0(%rax,%rax,1)

0000000000009df0 <MPI_Allgather@plt>:
    9df0:	f3 0f 1e fa          	endbr64 
    9df4:	f2 ff 25 3d 2b 01 00 	bnd jmp *0x12b3d(%rip)        # 1c938 <MPI_Allgather@Base>
    9dfb:	0f 1f 44 00 00       	nopl   0x0(%rax,%rax,1)

0000000000009e00 <MPI_Recv_init@plt>:
    9e00:	f3 0f 1e fa          	endbr64 
    9e04:	f2 ff 25 35 2b 01 00 	bnd jmp *0x12b35(%rip)        # 1c940 <MPI_Recv_init@Base>
    9e0b:	0f 1f 44 00 00       	nopl   0x0(%rax,%rax,1)

0000000000009e10 <MPI_Cart_create@plt>:
    9e10:	f3 0f 1e fa          	endbr64 
    9e14:	f2 ff 25 2d 2b 01 00 	bnd jmp *0x12b2d(%rip)        # 1c948 <MPI_Cart_create@Base>
    9e1b:	0f 1f 44 00 00       	nopl   0x0(%rax,%rax,1)

0000000000009e20 <MPI_Comm_get_name@plt>:
    9e20:	f3 0f 1e fa          	endbr64 
    9e24:	f2 ff 25 25 2b 01 00 	bnd jmp *0x12b25(%rip)        # 1c950 <MPI_Comm_get_name@Base>
    9e2b:	0f 1f 44 00 00       	nopl   0x0(%rax,%rax,1)

0000000000009e30 <MPI_Info_dup@plt>:
    9e30:	f3 0f 1e fa          	endbr64 
    9e34:	f2 ff 25 1d 2b 01 00 	bnd jmp *0x12b1d(%rip)        # 1c958 <MPI_Info_dup@Base>
    9e3b:	0f 1f 44 00 00       	nopl   0x0(%rax,%rax,1)

0000000000009e40 <MPI_Irsend@plt>:
    9e40:	f3 0f 1e fa          	endbr64 
    9e44:	f2 ff 25 15 2b 01 00 	bnd jmp *0x12b15(%rip)        # 1c960 <MPI_Irsend@Base>
    9e4b:	0f 1f 44 00 00       	nopl   0x0(%rax,%rax,1)

0000000000009e50 <MPI_Bcast@plt>:
    9e50:	f3 0f 1e fa          	endbr64 
    9e54:	f2 ff 25 0d 2b 01 00 	bnd jmp *0x12b0d(%rip)        # 1c968 <MPI_Bcast@Base>
    9e5b:	0f 1f 44 00 00       	nopl   0x0(%rax,%rax,1)

0000000000009e60 <_ZSt7getlineIcSt11char_traitsIcESaIcEERSt13basic_istreamIT_T0_ES7_RNSt7__cxx1112basic_stringIS4_S5_T1_EE@plt>:
    9e60:	f3 0f 1e fa          	endbr64 
    9e64:	f2 ff 25 05 2b 01 00 	bnd jmp *0x12b05(%rip)        # 1c970 <_ZSt7getlineIcSt11char_traitsIcESaIcEERSt13basic_istreamIT_T0_ES7_RNSt7__cxx1112basic_stringIS4_S5_T1_EE@GLIBCXX_3.4.21>
    9e6b:	0f 1f 44 00 00       	nopl   0x0(%rax,%rax,1)

0000000000009e70 <MPI_Ssend@plt>:
    9e70:	f3 0f 1e fa          	endbr64 
    9e74:	f2 ff 25 fd 2a 01 00 	bnd jmp *0x12afd(%rip)        # 1c978 <MPI_Ssend@Base>
    9e7b:	0f 1f 44 00 00       	nopl   0x0(%rax,%rax,1)

0000000000009e80 <MPI_Group_range_incl@plt>:
    9e80:	f3 0f 1e fa          	endbr64 
    9e84:	f2 ff 25 f5 2a 01 00 	bnd jmp *0x12af5(%rip)        # 1c980 <MPI_Group_range_incl@Base>
    9e8b:	0f 1f 44 00 00       	nopl   0x0(%rax,%rax,1)

0000000000009e90 <_ZNSt14basic_ifstreamIcSt11char_traitsIcEE5closeEv@plt>:
    9e90:	f3 0f 1e fa          	endbr64 
    9e94:	f2 ff 25 ed 2a 01 00 	bnd jmp *0x12aed(%rip)        # 1c988 <_ZNSt14basic_ifstreamIcSt11char_traitsIcEE5closeEv@GLIBCXX_3.4>
    9e9b:	0f 1f 44 00 00       	nopl   0x0(%rax,%rax,1)

0000000000009ea0 <MPI_Op_create@plt>:
    9ea0:	f3 0f 1e fa          	endbr64 
    9ea4:	f2 ff 25 e5 2a 01 00 	bnd jmp *0x12ae5(%rip)        # 1c990 <MPI_Op_create@Base>
    9eab:	0f 1f 44 00 00       	nopl   0x0(%rax,%rax,1)

0000000000009eb0 <MPI_Group_size@plt>:
    9eb0:	f3 0f 1e fa          	endbr64 
    9eb4:	f2 ff 25 dd 2a 01 00 	bnd jmp *0x12add(%rip)        # 1c998 <MPI_Group_size@Base>
    9ebb:	0f 1f 44 00 00       	nopl   0x0(%rax,%rax,1)

0000000000009ec0 <MPI_Comm_disconnect@plt>:
    9ec0:	f3 0f 1e fa          	endbr64 
    9ec4:	f2 ff 25 d5 2a 01 00 	bnd jmp *0x12ad5(%rip)        # 1c9a0 <MPI_Comm_disconnect@Base>
    9ecb:	0f 1f 44 00 00       	nopl   0x0(%rax,%rax,1)

0000000000009ed0 <_ZNSolsEm@plt>:
    9ed0:	f3 0f 1e fa          	endbr64 
    9ed4:	f2 ff 25 cd 2a 01 00 	bnd jmp *0x12acd(%rip)        # 1c9a8 <_ZNSolsEm@GLIBCXX_3.4>
    9edb:	0f 1f 44 00 00       	nopl   0x0(%rax,%rax,1)

0000000000009ee0 <_ZNSt7__cxx1112basic_stringIcSt11char_traitsIcESaIcEE6insertEmPKc@plt>:
    9ee0:	f3 0f 1e fa          	endbr64 
    9ee4:	f2 ff 25 c5 2a 01 00 	bnd jmp *0x12ac5(%rip)        # 1c9b0 <_ZNSt7__cxx1112basic_stringIcSt11char_traitsIcESaIcEE6insertEmPKc@GLIBCXX_3.4.21>
    9eeb:	0f 1f 44 00 00       	nopl   0x0(%rax,%rax,1)

0000000000009ef0 <MPI_Win_get_name@plt>:
    9ef0:	f3 0f 1e fa          	endbr64 
    9ef4:	f2 ff 25 bd 2a 01 00 	bnd jmp *0x12abd(%rip)        # 1c9b8 <MPI_Win_get_name@Base>
    9efb:	0f 1f 44 00 00       	nopl   0x0(%rax,%rax,1)

0000000000009f00 <_ZNSt14basic_ifstreamIcSt11char_traitsIcEED1Ev@plt>:
    9f00:	f3 0f 1e fa          	endbr64 
    9f04:	f2 ff 25 b5 2a 01 00 	bnd jmp *0x12ab5(%rip)        # 1c9c0 <_ZNSt14basic_ifstreamIcSt11char_traitsIcEED1Ev@GLIBCXX_3.4>
    9f0b:	0f 1f 44 00 00       	nopl   0x0(%rax,%rax,1)

0000000000009f10 <MPI_Pack_size@plt>:
    9f10:	f3 0f 1e fa          	endbr64 
    9f14:	f2 ff 25 ad 2a 01 00 	bnd jmp *0x12aad(%rip)        # 1c9c8 <MPI_Pack_size@Base>
    9f1b:	0f 1f 44 00 00       	nopl   0x0(%rax,%rax,1)

0000000000009f20 <MPI_Request_get_status@plt>:
    9f20:	f3 0f 1e fa          	endbr64 
    9f24:	f2 ff 25 a5 2a 01 00 	bnd jmp *0x12aa5(%rip)        # 1c9d0 <MPI_Request_get_status@Base>
    9f2b:	0f 1f 44 00 00       	nopl   0x0(%rax,%rax,1)

0000000000009f30 <MPI_Graph_neighbors@plt>:
    9f30:	f3 0f 1e fa          	endbr64 
    9f34:	f2 ff 25 9d 2a 01 00 	bnd jmp *0x12a9d(%rip)        # 1c9d8 <MPI_Graph_neighbors@Base>
    9f3b:	0f 1f 44 00 00       	nopl   0x0(%rax,%rax,1)

0000000000009f40 <MPI_Type_create_hvector@plt>:
    9f40:	f3 0f 1e fa          	endbr64 
    9f44:	f2 ff 25 95 2a 01 00 	bnd jmp *0x12a95(%rip)        # 1c9e0 <MPI_Type_create_hvector@Base>
    9f4b:	0f 1f 44 00 00       	nopl   0x0(%rax,%rax,1)

0000000000009f50 <MPI_Unpack_external@plt>:
    9f50:	f3 0f 1e fa          	endbr64 
    9f54:	f2 ff 25 8d 2a 01 00 	bnd jmp *0x12a8d(%rip)        # 1c9e8 <MPI_Unpack_external@Base>
    9f5b:	0f 1f 44 00 00       	nopl   0x0(%rax,%rax,1)

0000000000009f60 <MPI_Probe@plt>:
    9f60:	f3 0f 1e fa          	endbr64 
    9f64:	f2 ff 25 85 2a 01 00 	bnd jmp *0x12a85(%rip)        # 1c9f0 <MPI_Probe@Base>
    9f6b:	0f 1f 44 00 00       	nopl   0x0(%rax,%rax,1)

0000000000009f70 <_ZNSolsEPFRSt8ios_baseS0_E@plt>:
    9f70:	f3 0f 1e fa          	endbr64 
    9f74:	f2 ff 25 7d 2a 01 00 	bnd jmp *0x12a7d(%rip)        # 1c9f8 <_ZNSolsEPFRSt8ios_baseS0_E@GLIBCXX_3.4>
    9f7b:	0f 1f 44 00 00       	nopl   0x0(%rax,%rax,1)

0000000000009f80 <MPI_Send@plt>:
    9f80:	f3 0f 1e fa          	endbr64 
    9f84:	f2 ff 25 75 2a 01 00 	bnd jmp *0x12a75(%rip)        # 1ca00 <MPI_Send@Base>
    9f8b:	0f 1f 44 00 00       	nopl   0x0(%rax,%rax,1)

0000000000009f90 <_ZNKSt7__cxx1112basic_stringIcSt11char_traitsIcESaIcEE13get_allocatorEv@plt>:
    9f90:	f3 0f 1e fa          	endbr64 
    9f94:	f2 ff 25 6d 2a 01 00 	bnd jmp *0x12a6d(%rip)        # 1ca08 <_ZNKSt7__cxx1112basic_stringIcSt11char_traitsIcESaIcEE13get_allocatorEv@GLIBCXX_3.4.21>
    9f9b:	0f 1f 44 00 00       	nopl   0x0(%rax,%rax,1)

0000000000009fa0 <_ZNKSt7__cxx1112basic_stringIcSt11char_traitsIcESaIcEE5c_strEv@plt>:
    9fa0:	f3 0f 1e fa          	endbr64 
    9fa4:	f2 ff 25 65 2a 01 00 	bnd jmp *0x12a65(%rip)        # 1ca10 <_ZNKSt7__cxx1112basic_stringIcSt11char_traitsIcESaIcEE5c_strEv@GLIBCXX_3.4.21>
    9fab:	0f 1f 44 00 00       	nopl   0x0(%rax,%rax,1)

0000000000009fb0 <MPI_Info_set@plt>:
    9fb0:	f3 0f 1e fa          	endbr64 
    9fb4:	f2 ff 25 5d 2a 01 00 	bnd jmp *0x12a5d(%rip)        # 1ca18 <MPI_Info_set@Base>
    9fbb:	0f 1f 44 00 00       	nopl   0x0(%rax,%rax,1)

0000000000009fc0 <_ZNSt7__cxx1112basic_stringIcSt11char_traitsIcESaIcEEC1ERKS4_@plt>:
    9fc0:	f3 0f 1e fa          	endbr64 
    9fc4:	f2 ff 25 55 2a 01 00 	bnd jmp *0x12a55(%rip)        # 1ca20 <_ZNSt7__cxx1112basic_stringIcSt11char_traitsIcESaIcEEC1ERKS4_@GLIBCXX_3.4.21>
    9fcb:	0f 1f 44 00 00       	nopl   0x0(%rax,%rax,1)

0000000000009fd0 <MPI_Type_get_extent@plt>:
    9fd0:	f3 0f 1e fa          	endbr64 
    9fd4:	f2 ff 25 4d 2a 01 00 	bnd jmp *0x12a4d(%rip)        # 1ca28 <MPI_Type_get_extent@Base>
    9fdb:	0f 1f 44 00 00       	nopl   0x0(%rax,%rax,1)

0000000000009fe0 <MPI_Win_post@plt>:
    9fe0:	f3 0f 1e fa          	endbr64 
    9fe4:	f2 ff 25 45 2a 01 00 	bnd jmp *0x12a45(%rip)        # 1ca30 <MPI_Win_post@Base>
    9feb:	0f 1f 44 00 00       	nopl   0x0(%rax,%rax,1)

0000000000009ff0 <MPI_Isend@plt>:
    9ff0:	f3 0f 1e fa          	endbr64 
    9ff4:	f2 ff 25 3d 2a 01 00 	bnd jmp *0x12a3d(%rip)        # 1ca38 <MPI_Isend@Base>
    9ffb:	0f 1f 44 00 00       	nopl   0x0(%rax,%rax,1)

000000000000a000 <MPI_Unpack@plt>:
    a000:	f3 0f 1e fa          	endbr64 
    a004:	f2 ff 25 35 2a 01 00 	bnd jmp *0x12a35(%rip)        # 1ca40 <MPI_Unpack@Base>
    a00b:	0f 1f 44 00 00       	nopl   0x0(%rax,%rax,1)

000000000000a010 <MPI_Iprobe@plt>:
    a010:	f3 0f 1e fa          	endbr64 
    a014:	f2 ff 25 2d 2a 01 00 	bnd jmp *0x12a2d(%rip)        # 1ca48 <MPI_Iprobe@Base>
    a01b:	0f 1f 44 00 00       	nopl   0x0(%rax,%rax,1)

000000000000a020 <MPI_Comm_set_attr@plt>:
    a020:	f3 0f 1e fa          	endbr64 
    a024:	f2 ff 25 25 2a 01 00 	bnd jmp *0x12a25(%rip)        # 1ca50 <MPI_Comm_set_attr@Base>
    a02b:	0f 1f 44 00 00       	nopl   0x0(%rax,%rax,1)

000000000000a030 <MPI_Type_get_envelope@plt>:
    a030:	f3 0f 1e fa          	endbr64 
    a034:	f2 ff 25 1d 2a 01 00 	bnd jmp *0x12a1d(%rip)        # 1ca58 <MPI_Type_get_envelope@Base>
    a03b:	0f 1f 44 00 00       	nopl   0x0(%rax,%rax,1)

000000000000a040 <MPI_Alltoall@plt>:
    a040:	f3 0f 1e fa          	endbr64 
    a044:	f2 ff 25 15 2a 01 00 	bnd jmp *0x12a15(%rip)        # 1ca60 <MPI_Alltoall@Base>
    a04b:	0f 1f 44 00 00       	nopl   0x0(%rax,%rax,1)

000000000000a050 <MPI_Cancel@plt>:
    a050:	f3 0f 1e fa          	endbr64 
    a054:	f2 ff 25 0d 2a 01 00 	bnd jmp *0x12a0d(%rip)        # 1ca68 <MPI_Cancel@Base>
    a05b:	0f 1f 44 00 00       	nopl   0x0(%rax,%rax,1)

000000000000a060 <MPI_Initialized@plt>:
    a060:	f3 0f 1e fa          	endbr64 
    a064:	f2 ff 25 05 2a 01 00 	bnd jmp *0x12a05(%rip)        # 1ca70 <MPI_Initialized@Base>
    a06b:	0f 1f 44 00 00       	nopl   0x0(%rax,%rax,1)

000000000000a070 <MPI_Scatterv@plt>:
    a070:	f3 0f 1e fa          	endbr64 
    a074:	f2 ff 25 fd 29 01 00 	bnd jmp *0x129fd(%rip)        # 1ca78 <MPI_Scatterv@Base>
    a07b:	0f 1f 44 00 00       	nopl   0x0(%rax,%rax,1)

000000000000a080 <MPI_Issend@plt>:
    a080:	f3 0f 1e fa          	endbr64 
    a084:	f2 ff 25 f5 29 01 00 	bnd jmp *0x129f5(%rip)        # 1ca80 <MPI_Issend@Base>
    a08b:	0f 1f 44 00 00       	nopl   0x0(%rax,%rax,1)

000000000000a090 <_ZN3MPI4CommC2Ev@plt>:
    a090:	f3 0f 1e fa          	endbr64 
    a094:	f2 ff 25 ed 29 01 00 	bnd jmp *0x129ed(%rip)        # 1ca88 <_ZN3MPI4CommC2Ev@Base>
    a09b:	0f 1f 44 00 00       	nopl   0x0(%rax,%rax,1)

000000000000a0a0 <MPI_Graphdims_get@plt>:
    a0a0:	f3 0f 1e fa          	endbr64 
    a0a4:	f2 ff 25 e5 29 01 00 	bnd jmp *0x129e5(%rip)        # 1ca90 <MPI_Graphdims_get@Base>
    a0ab:	0f 1f 44 00 00       	nopl   0x0(%rax,%rax,1)

000000000000a0b0 <MPI_Info_get@plt>:
    a0b0:	f3 0f 1e fa          	endbr64 
    a0b4:	f2 ff 25 dd 29 01 00 	bnd jmp *0x129dd(%rip)        # 1ca98 <MPI_Info_get@Base>
    a0bb:	0f 1f 44 00 00       	nopl   0x0(%rax,%rax,1)

000000000000a0c0 <MPI_Cart_shift@plt>:
    a0c0:	f3 0f 1e fa          	endbr64 
    a0c4:	f2 ff 25 d5 29 01 00 	bnd jmp *0x129d5(%rip)        # 1caa0 <MPI_Cart_shift@Base>
    a0cb:	0f 1f 44 00 00       	nopl   0x0(%rax,%rax,1)

000000000000a0d0 <_ZNSt7__cxx1112basic_stringIcSt11char_traitsIcESaIcEEC1EOS4_@plt>:
    a0d0:	f3 0f 1e fa          	endbr64 
    a0d4:	f2 ff 25 cd 29 01 00 	bnd jmp *0x129cd(%rip)        # 1caa8 <_ZNSt7__cxx1112basic_stringIcSt11char_traitsIcESaIcEEC1EOS4_@GLIBCXX_3.4.21>
    a0db:	0f 1f 44 00 00       	nopl   0x0(%rax,%rax,1)

000000000000a0e0 <MPI_Type_get_true_extent@plt>:
    a0e0:	f3 0f 1e fa          	endbr64 
    a0e4:	f2 ff 25 c5 29 01 00 	bnd jmp *0x129c5(%rip)        # 1cab0 <MPI_Type_get_true_extent@Base>
    a0eb:	0f 1f 44 00 00       	nopl   0x0(%rax,%rax,1)

000000000000a0f0 <MPI_Get@plt>:
    a0f0:	f3 0f 1e fa          	endbr64 
    a0f4:	f2 ff 25 bd 29 01 00 	bnd jmp *0x129bd(%rip)        # 1cab8 <MPI_Get@Base>
    a0fb:	0f 1f 44 00 00       	nopl   0x0(%rax,%rax,1)

000000000000a100 <_ZNSt7__cxx1112basic_stringIcSt11char_traitsIcESaIcEED1Ev@plt>:
    a100:	f3 0f 1e fa          	endbr64 
    a104:	f2 ff 25 b5 29 01 00 	bnd jmp *0x129b5(%rip)        # 1cac0 <_ZNSt7__cxx1112basic_stringIcSt11char_traitsIcESaIcEED1Ev@GLIBCXX_3.4.21>
    a10b:	0f 1f 44 00 00       	nopl   0x0(%rax,%rax,1)

000000000000a110 <MPI_Type_contiguous@plt>:
    a110:	f3 0f 1e fa          	endbr64 
    a114:	f2 ff 25 ad 29 01 00 	bnd jmp *0x129ad(%rip)        # 1cac8 <MPI_Type_contiguous@Base>
    a11b:	0f 1f 44 00 00       	nopl   0x0(%rax,%rax,1)

000000000000a120 <MPI_Cart_sub@plt>:
    a120:	f3 0f 1e fa          	endbr64 
    a124:	f2 ff 25 a5 29 01 00 	bnd jmp *0x129a5(%rip)        # 1cad0 <MPI_Cart_sub@Base>
    a12b:	0f 1f 44 00 00       	nopl   0x0(%rax,%rax,1)

000000000000a130 <__assert_fail@plt>:
    a130:	f3 0f 1e fa          	endbr64 
    a134:	f2 ff 25 9d 29 01 00 	bnd jmp *0x1299d(%rip)        # 1cad8 <__assert_fail@GLIBC_2.2.5>
    a13b:	0f 1f 44 00 00       	nopl   0x0(%rax,%rax,1)

000000000000a140 <_ZNSt7__cxx1112basic_stringIcSt11char_traitsIcESaIcEEC1EmcRKS3_@plt>:
    a140:	f3 0f 1e fa          	endbr64 
    a144:	f2 ff 25 95 29 01 00 	bnd jmp *0x12995(%rip)        # 1cae0 <_ZNSt7__cxx1112basic_stringIcSt11char_traitsIcESaIcEEC1EmcRKS3_@GLIBCXX_3.4.21>
    a14b:	0f 1f 44 00 00       	nopl   0x0(%rax,%rax,1)

000000000000a150 <MPI_Scatter@plt>:
    a150:	f3 0f 1e fa          	endbr64 
    a154:	f2 ff 25 8d 29 01 00 	bnd jmp *0x1298d(%rip)        # 1cae8 <MPI_Scatter@Base>
    a15b:	0f 1f 44 00 00       	nopl   0x0(%rax,%rax,1)

000000000000a160 <MPI_Win_get_group@plt>:
    a160:	f3 0f 1e fa          	endbr64 
    a164:	f2 ff 25 85 29 01 00 	bnd jmp *0x12985(%rip)        # 1caf0 <MPI_Win_get_group@Base>
    a16b:	0f 1f 44 00 00       	nopl   0x0(%rax,%rax,1)

000000000000a170 <_ZNSo5flushEv@plt>:
    a170:	f3 0f 1e fa          	endbr64 
    a174:	f2 ff 25 7d 29 01 00 	bnd jmp *0x1297d(%rip)        # 1caf8 <_ZNSo5flushEv@GLIBCXX_3.4>
    a17b:	0f 1f 44 00 00       	nopl   0x0(%rax,%rax,1)

000000000000a180 <MPI_Ssend_init@plt>:
    a180:	f3 0f 1e fa          	endbr64 
    a184:	f2 ff 25 75 29 01 00 	bnd jmp *0x12975(%rip)        # 1cb00 <MPI_Ssend_init@Base>
    a18b:	0f 1f 44 00 00       	nopl   0x0(%rax,%rax,1)

000000000000a190 <_ZNKSt7__cxx1112basic_stringIcSt11char_traitsIcESaIcEE4sizeEv@plt>:
    a190:	f3 0f 1e fa          	endbr64 
    a194:	f2 ff 25 6d 29 01 00 	bnd jmp *0x1296d(%rip)        # 1cb08 <_ZNKSt7__cxx1112basic_stringIcSt11char_traitsIcESaIcEE4sizeEv@GLIBCXX_3.4.21>
    a19b:	0f 1f 44 00 00       	nopl   0x0(%rax,%rax,1)

000000000000a1a0 <MPI_Comm_spawn@plt>:
    a1a0:	f3 0f 1e fa          	endbr64 
    a1a4:	f2 ff 25 65 29 01 00 	bnd jmp *0x12965(%rip)        # 1cb10 <MPI_Comm_spawn@Base>
    a1ab:	0f 1f 44 00 00       	nopl   0x0(%rax,%rax,1)

000000000000a1b0 <_ZNSt7__cxx1118basic_stringstreamIcSt11char_traitsIcESaIcEEC1Ev@plt>:
    a1b0:	f3 0f 1e fa          	endbr64 
    a1b4:	f2 ff 25 5d 29 01 00 	bnd jmp *0x1295d(%rip)        # 1cb18 <_ZNSt7__cxx1118basic_stringstreamIcSt11char_traitsIcESaIcEEC1Ev@GLIBCXX_3.4.26>
    a1bb:	0f 1f 44 00 00       	nopl   0x0(%rax,%rax,1)

000000000000a1c0 <MPI_Barrier@plt>:
    a1c0:	f3 0f 1e fa          	endbr64 
    a1c4:	f2 ff 25 55 29 01 00 	bnd jmp *0x12955(%rip)        # 1cb20 <MPI_Barrier@Base>
    a1cb:	0f 1f 44 00 00       	nopl   0x0(%rax,%rax,1)

000000000000a1d0 <MPI_Win_start@plt>:
    a1d0:	f3 0f 1e fa          	endbr64 
    a1d4:	f2 ff 25 4d 29 01 00 	bnd jmp *0x1294d(%rip)        # 1cb28 <MPI_Win_start@Base>
    a1db:	0f 1f 44 00 00       	nopl   0x0(%rax,%rax,1)

000000000000a1e0 <MPI_Pack_external@plt>:
    a1e0:	f3 0f 1e fa          	endbr64 
    a1e4:	f2 ff 25 45 29 01 00 	bnd jmp *0x12945(%rip)        # 1cb30 <MPI_Pack_external@Base>
    a1eb:	0f 1f 44 00 00       	nopl   0x0(%rax,%rax,1)

000000000000a1f0 <_ZNSt7__cxx1118basic_stringstreamIcSt11char_traitsIcESaIcEED1Ev@plt>:
    a1f0:	f3 0f 1e fa          	endbr64 
    a1f4:	f2 ff 25 3d 29 01 00 	bnd jmp *0x1293d(%rip)        # 1cb38 <_ZNSt7__cxx1118basic_stringstreamIcSt11char_traitsIcESaIcEED1Ev@GLIBCXX_3.4.21>
    a1fb:	0f 1f 44 00 00       	nopl   0x0(%rax,%rax,1)

000000000000a200 <MPI_Rsend_init@plt>:
    a200:	f3 0f 1e fa          	endbr64 
    a204:	f2 ff 25 35 29 01 00 	bnd jmp *0x12935(%rip)        # 1cb40 <MPI_Rsend_init@Base>
    a20b:	0f 1f 44 00 00       	nopl   0x0(%rax,%rax,1)

000000000000a210 <MPI_Group_incl@plt>:
    a210:	f3 0f 1e fa          	endbr64 
    a214:	f2 ff 25 2d 29 01 00 	bnd jmp *0x1292d(%rip)        # 1cb48 <MPI_Group_incl@Base>
    a21b:	0f 1f 44 00 00       	nopl   0x0(%rax,%rax,1)

000000000000a220 <MPI_Bsend_init@plt>:
    a220:	f3 0f 1e fa          	endbr64 
    a224:	f2 ff 25 25 29 01 00 	bnd jmp *0x12925(%rip)        # 1cb50 <MPI_Bsend_init@Base>
    a22b:	0f 1f 44 00 00       	nopl   0x0(%rax,%rax,1)

000000000000a230 <_ZNSt14basic_ofstreamIcSt11char_traitsIcEE7is_openEv@plt>:
    a230:	f3 0f 1e fa          	endbr64 
    a234:	f2 ff 25 1d 29 01 00 	bnd jmp *0x1291d(%rip)        # 1cb58 <_ZNSt14basic_ofstreamIcSt11char_traitsIcEE7is_openEv@GLIBCXX_3.4>
    a23b:	0f 1f 44 00 00       	nopl   0x0(%rax,%rax,1)

000000000000a240 <MPI_Sendrecv@plt>:
    a240:	f3 0f 1e fa          	endbr64 
    a244:	f2 ff 25 15 29 01 00 	bnd jmp *0x12915(%rip)        # 1cb60 <MPI_Sendrecv@Base>
    a24b:	0f 1f 44 00 00       	nopl   0x0(%rax,%rax,1)

000000000000a250 <MPI_Finalize@plt>:
    a250:	f3 0f 1e fa          	endbr64 
    a254:	f2 ff 25 0d 29 01 00 	bnd jmp *0x1290d(%rip)        # 1cb68 <MPI_Finalize@Base>
    a25b:	0f 1f 44 00 00       	nopl   0x0(%rax,%rax,1)

000000000000a260 <sqrt@plt>:
    a260:	f3 0f 1e fa          	endbr64 
    a264:	f2 ff 25 05 29 01 00 	bnd jmp *0x12905(%rip)        # 1cb70 <sqrt@GLIBC_2.2.5>
    a26b:	0f 1f 44 00 00       	nopl   0x0(%rax,%rax,1)

000000000000a270 <MPI_Request_free@plt>:
    a270:	f3 0f 1e fa          	endbr64 
    a274:	f2 ff 25 fd 28 01 00 	bnd jmp *0x128fd(%rip)        # 1cb78 <MPI_Request_free@Base>
    a27b:	0f 1f 44 00 00       	nopl   0x0(%rax,%rax,1)

000000000000a280 <MPI_Gather@plt>:
    a280:	f3 0f 1e fa          	endbr64 
    a284:	f2 ff 25 f5 28 01 00 	bnd jmp *0x128f5(%rip)        # 1cb80 <MPI_Gather@Base>
    a28b:	0f 1f 44 00 00       	nopl   0x0(%rax,%rax,1)

000000000000a290 <MPI_Grequest_complete@plt>:
    a290:	f3 0f 1e fa          	endbr64 
    a294:	f2 ff 25 ed 28 01 00 	bnd jmp *0x128ed(%rip)        # 1cb88 <MPI_Grequest_complete@Base>
    a29b:	0f 1f 44 00 00       	nopl   0x0(%rax,%rax,1)

000000000000a2a0 <MPI_Type_create_darray@plt>:
    a2a0:	f3 0f 1e fa          	endbr64 
    a2a4:	f2 ff 25 e5 28 01 00 	bnd jmp *0x128e5(%rip)        # 1cb90 <MPI_Type_create_darray@Base>
    a2ab:	0f 1f 44 00 00       	nopl   0x0(%rax,%rax,1)

000000000000a2b0 <MPI_Win_wait@plt>:
    a2b0:	f3 0f 1e fa          	endbr64 
    a2b4:	f2 ff 25 dd 28 01 00 	bnd jmp *0x128dd(%rip)        # 1cb98 <MPI_Win_wait@Base>
    a2bb:	0f 1f 44 00 00       	nopl   0x0(%rax,%rax,1)

000000000000a2c0 <MPI_Rsend@plt>:
    a2c0:	f3 0f 1e fa          	endbr64 
    a2c4:	f2 ff 25 d5 28 01 00 	bnd jmp *0x128d5(%rip)        # 1cba0 <MPI_Rsend@Base>
    a2cb:	0f 1f 44 00 00       	nopl   0x0(%rax,%rax,1)

000000000000a2d0 <MPI_Recv@plt>:
    a2d0:	f3 0f 1e fa          	endbr64 
    a2d4:	f2 ff 25 cd 28 01 00 	bnd jmp *0x128cd(%rip)        # 1cba8 <MPI_Recv@Base>
    a2db:	0f 1f 44 00 00       	nopl   0x0(%rax,%rax,1)

000000000000a2e0 <MPI_Graph_get@plt>:
    a2e0:	f3 0f 1e fa          	endbr64 
    a2e4:	f2 ff 25 c5 28 01 00 	bnd jmp *0x128c5(%rip)        # 1cbb0 <MPI_Graph_get@Base>
    a2eb:	0f 1f 44 00 00       	nopl   0x0(%rax,%rax,1)

000000000000a2f0 <MPI_Comm_group@plt>:
    a2f0:	f3 0f 1e fa          	endbr64 
    a2f4:	f2 ff 25 bd 28 01 00 	bnd jmp *0x128bd(%rip)        # 1cbb8 <MPI_Comm_group@Base>
    a2fb:	0f 1f 44 00 00       	nopl   0x0(%rax,%rax,1)

000000000000a300 <MPI_Comm_create@plt>:
    a300:	f3 0f 1e fa          	endbr64 
    a304:	f2 ff 25 b5 28 01 00 	bnd jmp *0x128b5(%rip)        # 1cbc0 <MPI_Comm_create@Base>
    a30b:	0f 1f 44 00 00       	nopl   0x0(%rax,%rax,1)

000000000000a310 <MPI_Cart_get@plt>:
    a310:	f3 0f 1e fa          	endbr64 
    a314:	f2 ff 25 ad 28 01 00 	bnd jmp *0x128ad(%rip)        # 1cbc8 <MPI_Cart_get@Base>
    a31b:	0f 1f 44 00 00       	nopl   0x0(%rax,%rax,1)

000000000000a320 <__cxa_atexit@plt>:
    a320:	f3 0f 1e fa          	endbr64 
    a324:	f2 ff 25 a5 28 01 00 	bnd jmp *0x128a5(%rip)        # 1cbd0 <__cxa_atexit@GLIBC_2.2.5>
    a32b:	0f 1f 44 00 00       	nopl   0x0(%rax,%rax,1)

000000000000a330 <MPI_Type_get_attr@plt>:
    a330:	f3 0f 1e fa          	endbr64 
    a334:	f2 ff 25 9d 28 01 00 	bnd jmp *0x1289d(%rip)        # 1cbd8 <MPI_Type_get_attr@Base>
    a33b:	0f 1f 44 00 00       	nopl   0x0(%rax,%rax,1)

000000000000a340 <MPI_Op_commutative@plt>:
    a340:	f3 0f 1e fa          	endbr64 
    a344:	f2 ff 25 95 28 01 00 	bnd jmp *0x12895(%rip)        # 1cbe0 <MPI_Op_commutative@Base>
    a34b:	0f 1f 44 00 00       	nopl   0x0(%rax,%rax,1)

000000000000a350 <MPI_Graph_map@plt>:
    a350:	f3 0f 1e fa          	endbr64 
    a354:	f2 ff 25 8d 28 01 00 	bnd jmp *0x1288d(%rip)        # 1cbe8 <MPI_Graph_map@Base>
    a35b:	0f 1f 44 00 00       	nopl   0x0(%rax,%rax,1)

000000000000a360 <MPI_Win_set_name@plt>:
    a360:	f3 0f 1e fa          	endbr64 
    a364:	f2 ff 25 85 28 01 00 	bnd jmp *0x12885(%rip)        # 1cbf0 <MPI_Win_set_name@Base>
    a36b:	0f 1f 44 00 00       	nopl   0x0(%rax,%rax,1)

000000000000a370 <MPI_Test_cancelled@plt>:
    a370:	f3 0f 1e fa          	endbr64 
    a374:	f2 ff 25 7d 28 01 00 	bnd jmp *0x1287d(%rip)        # 1cbf8 <MPI_Test_cancelled@Base>
    a37b:	0f 1f 44 00 00       	nopl   0x0(%rax,%rax,1)

000000000000a380 <MPI_Cart_map@plt>:
    a380:	f3 0f 1e fa          	endbr64 
    a384:	f2 ff 25 75 28 01 00 	bnd jmp *0x12875(%rip)        # 1cc00 <MPI_Cart_map@Base>
    a38b:	0f 1f 44 00 00       	nopl   0x0(%rax,%rax,1)

000000000000a390 <MPI_Exscan@plt>:
    a390:	f3 0f 1e fa          	endbr64 
    a394:	f2 ff 25 6d 28 01 00 	bnd jmp *0x1286d(%rip)        # 1cc08 <MPI_Exscan@Base>
    a39b:	0f 1f 44 00 00       	nopl   0x0(%rax,%rax,1)

000000000000a3a0 <MPI_Pack@plt>:
    a3a0:	f3 0f 1e fa          	endbr64 
    a3a4:	f2 ff 25 65 28 01 00 	bnd jmp *0x12865(%rip)        # 1cc10 <MPI_Pack@Base>
    a3ab:	0f 1f 44 00 00       	nopl   0x0(%rax,%rax,1)

000000000000a3b0 <__isoc99_sscanf@plt>:
    a3b0:	f3 0f 1e fa          	endbr64 
    a3b4:	f2 ff 25 5d 28 01 00 	bnd jmp *0x1285d(%rip)        # 1cc18 <__isoc99_sscanf@GLIBC_2.7>
    a3bb:	0f 1f 44 00 00       	nopl   0x0(%rax,%rax,1)

000000000000a3c0 <_ZStlsISt11char_traitsIcEERSt13basic_ostreamIcT_ES5_PKc@plt>:
    a3c0:	f3 0f 1e fa          	endbr64 
    a3c4:	f2 ff 25 55 28 01 00 	bnd jmp *0x12855(%rip)        # 1cc20 <_ZStlsISt11char_traitsIcEERSt13basic_ostreamIcT_ES5_PKc@GLIBCXX_3.4>
    a3cb:	0f 1f 44 00 00       	nopl   0x0(%rax,%rax,1)

000000000000a3d0 <_Znwm@plt>:
    a3d0:	f3 0f 1e fa          	endbr64 
    a3d4:	f2 ff 25 4d 28 01 00 	bnd jmp *0x1284d(%rip)        # 1cc28 <_Znwm@GLIBCXX_3.4>
    a3db:	0f 1f 44 00 00       	nopl   0x0(%rax,%rax,1)

000000000000a3e0 <MPI_Errhandler_free@plt>:
    a3e0:	f3 0f 1e fa          	endbr64 
    a3e4:	f2 ff 25 45 28 01 00 	bnd jmp *0x12845(%rip)        # 1cc30 <MPI_Errhandler_free@Base>
    a3eb:	0f 1f 44 00 00       	nopl   0x0(%rax,%rax,1)

000000000000a3f0 <_ZdlPvm@plt>:
    a3f0:	f3 0f 1e fa          	endbr64 
    a3f4:	f2 ff 25 3d 28 01 00 	bnd jmp *0x1283d(%rip)        # 1cc38 <_ZdlPvm@CXXABI_1.3.9>
    a3fb:	0f 1f 44 00 00       	nopl   0x0(%rax,%rax,1)

000000000000a400 <_ZNSolsEPFRSoS_E@plt>:
    a400:	f3 0f 1e fa          	endbr64 
    a404:	f2 ff 25 35 28 01 00 	bnd jmp *0x12835(%rip)        # 1cc40 <_ZNSolsEPFRSoS_E@GLIBCXX_3.4>
    a40b:	0f 1f 44 00 00       	nopl   0x0(%rax,%rax,1)

000000000000a410 <MPI_Abort@plt>:
    a410:	f3 0f 1e fa          	endbr64 
    a414:	f2 ff 25 2d 28 01 00 	bnd jmp *0x1282d(%rip)        # 1cc48 <MPI_Abort@Base>
    a41b:	0f 1f 44 00 00       	nopl   0x0(%rax,%rax,1)

000000000000a420 <MPI_Intercomm_create@plt>:
    a420:	f3 0f 1e fa          	endbr64 
    a424:	f2 ff 25 25 28 01 00 	bnd jmp *0x12825(%rip)        # 1cc50 <MPI_Intercomm_create@Base>
    a42b:	0f 1f 44 00 00       	nopl   0x0(%rax,%rax,1)

000000000000a430 <MPI_Cartdim_get@plt>:
    a430:	f3 0f 1e fa          	endbr64 
    a434:	f2 ff 25 1d 28 01 00 	bnd jmp *0x1281d(%rip)        # 1cc58 <MPI_Cartdim_get@Base>
    a43b:	0f 1f 44 00 00       	nopl   0x0(%rax,%rax,1)

000000000000a440 <MPI_Cart_coords@plt>:
    a440:	f3 0f 1e fa          	endbr64 
    a444:	f2 ff 25 15 28 01 00 	bnd jmp *0x12815(%rip)        # 1cc60 <MPI_Cart_coords@Base>
    a44b:	0f 1f 44 00 00       	nopl   0x0(%rax,%rax,1)

000000000000a450 <ompi_op_set_cxx_callback@plt>:
    a450:	f3 0f 1e fa          	endbr64 
    a454:	f2 ff 25 0d 28 01 00 	bnd jmp *0x1280d(%rip)        # 1cc68 <ompi_op_set_cxx_callback@Base>
    a45b:	0f 1f 44 00 00       	nopl   0x0(%rax,%rax,1)

000000000000a460 <_ZNSaIcED1Ev@plt>:
    a460:	f3 0f 1e fa          	endbr64 
    a464:	f2 ff 25 05 28 01 00 	bnd jmp *0x12805(%rip)        # 1cc70 <_ZNSaIcED1Ev@GLIBCXX_3.4>
    a46b:	0f 1f 44 00 00       	nopl   0x0(%rax,%rax,1)

000000000000a470 <MPI_Get_elements@plt>:
    a470:	f3 0f 1e fa          	endbr64 
    a474:	f2 ff 25 fd 27 01 00 	bnd jmp *0x127fd(%rip)        # 1cc78 <MPI_Get_elements@Base>
    a47b:	0f 1f 44 00 00       	nopl   0x0(%rax,%rax,1)

000000000000a480 <MPI_Comm_delete_attr@plt>:
    a480:	f3 0f 1e fa          	endbr64 
    a484:	f2 ff 25 f5 27 01 00 	bnd jmp *0x127f5(%rip)        # 1cc80 <MPI_Comm_delete_attr@Base>
    a48b:	0f 1f 44 00 00       	nopl   0x0(%rax,%rax,1)

000000000000a490 <MPI_Send_init@plt>:
    a490:	f3 0f 1e fa          	endbr64 
    a494:	f2 ff 25 ed 27 01 00 	bnd jmp *0x127ed(%rip)        # 1cc88 <MPI_Send_init@Base>
    a49b:	0f 1f 44 00 00       	nopl   0x0(%rax,%rax,1)

000000000000a4a0 <MPI_Info_get_nkeys@plt>:
    a4a0:	f3 0f 1e fa          	endbr64 
    a4a4:	f2 ff 25 e5 27 01 00 	bnd jmp *0x127e5(%rip)        # 1cc90 <MPI_Info_get_nkeys@Base>
    a4ab:	0f 1f 44 00 00       	nopl   0x0(%rax,%rax,1)

000000000000a4b0 <MPI_Bsend@plt>:
    a4b0:	f3 0f 1e fa          	endbr64 
    a4b4:	f2 ff 25 dd 27 01 00 	bnd jmp *0x127dd(%rip)        # 1cc98 <MPI_Bsend@Base>
    a4bb:	0f 1f 44 00 00       	nopl   0x0(%rax,%rax,1)

000000000000a4c0 <MPI_Scan@plt>:
    a4c0:	f3 0f 1e fa          	endbr64 
    a4c4:	f2 ff 25 d5 27 01 00 	bnd jmp *0x127d5(%rip)        # 1cca0 <MPI_Scan@Base>
    a4cb:	0f 1f 44 00 00       	nopl   0x0(%rax,%rax,1)

000000000000a4d0 <__stack_chk_fail@plt>:
    a4d0:	f3 0f 1e fa          	endbr64 
    a4d4:	f2 ff 25 cd 27 01 00 	bnd jmp *0x127cd(%rip)        # 1cca8 <__stack_chk_fail@GLIBC_2.4>
    a4db:	0f 1f 44 00 00       	nopl   0x0(%rax,%rax,1)

000000000000a4e0 <MPI_Comm_size@plt>:
    a4e0:	f3 0f 1e fa          	endbr64 
    a4e4:	f2 ff 25 c5 27 01 00 	bnd jmp *0x127c5(%rip)        # 1ccb0 <MPI_Comm_size@Base>
    a4eb:	0f 1f 44 00 00       	nopl   0x0(%rax,%rax,1)

000000000000a4f0 <free@plt>:
    a4f0:	f3 0f 1e fa          	endbr64 
    a4f4:	f2 ff 25 bd 27 01 00 	bnd jmp *0x127bd(%rip)        # 1ccb8 <free@GLIBC_2.2.5>
    a4fb:	0f 1f 44 00 00       	nopl   0x0(%rax,%rax,1)

000000000000a500 <MPI_Type_create_hindexed@plt>:
    a500:	f3 0f 1e fa          	endbr64 
    a504:	f2 ff 25 b5 27 01 00 	bnd jmp *0x127b5(%rip)        # 1ccc0 <MPI_Type_create_hindexed@Base>
    a50b:	0f 1f 44 00 00       	nopl   0x0(%rax,%rax,1)

000000000000a510 <MPI_Reduce_local@plt>:
    a510:	f3 0f 1e fa          	endbr64 
    a514:	f2 ff 25 ad 27 01 00 	bnd jmp *0x127ad(%rip)        # 1ccc8 <MPI_Reduce_local@Base>
    a51b:	0f 1f 44 00 00       	nopl   0x0(%rax,%rax,1)

000000000000a520 <MPI_Reduce_scatter@plt>:
    a520:	f3 0f 1e fa          	endbr64 
    a524:	f2 ff 25 a5 27 01 00 	bnd jmp *0x127a5(%rip)        # 1ccd0 <MPI_Reduce_scatter@Base>
    a52b:	0f 1f 44 00 00       	nopl   0x0(%rax,%rax,1)

000000000000a530 <exit@plt>:
    a530:	f3 0f 1e fa          	endbr64 
    a534:	f2 ff 25 9d 27 01 00 	bnd jmp *0x1279d(%rip)        # 1ccd8 <exit@GLIBC_2.2.5>
    a53b:	0f 1f 44 00 00       	nopl   0x0(%rax,%rax,1)

000000000000a540 <MPI_Win_lock@plt>:
    a540:	f3 0f 1e fa          	endbr64 
    a544:	f2 ff 25 95 27 01 00 	bnd jmp *0x12795(%rip)        # 1cce0 <MPI_Win_lock@Base>
    a54b:	0f 1f 44 00 00       	nopl   0x0(%rax,%rax,1)

000000000000a550 <MPI_Allreduce@plt>:
    a550:	f3 0f 1e fa          	endbr64 
    a554:	f2 ff 25 8d 27 01 00 	bnd jmp *0x1278d(%rip)        # 1cce8 <MPI_Allreduce@Base>
    a55b:	0f 1f 44 00 00       	nopl   0x0(%rax,%rax,1)

000000000000a560 <MPI_Allgatherv@plt>:
    a560:	f3 0f 1e fa          	endbr64 
    a564:	f2 ff 25 85 27 01 00 	bnd jmp *0x12785(%rip)        # 1ccf0 <MPI_Allgatherv@Base>
    a56b:	0f 1f 44 00 00       	nopl   0x0(%rax,%rax,1)

000000000000a570 <atof@plt>:
    a570:	f3 0f 1e fa          	endbr64 
    a574:	f2 ff 25 7d 27 01 00 	bnd jmp *0x1277d(%rip)        # 1ccf8 <atof@GLIBC_2.2.5>
    a57b:	0f 1f 44 00 00       	nopl   0x0(%rax,%rax,1)

000000000000a580 <MPI_Group_range_excl@plt>:
    a580:	f3 0f 1e fa          	endbr64 
    a584:	f2 ff 25 75 27 01 00 	bnd jmp *0x12775(%rip)        # 1cd00 <MPI_Group_range_excl@Base>
    a58b:	0f 1f 44 00 00       	nopl   0x0(%rax,%rax,1)

000000000000a590 <_ZNKSt9basic_iosIcSt11char_traitsIcEEcvbEv@plt>:
    a590:	f3 0f 1e fa          	endbr64 
    a594:	f2 ff 25 6d 27 01 00 	bnd jmp *0x1276d(%rip)        # 1cd08 <_ZNKSt9basic_iosIcSt11char_traitsIcEEcvbEv@GLIBCXX_3.4.21>
    a59b:	0f 1f 44 00 00       	nopl   0x0(%rax,%rax,1)

000000000000a5a0 <MPI_Type_commit@plt>:
    a5a0:	f3 0f 1e fa          	endbr64 
    a5a4:	f2 ff 25 65 27 01 00 	bnd jmp *0x12765(%rip)        # 1cd10 <MPI_Type_commit@Base>
    a5ab:	0f 1f 44 00 00       	nopl   0x0(%rax,%rax,1)

000000000000a5b0 <MPI_Put@plt>:
    a5b0:	f3 0f 1e fa          	endbr64 
    a5b4:	f2 ff 25 5d 27 01 00 	bnd jmp *0x1275d(%rip)        # 1cd18 <MPI_Put@Base>
    a5bb:	0f 1f 44 00 00       	nopl   0x0(%rax,%rax,1)

000000000000a5c0 <_ZdaPv@plt>:
    a5c0:	f3 0f 1e fa          	endbr64 
    a5c4:	f2 ff 25 55 27 01 00 	bnd jmp *0x12755(%rip)        # 1cd20 <_ZdaPv@GLIBCXX_3.4>
    a5cb:	0f 1f 44 00 00       	nopl   0x0(%rax,%rax,1)

000000000000a5d0 <MPI_Type_size@plt>:
    a5d0:	f3 0f 1e fa          	endbr64 
    a5d4:	f2 ff 25 4d 27 01 00 	bnd jmp *0x1274d(%rip)        # 1cd28 <MPI_Type_size@Base>
    a5db:	0f 1f 44 00 00       	nopl   0x0(%rax,%rax,1)

000000000000a5e0 <MPI_Status_set_elements@plt>:
    a5e0:	f3 0f 1e fa          	endbr64 
    a5e4:	f2 ff 25 45 27 01 00 	bnd jmp *0x12745(%rip)        # 1cd30 <MPI_Status_set_elements@Base>
    a5eb:	0f 1f 44 00 00       	nopl   0x0(%rax,%rax,1)

000000000000a5f0 <MPI_Comm_get_errhandler@plt>:
    a5f0:	f3 0f 1e fa          	endbr64 
    a5f4:	f2 ff 25 3d 27 01 00 	bnd jmp *0x1273d(%rip)        # 1cd38 <MPI_Comm_get_errhandler@Base>
    a5fb:	0f 1f 44 00 00       	nopl   0x0(%rax,%rax,1)

000000000000a600 <MPI_Reduce@plt>:
    a600:	f3 0f 1e fa          	endbr64 
    a604:	f2 ff 25 35 27 01 00 	bnd jmp *0x12735(%rip)        # 1cd40 <MPI_Reduce@Base>
    a60b:	0f 1f 44 00 00       	nopl   0x0(%rax,%rax,1)

000000000000a610 <MPI_Comm_remote_group@plt>:
    a610:	f3 0f 1e fa          	endbr64 
    a614:	f2 ff 25 2d 27 01 00 	bnd jmp *0x1272d(%rip)        # 1cd48 <MPI_Comm_remote_group@Base>
    a61b:	0f 1f 44 00 00       	nopl   0x0(%rax,%rax,1)

000000000000a620 <malloc@plt>:
    a620:	f3 0f 1e fa          	endbr64 
    a624:	f2 ff 25 25 27 01 00 	bnd jmp *0x12725(%rip)        # 1cd50 <malloc@GLIBC_2.2.5>
    a62b:	0f 1f 44 00 00       	nopl   0x0(%rax,%rax,1)

000000000000a630 <MPI_Wait@plt>:
    a630:	f3 0f 1e fa          	endbr64 
    a634:	f2 ff 25 1d 27 01 00 	bnd jmp *0x1271d(%rip)        # 1cd58 <MPI_Wait@Base>
    a63b:	0f 1f 44 00 00       	nopl   0x0(%rax,%rax,1)

000000000000a640 <MPI_Comm_dup@plt>:
    a640:	f3 0f 1e fa          	endbr64 
    a644:	f2 ff 25 15 27 01 00 	bnd jmp *0x12715(%rip)        # 1cd60 <MPI_Comm_dup@Base>
    a64b:	0f 1f 44 00 00       	nopl   0x0(%rax,%rax,1)

000000000000a650 <MPI_Sendrecv_replace@plt>:
    a650:	f3 0f 1e fa          	endbr64 
    a654:	f2 ff 25 0d 27 01 00 	bnd jmp *0x1270d(%rip)        # 1cd68 <MPI_Sendrecv_replace@Base>
    a65b:	0f 1f 44 00 00       	nopl   0x0(%rax,%rax,1)

000000000000a660 <_ZNSt7__cxx1112basic_stringIcSt11char_traitsIcESaIcEEC1EPKcRKS3_@plt>:
    a660:	f3 0f 1e fa          	endbr64 
    a664:	f2 ff 25 05 27 01 00 	bnd jmp *0x12705(%rip)        # 1cd70 <_ZNSt7__cxx1112basic_stringIcSt11char_traitsIcESaIcEEC1EPKcRKS3_@GLIBCXX_3.4.21>
    a66b:	0f 1f 44 00 00       	nopl   0x0(%rax,%rax,1)

000000000000a670 <MPI_Irecv@plt>:
    a670:	f3 0f 1e fa          	endbr64 
    a674:	f2 ff 25 fd 26 01 00 	bnd jmp *0x126fd(%rip)        # 1cd78 <MPI_Irecv@Base>
    a67b:	0f 1f 44 00 00       	nopl   0x0(%rax,%rax,1)

000000000000a680 <MPI_Alltoallw@plt>:
    a680:	f3 0f 1e fa          	endbr64 
    a684:	f2 ff 25 f5 26 01 00 	bnd jmp *0x126f5(%rip)        # 1cd80 <MPI_Alltoallw@Base>
    a68b:	0f 1f 44 00 00       	nopl   0x0(%rax,%rax,1)

000000000000a690 <_ZNSt7__cxx1112basic_stringIcSt11char_traitsIcESaIcEEC1Ev@plt>:
    a690:	f3 0f 1e fa          	endbr64 
    a694:	f2 ff 25 ed 26 01 00 	bnd jmp *0x126ed(%rip)        # 1cd88 <_ZNSt7__cxx1112basic_stringIcSt11char_traitsIcESaIcEEC1Ev@GLIBCXX_3.4.21>
    a69b:	0f 1f 44 00 00       	nopl   0x0(%rax,%rax,1)

000000000000a6a0 <MPI_Type_get_name@plt>:
    a6a0:	f3 0f 1e fa          	endbr64 
    a6a4:	f2 ff 25 e5 26 01 00 	bnd jmp *0x126e5(%rip)        # 1cd90 <MPI_Type_get_name@Base>
    a6ab:	0f 1f 44 00 00       	nopl   0x0(%rax,%rax,1)

000000000000a6b0 <MPI_Type_create_indexed_block@plt>:
    a6b0:	f3 0f 1e fa          	endbr64 
    a6b4:	f2 ff 25 dd 26 01 00 	bnd jmp *0x126dd(%rip)        # 1cd98 <MPI_Type_create_indexed_block@Base>
    a6bb:	0f 1f 44 00 00       	nopl   0x0(%rax,%rax,1)

000000000000a6c0 <MPI_Type_get_contents@plt>:
    a6c0:	f3 0f 1e fa          	endbr64 
    a6c4:	f2 ff 25 d5 26 01 00 	bnd jmp *0x126d5(%rip)        # 1cda0 <MPI_Type_get_contents@Base>
    a6cb:	0f 1f 44 00 00       	nopl   0x0(%rax,%rax,1)

000000000000a6d0 <MPI_Comm_get_attr@plt>:
    a6d0:	f3 0f 1e fa          	endbr64 
    a6d4:	f2 ff 25 cd 26 01 00 	bnd jmp *0x126cd(%rip)        # 1cda8 <MPI_Comm_get_attr@Base>
    a6db:	0f 1f 44 00 00       	nopl   0x0(%rax,%rax,1)

000000000000a6e0 <__cxa_throw_bad_array_new_length@plt>:
    a6e0:	f3 0f 1e fa          	endbr64 
    a6e4:	f2 ff 25 c5 26 01 00 	bnd jmp *0x126c5(%rip)        # 1cdb0 <__cxa_throw_bad_array_new_length@CXXABI_1.3.8>
    a6eb:	0f 1f 44 00 00       	nopl   0x0(%rax,%rax,1)

000000000000a6f0 <MPI_Comm_rank@plt>:
    a6f0:	f3 0f 1e fa          	endbr64 
    a6f4:	f2 ff 25 bd 26 01 00 	bnd jmp *0x126bd(%rip)        # 1cdb8 <MPI_Comm_rank@Base>
    a6fb:	0f 1f 44 00 00       	nopl   0x0(%rax,%rax,1)

000000000000a700 <MPI_Init@plt>:
    a700:	f3 0f 1e fa          	endbr64 
    a704:	f2 ff 25 b5 26 01 00 	bnd jmp *0x126b5(%rip)        # 1cdc0 <MPI_Init@Base>
    a70b:	0f 1f 44 00 00       	nopl   0x0(%rax,%rax,1)

000000000000a710 <_ZNSt14basic_ofstreamIcSt11char_traitsIcEE5closeEv@plt>:
    a710:	f3 0f 1e fa          	endbr64 
    a714:	f2 ff 25 ad 26 01 00 	bnd jmp *0x126ad(%rip)        # 1cdc8 <_ZNSt14basic_ofstreamIcSt11char_traitsIcEE5closeEv@GLIBCXX_3.4>
    a71b:	0f 1f 44 00 00       	nopl   0x0(%rax,%rax,1)

000000000000a720 <MPI_Info_delete@plt>:
    a720:	f3 0f 1e fa          	endbr64 
    a724:	f2 ff 25 a5 26 01 00 	bnd jmp *0x126a5(%rip)        # 1cdd0 <MPI_Info_delete@Base>
    a72b:	0f 1f 44 00 00       	nopl   0x0(%rax,%rax,1)

000000000000a730 <MPI_Topo_test@plt>:
    a730:	f3 0f 1e fa          	endbr64 
    a734:	f2 ff 25 9d 26 01 00 	bnd jmp *0x1269d(%rip)        # 1cdd8 <MPI_Topo_test@Base>
    a73b:	0f 1f 44 00 00       	nopl   0x0(%rax,%rax,1)

000000000000a740 <MPI_Get_count@plt>:
    a740:	f3 0f 1e fa          	endbr64 
    a744:	f2 ff 25 95 26 01 00 	bnd jmp *0x12695(%rip)        # 1cde0 <MPI_Get_count@Base>
    a74b:	0f 1f 44 00 00       	nopl   0x0(%rax,%rax,1)

000000000000a750 <fprintf@plt>:
    a750:	f3 0f 1e fa          	endbr64 
    a754:	f2 ff 25 8d 26 01 00 	bnd jmp *0x1268d(%rip)        # 1cde8 <fprintf@GLIBC_2.2.5>
    a75b:	0f 1f 44 00 00       	nopl   0x0(%rax,%rax,1)

000000000000a760 <MPI_Info_get_nthkey@plt>:
    a760:	f3 0f 1e fa          	endbr64 
    a764:	f2 ff 25 85 26 01 00 	bnd jmp *0x12685(%rip)        # 1cdf0 <MPI_Info_get_nthkey@Base>
    a76b:	0f 1f 44 00 00       	nopl   0x0(%rax,%rax,1)

000000000000a770 <_ZNSt14basic_ofstreamIcSt11char_traitsIcEED1Ev@plt>:
    a770:	f3 0f 1e fa          	endbr64 
    a774:	f2 ff 25 7d 26 01 00 	bnd jmp *0x1267d(%rip)        # 1cdf8 <_ZNSt14basic_ofstreamIcSt11char_traitsIcEED1Ev@GLIBCXX_3.4>
    a77b:	0f 1f 44 00 00       	nopl   0x0(%rax,%rax,1)

000000000000a780 <MPI_Win_set_errhandler@plt>:
    a780:	f3 0f 1e fa          	endbr64 
    a784:	f2 ff 25 75 26 01 00 	bnd jmp *0x12675(%rip)        # 1ce00 <MPI_Win_set_errhandler@Base>
    a78b:	0f 1f 44 00 00       	nopl   0x0(%rax,%rax,1)

000000000000a790 <MPI_Comm_remote_size@plt>:
    a790:	f3 0f 1e fa          	endbr64 
    a794:	f2 ff 25 6d 26 01 00 	bnd jmp *0x1266d(%rip)        # 1ce08 <MPI_Comm_remote_size@Base>
    a79b:	0f 1f 44 00 00       	nopl   0x0(%rax,%rax,1)

000000000000a7a0 <MPI_Type_dup@plt>:
    a7a0:	f3 0f 1e fa          	endbr64 
    a7a4:	f2 ff 25 65 26 01 00 	bnd jmp *0x12665(%rip)        # 1ce10 <MPI_Type_dup@Base>
    a7ab:	0f 1f 44 00 00       	nopl   0x0(%rax,%rax,1)

000000000000a7b0 <_ZNSt8ios_base4InitC1Ev@plt>:
    a7b0:	f3 0f 1e fa          	endbr64 
    a7b4:	f2 ff 25 5d 26 01 00 	bnd jmp *0x1265d(%rip)        # 1ce18 <_ZNSt8ios_base4InitC1Ev@GLIBCXX_3.4>
    a7bb:	0f 1f 44 00 00       	nopl   0x0(%rax,%rax,1)

000000000000a7c0 <puts@plt>:
    a7c0:	f3 0f 1e fa          	endbr64 
    a7c4:	f2 ff 25 55 26 01 00 	bnd jmp *0x12655(%rip)        # 1ce20 <puts@GLIBC_2.2.5>
    a7cb:	0f 1f 44 00 00       	nopl   0x0(%rax,%rax,1)

000000000000a7d0 <MPI_Comm_set_errhandler@plt>:
    a7d0:	f3 0f 1e fa          	endbr64 
    a7d4:	f2 ff 25 4d 26 01 00 	bnd jmp *0x1264d(%rip)        # 1ce28 <MPI_Comm_set_errhandler@Base>
    a7db:	0f 1f 44 00 00       	nopl   0x0(%rax,%rax,1)

000000000000a7e0 <MPI_Ibsend@plt>:
    a7e0:	f3 0f 1e fa          	endbr64 
    a7e4:	f2 ff 25 45 26 01 00 	bnd jmp *0x12645(%rip)        # 1ce30 <MPI_Ibsend@Base>
    a7eb:	0f 1f 44 00 00       	nopl   0x0(%rax,%rax,1)

000000000000a7f0 <MPI_Alltoallv@plt>:
    a7f0:	f3 0f 1e fa          	endbr64 
    a7f4:	f2 ff 25 3d 26 01 00 	bnd jmp *0x1263d(%rip)        # 1ce38 <MPI_Alltoallv@Base>
    a7fb:	0f 1f 44 00 00       	nopl   0x0(%rax,%rax,1)

000000000000a800 <MPI_Op_free@plt>:
    a800:	f3 0f 1e fa          	endbr64 
    a804:	f2 ff 25 35 26 01 00 	bnd jmp *0x12635(%rip)        # 1ce40 <MPI_Op_free@Base>
    a80b:	0f 1f 44 00 00       	nopl   0x0(%rax,%rax,1)

000000000000a810 <strtok@plt>:
    a810:	f3 0f 1e fa          	endbr64 
    a814:	f2 ff 25 2d 26 01 00 	bnd jmp *0x1262d(%rip)        # 1ce48 <strtok@GLIBC_2.2.5>
    a81b:	0f 1f 44 00 00       	nopl   0x0(%rax,%rax,1)

000000000000a820 <MPI_Comm_connect@plt>:
    a820:	f3 0f 1e fa          	endbr64 
    a824:	f2 ff 25 25 26 01 00 	bnd jmp *0x12625(%rip)        # 1ce50 <MPI_Comm_connect@Base>
    a82b:	0f 1f 44 00 00       	nopl   0x0(%rax,%rax,1)

000000000000a830 <_ZNSt7__cxx1112basic_stringIcSt11char_traitsIcESaIcEE6insertEmRKS4_@plt>:
    a830:	f3 0f 1e fa          	endbr64 
    a834:	f2 ff 25 1d 26 01 00 	bnd jmp *0x1261d(%rip)        # 1ce58 <_ZNSt7__cxx1112basic_stringIcSt11char_traitsIcESaIcEE6insertEmRKS4_@GLIBCXX_3.4.21>
    a83b:	0f 1f 44 00 00       	nopl   0x0(%rax,%rax,1)

000000000000a840 <MPI_Comm_free@plt>:
    a840:	f3 0f 1e fa          	endbr64 
    a844:	f2 ff 25 15 26 01 00 	bnd jmp *0x12615(%rip)        # 1ce60 <MPI_Comm_free@Base>
    a84b:	0f 1f 44 00 00       	nopl   0x0(%rax,%rax,1)

000000000000a850 <_ZNSt14basic_ifstreamIcSt11char_traitsIcEE7is_openEv@plt>:
    a850:	f3 0f 1e fa          	endbr64 
    a854:	f2 ff 25 0d 26 01 00 	bnd jmp *0x1260d(%rip)        # 1ce68 <_ZNSt14basic_ifstreamIcSt11char_traitsIcEE7is_openEv@GLIBCXX_3.4>
    a85b:	0f 1f 44 00 00       	nopl   0x0(%rax,%rax,1)

000000000000a860 <MPI_Comm_split@plt>:
    a860:	f3 0f 1e fa          	endbr64 
    a864:	f2 ff 25 05 26 01 00 	bnd jmp *0x12605(%rip)        # 1ce70 <MPI_Comm_split@Base>
    a86b:	0f 1f 44 00 00       	nopl   0x0(%rax,%rax,1)

000000000000a870 <_ZNSt14basic_ifstreamIcSt11char_traitsIcEEC1ERKNSt7__cxx1112basic_stringIcS1_SaIcEEESt13_Ios_Openmode@plt>:
    a870:	f3 0f 1e fa          	endbr64 
    a874:	f2 ff 25 fd 25 01 00 	bnd jmp *0x125fd(%rip)        # 1ce78 <_ZNSt14basic_ifstreamIcSt11char_traitsIcEEC1ERKNSt7__cxx1112basic_stringIcS1_SaIcEEESt13_Ios_Openmode@GLIBCXX_3.4.21>
    a87b:	0f 1f 44 00 00       	nopl   0x0(%rax,%rax,1)

000000000000a880 <MPI_Type_create_subarray@plt>:
    a880:	f3 0f 1e fa          	endbr64 
    a884:	f2 ff 25 f5 25 01 00 	bnd jmp *0x125f5(%rip)        # 1ce80 <MPI_Type_create_subarray@Base>
    a88b:	0f 1f 44 00 00       	nopl   0x0(%rax,%rax,1)

000000000000a890 <MPI_Comm_spawn_multiple@plt>:
    a890:	f3 0f 1e fa          	endbr64 
    a894:	f2 ff 25 ed 25 01 00 	bnd jmp *0x125ed(%rip)        # 1ce88 <MPI_Comm_spawn_multiple@Base>
    a89b:	0f 1f 44 00 00       	nopl   0x0(%rax,%rax,1)

000000000000a8a0 <realloc@plt>:
    a8a0:	f3 0f 1e fa          	endbr64 
    a8a4:	f2 ff 25 e5 25 01 00 	bnd jmp *0x125e5(%rip)        # 1ce90 <realloc@GLIBC_2.2.5>
    a8ab:	0f 1f 44 00 00       	nopl   0x0(%rax,%rax,1)

000000000000a8b0 <MPI_Test@plt>:
    a8b0:	f3 0f 1e fa          	endbr64 
    a8b4:	f2 ff 25 dd 25 01 00 	bnd jmp *0x125dd(%rip)        # 1ce98 <MPI_Test@Base>
    a8bb:	0f 1f 44 00 00       	nopl   0x0(%rax,%rax,1)

000000000000a8c0 <MPI_Info_get_valuelen@plt>:
    a8c0:	f3 0f 1e fa          	endbr64 
    a8c4:	f2 ff 25 d5 25 01 00 	bnd jmp *0x125d5(%rip)        # 1cea0 <MPI_Info_get_valuelen@Base>
    a8cb:	0f 1f 44 00 00       	nopl   0x0(%rax,%rax,1)

000000000000a8d0 <MPI_Win_test@plt>:
    a8d0:	f3 0f 1e fa          	endbr64 
    a8d4:	f2 ff 25 cd 25 01 00 	bnd jmp *0x125cd(%rip)        # 1cea8 <MPI_Win_test@Base>
    a8db:	0f 1f 44 00 00       	nopl   0x0(%rax,%rax,1)

000000000000a8e0 <MPI_Type_vector@plt>:
    a8e0:	f3 0f 1e fa          	endbr64 
    a8e4:	f2 ff 25 c5 25 01 00 	bnd jmp *0x125c5(%rip)        # 1ceb0 <MPI_Type_vector@Base>
    a8eb:	0f 1f 44 00 00       	nopl   0x0(%rax,%rax,1)

000000000000a8f0 <MPI_Start@plt>:
    a8f0:	f3 0f 1e fa          	endbr64 
    a8f4:	f2 ff 25 bd 25 01 00 	bnd jmp *0x125bd(%rip)        # 1ceb8 <MPI_Start@Base>
    a8fb:	0f 1f 44 00 00       	nopl   0x0(%rax,%rax,1)

000000000000a900 <MPI_Win_call_errhandler@plt>:
    a900:	f3 0f 1e fa          	endbr64 
    a904:	f2 ff 25 b5 25 01 00 	bnd jmp *0x125b5(%rip)        # 1cec0 <MPI_Win_call_errhandler@Base>
    a90b:	0f 1f 44 00 00       	nopl   0x0(%rax,%rax,1)

000000000000a910 <MPI_Type_indexed@plt>:
    a910:	f3 0f 1e fa          	endbr64 
    a914:	f2 ff 25 ad 25 01 00 	bnd jmp *0x125ad(%rip)        # 1cec8 <MPI_Type_indexed@Base>
    a91b:	0f 1f 44 00 00       	nopl   0x0(%rax,%rax,1)

000000000000a920 <MPI_Comm_set_name@plt>:
    a920:	f3 0f 1e fa          	endbr64 
    a924:	f2 ff 25 a5 25 01 00 	bnd jmp *0x125a5(%rip)        # 1ced0 <MPI_Comm_set_name@Base>
    a92b:	0f 1f 44 00 00       	nopl   0x0(%rax,%rax,1)

000000000000a930 <MPI_Win_fence@plt>:
    a930:	f3 0f 1e fa          	endbr64 
    a934:	f2 ff 25 9d 25 01 00 	bnd jmp *0x1259d(%rip)        # 1ced8 <MPI_Win_fence@Base>
    a93b:	0f 1f 44 00 00       	nopl   0x0(%rax,%rax,1)

000000000000a940 <MPI_Win_complete@plt>:
    a940:	f3 0f 1e fa          	endbr64 
    a944:	f2 ff 25 95 25 01 00 	bnd jmp *0x12595(%rip)        # 1cee0 <MPI_Win_complete@Base>
    a94b:	0f 1f 44 00 00       	nopl   0x0(%rax,%rax,1)

000000000000a950 <_ZNSolsEi@plt>:
    a950:	f3 0f 1e fa          	endbr64 
    a954:	f2 ff 25 8d 25 01 00 	bnd jmp *0x1258d(%rip)        # 1cee8 <_ZNSolsEi@GLIBCXX_3.4>
    a95b:	0f 1f 44 00 00       	nopl   0x0(%rax,%rax,1)

000000000000a960 <MPI_Group_free@plt>:
    a960:	f3 0f 1e fa          	endbr64 
    a964:	f2 ff 25 85 25 01 00 	bnd jmp *0x12585(%rip)        # 1cef0 <MPI_Group_free@Base>
    a96b:	0f 1f 44 00 00       	nopl   0x0(%rax,%rax,1)

000000000000a970 <MPI_Type_create_resized@plt>:
    a970:	f3 0f 1e fa          	endbr64 
    a974:	f2 ff 25 7d 25 01 00 	bnd jmp *0x1257d(%rip)        # 1cef8 <MPI_Type_create_resized@Base>
    a97b:	0f 1f 44 00 00       	nopl   0x0(%rax,%rax,1)

000000000000a980 <_Unwind_Resume@plt>:
    a980:	f3 0f 1e fa          	endbr64 
    a984:	f2 ff 25 75 25 01 00 	bnd jmp *0x12575(%rip)        # 1cf00 <_Unwind_Resume@GCC_3.0>
    a98b:	0f 1f 44 00 00       	nopl   0x0(%rax,%rax,1)

000000000000a990 <_ZNSaIcEC1Ev@plt>:
    a990:	f3 0f 1e fa          	endbr64 
    a994:	f2 ff 25 6d 25 01 00 	bnd jmp *0x1256d(%rip)        # 1cf08 <_ZNSaIcEC1Ev@GLIBCXX_3.4>
    a99b:	0f 1f 44 00 00       	nopl   0x0(%rax,%rax,1)

000000000000a9a0 <MPI_Cart_rank@plt>:
    a9a0:	f3 0f 1e fa          	endbr64 
    a9a4:	f2 ff 25 65 25 01 00 	bnd jmp *0x12565(%rip)        # 1cf10 <MPI_Cart_rank@Base>
    a9ab:	0f 1f 44 00 00       	nopl   0x0(%rax,%rax,1)

000000000000a9b0 <MPI_Comm_accept@plt>:
    a9b0:	f3 0f 1e fa          	endbr64 
    a9b4:	f2 ff 25 5d 25 01 00 	bnd jmp *0x1255d(%rip)        # 1cf18 <MPI_Comm_accept@Base>
    a9bb:	0f 1f 44 00 00       	nopl   0x0(%rax,%rax,1)

000000000000a9c0 <MPI_Win_set_attr@plt>:
    a9c0:	f3 0f 1e fa          	endbr64 
    a9c4:	f2 ff 25 55 25 01 00 	bnd jmp *0x12555(%rip)        # 1cf20 <MPI_Win_set_attr@Base>
    a9cb:	0f 1f 44 00 00       	nopl   0x0(%rax,%rax,1)

000000000000a9d0 <MPI_Win_delete_attr@plt>:
    a9d0:	f3 0f 1e fa          	endbr64 
    a9d4:	f2 ff 25 4d 25 01 00 	bnd jmp *0x1254d(%rip)        # 1cf28 <MPI_Win_delete_attr@Base>
    a9db:	0f 1f 44 00 00       	nopl   0x0(%rax,%rax,1)

000000000000a9e0 <MPI_Type_delete_attr@plt>:
    a9e0:	f3 0f 1e fa          	endbr64 
    a9e4:	f2 ff 25 45 25 01 00 	bnd jmp *0x12545(%rip)        # 1cf30 <MPI_Type_delete_attr@Base>
    a9eb:	0f 1f 44 00 00       	nopl   0x0(%rax,%rax,1)

000000000000a9f0 <MPI_Gatherv@plt>:
    a9f0:	f3 0f 1e fa          	endbr64 
    a9f4:	f2 ff 25 3d 25 01 00 	bnd jmp *0x1253d(%rip)        # 1cf38 <MPI_Gatherv@Base>
    a9fb:	0f 1f 44 00 00       	nopl   0x0(%rax,%rax,1)

000000000000aa00 <MPI_Group_rank@plt>:
    aa00:	f3 0f 1e fa          	endbr64 
    aa04:	f2 ff 25 35 25 01 00 	bnd jmp *0x12535(%rip)        # 1cf40 <MPI_Group_rank@Base>
    aa0b:	0f 1f 44 00 00       	nopl   0x0(%rax,%rax,1)

000000000000aa10 <MPI_Intercomm_merge@plt>:
    aa10:	f3 0f 1e fa          	endbr64 
    aa14:	f2 ff 25 2d 25 01 00 	bnd jmp *0x1252d(%rip)        # 1cf48 <MPI_Intercomm_merge@Base>
    aa1b:	0f 1f 44 00 00       	nopl   0x0(%rax,%rax,1)

000000000000aa20 <MPI_Win_get_errhandler@plt>:
    aa20:	f3 0f 1e fa          	endbr64 
    aa24:	f2 ff 25 25 25 01 00 	bnd jmp *0x12525(%rip)        # 1cf50 <MPI_Win_get_errhandler@Base>
    aa2b:	0f 1f 44 00 00       	nopl   0x0(%rax,%rax,1)

000000000000aa30 <MPI_Accumulate@plt>:
    aa30:	f3 0f 1e fa          	endbr64 
    aa34:	f2 ff 25 1d 25 01 00 	bnd jmp *0x1251d(%rip)        # 1cf58 <MPI_Accumulate@Base>
    aa3b:	0f 1f 44 00 00       	nopl   0x0(%rax,%rax,1)

000000000000aa40 <_ZNSolsEd@plt>:
    aa40:	f3 0f 1e fa          	endbr64 
    aa44:	f2 ff 25 15 25 01 00 	bnd jmp *0x12515(%rip)        # 1cf60 <_ZNSolsEd@GLIBCXX_3.4>
    aa4b:	0f 1f 44 00 00       	nopl   0x0(%rax,%rax,1)

000000000000aa50 <MPI_Type_set_attr@plt>:
    aa50:	f3 0f 1e fa          	endbr64 
    aa54:	f2 ff 25 0d 25 01 00 	bnd jmp *0x1250d(%rip)        # 1cf68 <MPI_Type_set_attr@Base>
    aa5b:	0f 1f 44 00 00       	nopl   0x0(%rax,%rax,1)

000000000000aa60 <MPI_Status_set_cancelled@plt>:
    aa60:	f3 0f 1e fa          	endbr64 
    aa64:	f2 ff 25 05 25 01 00 	bnd jmp *0x12505(%rip)        # 1cf70 <MPI_Status_set_cancelled@Base>
    aa6b:	0f 1f 44 00 00       	nopl   0x0(%rax,%rax,1)

000000000000aa70 <MPI_Graph_neighbors_count@plt>:
    aa70:	f3 0f 1e fa          	endbr64 
    aa74:	f2 ff 25 fd 24 01 00 	bnd jmp *0x124fd(%rip)        # 1cf78 <MPI_Graph_neighbors_count@Base>
    aa7b:	0f 1f 44 00 00       	nopl   0x0(%rax,%rax,1)

000000000000aa80 <MPI_Info_free@plt>:
    aa80:	f3 0f 1e fa          	endbr64 
    aa84:	f2 ff 25 f5 24 01 00 	bnd jmp *0x124f5(%rip)        # 1cf80 <MPI_Info_free@Base>
    aa8b:	0f 1f 44 00 00       	nopl   0x0(%rax,%rax,1)

000000000000aa90 <MPI_Pack_external_size@plt>:
    aa90:	f3 0f 1e fa          	endbr64 
    aa94:	f2 ff 25 ed 24 01 00 	bnd jmp *0x124ed(%rip)        # 1cf88 <MPI_Pack_external_size@Base>
    aa9b:	0f 1f 44 00 00       	nopl   0x0(%rax,%rax,1)

000000000000aaa0 <MPI_Type_set_name@plt>:
    aaa0:	f3 0f 1e fa          	endbr64 
    aaa4:	f2 ff 25 e5 24 01 00 	bnd jmp *0x124e5(%rip)        # 1cf90 <MPI_Type_set_name@Base>
    aaab:	0f 1f 44 00 00       	nopl   0x0(%rax,%rax,1)

000000000000aab0 <_ZNSt14basic_ofstreamIcSt11char_traitsIcEEC1ERKNSt7__cxx1112basic_stringIcS1_SaIcEEESt13_Ios_Openmode@plt>:
    aab0:	f3 0f 1e fa          	endbr64 
    aab4:	f2 ff 25 dd 24 01 00 	bnd jmp *0x124dd(%rip)        # 1cf98 <_ZNSt14basic_ofstreamIcSt11char_traitsIcEEC1ERKNSt7__cxx1112basic_stringIcS1_SaIcEEESt13_Ios_Openmode@GLIBCXX_3.4.21>
    aabb:	0f 1f 44 00 00       	nopl   0x0(%rax,%rax,1)

000000000000aac0 <_ZNSt7__cxx1112basic_stringIcSt11char_traitsIcESaIcEE6appendERKS4_@plt>:
    aac0:	f3 0f 1e fa          	endbr64 
    aac4:	f2 ff 25 d5 24 01 00 	bnd jmp *0x124d5(%rip)        # 1cfa0 <_ZNSt7__cxx1112basic_stringIcSt11char_traitsIcESaIcEE6appendERKS4_@GLIBCXX_3.4.21>
    aacb:	0f 1f 44 00 00       	nopl   0x0(%rax,%rax,1)

000000000000aad0 <MPI_Graph_create@plt>:
    aad0:	f3 0f 1e fa          	endbr64 
    aad4:	f2 ff 25 cd 24 01 00 	bnd jmp *0x124cd(%rip)        # 1cfa8 <MPI_Graph_create@Base>
    aadb:	0f 1f 44 00 00       	nopl   0x0(%rax,%rax,1)

000000000000aae0 <MPI_Comm_test_inter@plt>:
    aae0:	f3 0f 1e fa          	endbr64 
    aae4:	f2 ff 25 c5 24 01 00 	bnd jmp *0x124c5(%rip)        # 1cfb0 <MPI_Comm_test_inter@Base>
    aaeb:	0f 1f 44 00 00       	nopl   0x0(%rax,%rax,1)

000000000000aaf0 <_ZNSt7__cxx1112basic_stringIcSt11char_traitsIcESaIcEEixEm@plt>:
    aaf0:	f3 0f 1e fa          	endbr64 
    aaf4:	f2 ff 25 bd 24 01 00 	bnd jmp *0x124bd(%rip)        # 1cfb8 <_ZNSt7__cxx1112basic_stringIcSt11char_traitsIcESaIcEEixEm@GLIBCXX_3.4.21>
    aafb:	0f 1f 44 00 00       	nopl   0x0(%rax,%rax,1)

Disassembly of section .text:

000000000000ab00 <_start>:
    ab00:	f3 0f 1e fa          	endbr64 
    ab04:	31 ed                	xor    %ebp,%ebp
    ab06:	49 89 d1             	mov    %rdx,%r9
    ab09:	5e                   	pop    %rsi
    ab0a:	48 89 e2             	mov    %rsp,%rdx
    ab0d:	48 83 e4 f0          	and    $0xfffffffffffffff0,%rsp
    ab11:	50                   	push   %rax
    ab12:	54                   	push   %rsp
    ab13:	45 31 c0             	xor    %r8d,%r8d
    ab16:	31 c9                	xor    %ecx,%ecx
    ab18:	48 8d 3d ca 00 00 00 	lea    0xca(%rip),%rdi        # abe9 <main>
    ab1f:	ff 15 b3 24 01 00    	call   *0x124b3(%rip)        # 1cfd8 <__libc_start_main@GLIBC_2.34>
    ab25:	f4                   	hlt    
    ab26:	66 2e 0f 1f 84 00 00 	cs nopw 0x0(%rax,%rax,1)
    ab2d:	00 00 00 

000000000000ab30 <deregister_tm_clones>:
    ab30:	48 8d 3d e1 24 01 00 	lea    0x124e1(%rip),%rdi        # 1d018 <__TMC_END__>
    ab37:	48 8d 05 da 24 01 00 	lea    0x124da(%rip),%rax        # 1d018 <__TMC_END__>
    ab3e:	48 39 f8             	cmp    %rdi,%rax
    ab41:	74 15                	je     ab58 <deregister_tm_clones+0x28>
    ab43:	48 8b 05 96 24 01 00 	mov    0x12496(%rip),%rax        # 1cfe0 <_ITM_deregisterTMCloneTable@Base>
    ab4a:	48 85 c0             	test   %rax,%rax
    ab4d:	74 09                	je     ab58 <deregister_tm_clones+0x28>
    ab4f:	ff e0                	jmp    *%rax
    ab51:	0f 1f 80 00 00 00 00 	nopl   0x0(%rax)
    ab58:	c3                   	ret    
    ab59:	0f 1f 80 00 00 00 00 	nopl   0x0(%rax)

000000000000ab60 <register_tm_clones>:
    ab60:	48 8d 3d b1 24 01 00 	lea    0x124b1(%rip),%rdi        # 1d018 <__TMC_END__>
    ab67:	48 8d 35 aa 24 01 00 	lea    0x124aa(%rip),%rsi        # 1d018 <__TMC_END__>
    ab6e:	48 29 fe             	sub    %rdi,%rsi
    ab71:	48 89 f0             	mov    %rsi,%rax
    ab74:	48 c1 ee 3f          	shr    $0x3f,%rsi
    ab78:	48 c1 f8 03          	sar    $0x3,%rax
    ab7c:	48 01 c6             	add    %rax,%rsi
    ab7f:	48 d1 fe             	sar    %rsi
    ab82:	74 14                	je     ab98 <register_tm_clones+0x38>
    ab84:	48 8b 05 65 24 01 00 	mov    0x12465(%rip),%rax        # 1cff0 <_ITM_registerTMCloneTable@Base>
    ab8b:	48 85 c0             	test   %rax,%rax
    ab8e:	74 08                	je     ab98 <register_tm_clones+0x38>
    ab90:	ff e0                	jmp    *%rax
    ab92:	66 0f 1f 44 00 00    	nopw   0x0(%rax,%rax,1)
    ab98:	c3                   	ret    
    ab99:	0f 1f 80 00 00 00 00 	nopl   0x0(%rax)

000000000000aba0 <__do_global_dtors_aux>:
    aba0:	f3 0f 1e fa          	endbr64 
    aba4:	80 3d 7d 36 01 00 00 	cmpb   $0x0,0x1367d(%rip)        # 1e228 <completed.0>
    abab:	75 2b                	jne    abd8 <__do_global_dtors_aux+0x38>
    abad:	55                   	push   %rbp
    abae:	48 83 3d 12 24 01 00 	cmpq   $0x0,0x12412(%rip)        # 1cfc8 <__cxa_finalize@GLIBC_2.2.5>
    abb5:	00 
    abb6:	48 89 e5             	mov    %rsp,%rbp
    abb9:	74 0c                	je     abc7 <__do_global_dtors_aux+0x27>
    abbb:	48 8b 3d 46 24 01 00 	mov    0x12446(%rip),%rdi        # 1d008 <__dso_handle>
    abc2:	e8 c9 f1 ff ff       	call   9d90 <__cxa_finalize@plt>
    abc7:	e8 64 ff ff ff       	call   ab30 <deregister_tm_clones>
    abcc:	c6 05 55 36 01 00 01 	movb   $0x1,0x13655(%rip)        # 1e228 <completed.0>
    abd3:	5d                   	pop    %rbp
    abd4:	c3                   	ret    
    abd5:	0f 1f 00             	nopl   (%rax)
    abd8:	c3                   	ret    
    abd9:	0f 1f 80 00 00 00 00 	nopl   0x0(%rax)

000000000000abe0 <frame_dummy>:
    abe0:	f3 0f 1e fa          	endbr64 
    abe4:	e9 77 ff ff ff       	jmp    ab60 <register_tm_clones>

000000000000abe9 <main>:
    abe9:	f3 0f 1e fa          	endbr64 
    abed:	55                   	push   %rbp
    abee:	48 89 e5             	mov    %rsp,%rbp
    abf1:	41 55                	push   %r13
    abf3:	41 54                	push   %r12
    abf5:	53                   	push   %rbx
    abf6:	48 81 ec 88 01 00 00 	sub    $0x188,%rsp
    abfd:	89 bd 6c fe ff ff    	mov    %edi,-0x194(%rbp)
    ac03:	48 89 b5 60 fe ff ff 	mov    %rsi,-0x1a0(%rbp)
    ac0a:	64 48 8b 04 25 28 00 	mov    %fs:0x28,%rax
    ac11:	00 00 
    ac13:	48 89 45 d8          	mov    %rax,-0x28(%rbp)
    ac17:	31 c0                	xor    %eax,%eax
    ac19:	c7 85 90 fe ff ff 03 	movl   $0x3,-0x170(%rbp)
    ac20:	00 00 00 
    ac23:	c7 85 94 fe ff ff 03 	movl   $0x3,-0x16c(%rbp)
    ac2a:	00 00 00 
    ac2d:	48 8d 95 60 fe ff ff 	lea    -0x1a0(%rbp),%rdx
    ac34:	48 8d 85 6c fe ff ff 	lea    -0x194(%rbp),%rax
    ac3b:	48 89 d6             	mov    %rdx,%rsi
    ac3e:	48 89 c7             	mov    %rax,%rdi
    ac41:	e8 ba fa ff ff       	call   a700 <MPI_Init@plt>
    ac46:	48 8d 85 c0 fe ff ff 	lea    -0x140(%rbp),%rax
    ac4d:	ba 03 00 00 00       	mov    $0x3,%edx
    ac52:	be 03 00 00 00       	mov    $0x3,%esi
    ac57:	48 89 c7             	mov    %rax,%rdi
    ac5a:	e8 54 78 00 00       	call   124b3 <_Z18setupCommunicatorsP10topology_tii>
    ac5f:	48 8d 85 c0 fe ff ff 	lea    -0x140(%rbp),%rax
    ac66:	48 89 85 b0 fe ff ff 	mov    %rax,-0x150(%rbp)
    ac6d:	48 8d 85 c0 fe ff ff 	lea    -0x140(%rbp),%rax
    ac74:	48 83 c0 04          	add    $0x4,%rax
    ac78:	48 89 85 b8 fe ff ff 	mov    %rax,-0x148(%rbp)
    ac7f:	48 8d 85 a8 fe ff ff 	lea    -0x158(%rbp),%rax
    ac86:	48 89 c7             	mov    %rax,%rdi
    ac89:	e8 02 fd ff ff       	call   a990 <_ZNSaIcEC1Ev@plt>
    ac8e:	48 8d 95 a8 fe ff ff 	lea    -0x158(%rbp),%rdx
    ac95:	48 8d 85 f0 fe ff ff 	lea    -0x110(%rbp),%rax
    ac9c:	48 8d 0d a5 b5 00 00 	lea    0xb5a5(%rip),%rcx        # 16248 <_ZN3MPIL11LOCK_SHAREDE+0x8>
    aca3:	48 89 ce             	mov    %rcx,%rsi
    aca6:	48 89 c7             	mov    %rax,%rdi
    aca9:	e8 b2 f9 ff ff       	call   a660 <_ZNSt7__cxx1112basic_stringIcSt11char_traitsIcESaIcEEC1EPKcRKS3_@plt>
    acae:	48 8d 85 a8 fe ff ff 	lea    -0x158(%rbp),%rax
    acb5:	48 89 c7             	mov    %rax,%rdi
    acb8:	e8 a3 f7 ff ff       	call   a460 <_ZNSaIcED1Ev@plt>
    acbd:	48 8d 85 a8 fe ff ff 	lea    -0x158(%rbp),%rax
    acc4:	48 89 c7             	mov    %rax,%rdi
    acc7:	e8 c4 fc ff ff       	call   a990 <_ZNSaIcEC1Ev@plt>
    accc:	48 8d 95 a8 fe ff ff 	lea    -0x158(%rbp),%rdx
    acd3:	48 8d 85 10 ff ff ff 	lea    -0xf0(%rbp),%rax
    acda:	48 8d 0d bf b5 00 00 	lea    0xb5bf(%rip),%rcx        # 162a0 <_ZN3MPIL11LOCK_SHAREDE+0x60>
    ace1:	48 89 ce             	mov    %rcx,%rsi
    ace4:	48 89 c7             	mov    %rax,%rdi
    ace7:	e8 74 f9 ff ff       	call   a660 <_ZNSt7__cxx1112basic_stringIcSt11char_traitsIcESaIcEEC1EPKcRKS3_@plt>
    acec:	48 8d 85 a8 fe ff ff 	lea    -0x158(%rbp),%rax
    acf3:	48 89 c7             	mov    %rax,%rdi
    acf6:	e8 65 f7 ff ff       	call   a460 <_ZNSaIcED1Ev@plt>
    acfb:	48 8b 85 b8 fe ff ff 	mov    -0x148(%rbp),%rax
    ad02:	8b 10                	mov    (%rax),%edx
    ad04:	48 8d 45 b0          	lea    -0x50(%rbp),%rax
    ad08:	89 d6                	mov    %edx,%esi
    ad0a:	48 89 c7             	mov    %rax,%rdi
    ad0d:	e8 3c 09 00 00       	call   b64e <_ZNSt7__cxx119to_stringEi>
    ad12:	48 8b 85 b0 fe ff ff 	mov    -0x150(%rbp),%rax
    ad19:	8b 10                	mov    (%rax),%edx
    ad1b:	48 8d 85 70 ff ff ff 	lea    -0x90(%rbp),%rax
    ad22:	89 d6                	mov    %edx,%esi
    ad24:	48 89 c7             	mov    %rax,%rdi
    ad27:	e8 22 09 00 00       	call   b64e <_ZNSt7__cxx119to_stringEi>
    ad2c:	48 8d 45 90          	lea    -0x70(%rbp),%rax
    ad30:	48 8d 95 70 ff ff ff 	lea    -0x90(%rbp),%rdx
    ad37:	48 8d 0d ba b5 00 00 	lea    0xb5ba(%rip),%rcx        # 162f8 <_ZN3MPIL11LOCK_SHAREDE+0xb8>
    ad3e:	48 89 ce             	mov    %rcx,%rsi
    ad41:	48 89 c7             	mov    %rax,%rdi
    ad44:	e8 3a 5b 00 00       	call   10883 <_ZStplIcSt11char_traitsIcESaIcEENSt7__cxx1112basic_stringIT_T0_T1_EEPKS5_OS8_>
    ad49:	48 8d 85 30 ff ff ff 	lea    -0xd0(%rbp),%rax
    ad50:	48 8d 55 b0          	lea    -0x50(%rbp),%rdx
    ad54:	48 8d 4d 90          	lea    -0x70(%rbp),%rcx
    ad58:	48 89 ce             	mov    %rcx,%rsi
    ad5b:	48 89 c7             	mov    %rax,%rdi
    ad5e:	e8 a7 59 00 00       	call   1070a <_ZStplIcSt11char_traitsIcESaIcEENSt7__cxx1112basic_stringIT_T0_T1_EEOS8_S9_>
    ad63:	48 8d 45 90          	lea    -0x70(%rbp),%rax
    ad67:	48 89 c7             	mov    %rax,%rdi
    ad6a:	e8 91 f3 ff ff       	call   a100 <_ZNSt7__cxx1112basic_stringIcSt11char_traitsIcESaIcEED1Ev@plt>
    ad6f:	48 8d 85 70 ff ff ff 	lea    -0x90(%rbp),%rax
    ad76:	48 89 c7             	mov    %rax,%rdi
    ad79:	e8 82 f3 ff ff       	call   a100 <_ZNSt7__cxx1112basic_stringIcSt11char_traitsIcESaIcEED1Ev@plt>
    ad7e:	48 8d 45 b0          	lea    -0x50(%rbp),%rax
    ad82:	48 89 c7             	mov    %rax,%rdi
    ad85:	e8 76 f3 ff ff       	call   a100 <_ZNSt7__cxx1112basic_stringIcSt11char_traitsIcESaIcEED1Ev@plt>
    ad8a:	48 8b 85 b8 fe ff ff 	mov    -0x148(%rbp),%rax
    ad91:	8b 10                	mov    (%rax),%edx
    ad93:	48 8d 45 b0          	lea    -0x50(%rbp),%rax
    ad97:	89 d6                	mov    %edx,%esi
    ad99:	48 89 c7             	mov    %rax,%rdi
    ad9c:	e8 ad 08 00 00       	call   b64e <_ZNSt7__cxx119to_stringEi>
    ada1:	48 8b 85 b0 fe ff ff 	mov    -0x150(%rbp),%rax
    ada8:	8b 10                	mov    (%rax),%edx
    adaa:	48 8d 85 70 ff ff ff 	lea    -0x90(%rbp),%rax
    adb1:	89 d6                	mov    %edx,%esi
    adb3:	48 89 c7             	mov    %rax,%rdi
    adb6:	e8 93 08 00 00       	call   b64e <_ZNSt7__cxx119to_stringEi>
    adbb:	48 8d 45 90          	lea    -0x70(%rbp),%rax
    adbf:	48 8d 95 70 ff ff ff 	lea    -0x90(%rbp),%rdx
    adc6:	48 8d 0d 83 b5 00 00 	lea    0xb583(%rip),%rcx        # 16350 <_ZN3MPIL11LOCK_SHAREDE+0x110>
    adcd:	48 89 ce             	mov    %rcx,%rsi
    add0:	48 89 c7             	mov    %rax,%rdi
    add3:	e8 ab 5a 00 00       	call   10883 <_ZStplIcSt11char_traitsIcESaIcEENSt7__cxx1112basic_stringIT_T0_T1_EEPKS5_OS8_>
    add8:	48 8d 85 50 ff ff ff 	lea    -0xb0(%rbp),%rax
    addf:	48 8d 55 b0          	lea    -0x50(%rbp),%rdx
    ade3:	48 8d 4d 90          	lea    -0x70(%rbp),%rcx
    ade7:	48 89 ce             	mov    %rcx,%rsi
    adea:	48 89 c7             	mov    %rax,%rdi
    aded:	e8 18 59 00 00       	call   1070a <_ZStplIcSt11char_traitsIcESaIcEENSt7__cxx1112basic_stringIT_T0_T1_EEOS8_S9_>
    adf2:	48 8d 45 90          	lea    -0x70(%rbp),%rax
    adf6:	48 89 c7             	mov    %rax,%rdi
    adf9:	e8 02 f3 ff ff       	call   a100 <_ZNSt7__cxx1112basic_stringIcSt11char_traitsIcESaIcEED1Ev@plt>
    adfe:	48 8d 85 70 ff ff ff 	lea    -0x90(%rbp),%rax
    ae05:	48 89 c7             	mov    %rax,%rdi
    ae08:	e8 f3 f2 ff ff       	call   a100 <_ZNSt7__cxx1112basic_stringIcSt11char_traitsIcESaIcEED1Ev@plt>
    ae0d:	48 8d 45 b0          	lea    -0x50(%rbp),%rax
    ae11:	48 89 c7             	mov    %rax,%rdi
    ae14:	e8 e7 f2 ff ff       	call   a100 <_ZNSt7__cxx1112basic_stringIcSt11char_traitsIcESaIcEED1Ev@plt>
    ae19:	48 8d 85 a8 fe ff ff 	lea    -0x158(%rbp),%rax
    ae20:	48 89 c7             	mov    %rax,%rdi
    ae23:	e8 68 fb ff ff       	call   a990 <_ZNSaIcEC1Ev@plt>
    ae28:	48 8d 95 a8 fe ff ff 	lea    -0x158(%rbp),%rdx
    ae2f:	48 8d 85 70 ff ff ff 	lea    -0x90(%rbp),%rax
    ae36:	48 8d 0d 6b b5 00 00 	lea    0xb56b(%rip),%rcx        # 163a8 <_ZN3MPIL11LOCK_SHAREDE+0x168>
    ae3d:	48 89 ce             	mov    %rcx,%rsi
    ae40:	48 89 c7             	mov    %rax,%rdi
    ae43:	e8 18 f8 ff ff       	call   a660 <_ZNSt7__cxx1112basic_stringIcSt11char_traitsIcESaIcEEC1EPKcRKS3_@plt>
    ae48:	48 8d 85 a8 fe ff ff 	lea    -0x158(%rbp),%rax
    ae4f:	48 89 c7             	mov    %rax,%rdi
    ae52:	e8 09 f6 ff ff       	call   a460 <_ZNSaIcED1Ev@plt>
    ae57:	48 8d 85 a8 fe ff ff 	lea    -0x158(%rbp),%rax
    ae5e:	48 89 c7             	mov    %rax,%rdi
    ae61:	e8 2a fb ff ff       	call   a990 <_ZNSaIcEC1Ev@plt>
    ae66:	48 8d 95 a8 fe ff ff 	lea    -0x158(%rbp),%rdx
    ae6d:	48 8d 45 90          	lea    -0x70(%rbp),%rax
    ae71:	48 8d 0d 88 b5 00 00 	lea    0xb588(%rip),%rcx        # 16400 <_ZN3MPIL11LOCK_SHAREDE+0x1c0>
    ae78:	48 89 ce             	mov    %rcx,%rsi
    ae7b:	48 89 c7             	mov    %rax,%rdi
    ae7e:	e8 dd f7 ff ff       	call   a660 <_ZNSt7__cxx1112basic_stringIcSt11char_traitsIcESaIcEEC1EPKcRKS3_@plt>
    ae83:	48 8d 85 a8 fe ff ff 	lea    -0x158(%rbp),%rax
    ae8a:	48 89 c7             	mov    %rax,%rdi
    ae8d:	e8 ce f5 ff ff       	call   a460 <_ZNSaIcED1Ev@plt>
    ae92:	48 c7 85 98 fe ff ff 	movq   $0x0,-0x168(%rbp)
    ae99:	00 00 00 00 
    ae9d:	c7 85 7c fe ff ff ff 	movl   $0xffffffff,-0x184(%rbp)
    aea4:	ff ff ff 
    aea7:	c7 85 80 fe ff ff ff 	movl   $0xffffffff,-0x180(%rbp)
    aeae:	ff ff ff 
    aeb1:	c7 85 84 fe ff ff ff 	movl   $0xffffffff,-0x17c(%rbp)
    aeb8:	ff ff ff 
    aebb:	c7 85 88 fe ff ff ff 	movl   $0xffffffff,-0x178(%rbp)
    aec2:	ff ff ff 
    aec5:	48 8b 85 d0 fe ff ff 	mov    -0x130(%rbp),%rax
    aecc:	48 8d 15 4d 2f 01 00 	lea    0x12f4d(%rip),%rdx        # 1de20 <ompi_mpi_comm_null@@Base>
    aed3:	48 39 d0             	cmp    %rdx,%rax
    aed6:	74 19                	je     aef1 <main+0x308>
    aed8:	48 8b 85 d0 fe ff ff 	mov    -0x130(%rbp),%rax
    aedf:	48 8d 95 7c fe ff ff 	lea    -0x184(%rbp),%rdx
    aee6:	48 89 d6             	mov    %rdx,%rsi
    aee9:	48 89 c7             	mov    %rax,%rdi
    aeec:	e8 ef f5 ff ff       	call   a4e0 <MPI_Comm_size@plt>
    aef1:	48 8b 85 d8 fe ff ff 	mov    -0x128(%rbp),%rax
    aef8:	48 8d 15 21 2f 01 00 	lea    0x12f21(%rip),%rdx        # 1de20 <ompi_mpi_comm_null@@Base>
    aeff:	48 39 d0             	cmp    %rdx,%rax
    af02:	74 19                	je     af1d <main+0x334>
    af04:	48 8b 85 d8 fe ff ff 	mov    -0x128(%rbp),%rax
    af0b:	48 8d 95 80 fe ff ff 	lea    -0x180(%rbp),%rdx
    af12:	48 89 d6             	mov    %rdx,%rsi
    af15:	48 89 c7             	mov    %rax,%rdi
    af18:	e8 c3 f5 ff ff       	call   a4e0 <MPI_Comm_size@plt>
    af1d:	48 8b 85 e0 fe ff ff 	mov    -0x120(%rbp),%rax
    af24:	48 8d 15 f5 2e 01 00 	lea    0x12ef5(%rip),%rdx        # 1de20 <ompi_mpi_comm_null@@Base>
    af2b:	48 39 d0             	cmp    %rdx,%rax
    af2e:	74 19                	je     af49 <main+0x360>
    af30:	48 8b 85 e0 fe ff ff 	mov    -0x120(%rbp),%rax
    af37:	48 8d 95 84 fe ff ff 	lea    -0x17c(%rbp),%rdx
    af3e:	48 89 d6             	mov    %rdx,%rsi
    af41:	48 89 c7             	mov    %rax,%rdi
    af44:	e8 97 f5 ff ff       	call   a4e0 <MPI_Comm_size@plt>
    af49:	48 8b 85 e8 fe ff ff 	mov    -0x118(%rbp),%rax
    af50:	48 8d 15 c9 2e 01 00 	lea    0x12ec9(%rip),%rdx        # 1de20 <ompi_mpi_comm_null@@Base>
    af57:	48 39 d0             	cmp    %rdx,%rax
    af5a:	74 19                	je     af75 <main+0x38c>
    af5c:	48 8b 85 e8 fe ff ff 	mov    -0x118(%rbp),%rax
    af63:	48 8d 95 88 fe ff ff 	lea    -0x178(%rbp),%rdx
    af6a:	48 89 d6             	mov    %rdx,%rsi
    af6d:	48 89 c7             	mov    %rax,%rdi
    af70:	e8 6b f5 ff ff       	call   a4e0 <MPI_Comm_size@plt>
    af75:	8b 9d 88 fe ff ff    	mov    -0x178(%rbp),%ebx
    af7b:	4c 8b 9d e8 fe ff ff 	mov    -0x118(%rbp),%r11
    af82:	44 8b 95 84 fe ff ff 	mov    -0x17c(%rbp),%r10d
    af89:	4c 8b 8d e0 fe ff ff 	mov    -0x120(%rbp),%r9
    af90:	44 8b 85 80 fe ff ff 	mov    -0x180(%rbp),%r8d
    af97:	48 8b bd d8 fe ff ff 	mov    -0x128(%rbp),%rdi
    af9e:	8b b5 7c fe ff ff    	mov    -0x184(%rbp),%esi
    afa4:	4c 8b ad d0 fe ff ff 	mov    -0x130(%rbp),%r13
    afab:	44 8b a5 c4 fe ff ff 	mov    -0x13c(%rbp),%r12d
    afb2:	8b 8d c0 fe ff ff    	mov    -0x140(%rbp),%ecx
    afb8:	8b 95 cc fe ff ff    	mov    -0x134(%rbp),%edx
    afbe:	8b 85 c8 fe ff ff    	mov    -0x138(%rbp),%eax
    afc4:	48 83 ec 08          	sub    $0x8,%rsp
    afc8:	53                   	push   %rbx
    afc9:	41 53                	push   %r11
    afcb:	41 52                	push   %r10
    afcd:	41 51                	push   %r9
    afcf:	41 50                	push   %r8
    afd1:	57                   	push   %rdi
    afd2:	56                   	push   %rsi
    afd3:	4d 89 e9             	mov    %r13,%r9
    afd6:	45 89 e0             	mov    %r12d,%r8d
    afd9:	89 c6                	mov    %eax,%esi
    afdb:	48 8d 05 76 b4 00 00 	lea    0xb476(%rip),%rax        # 16458 <_ZN3MPIL11LOCK_SHAREDE+0x218>
    afe2:	48 89 c7             	mov    %rax,%rdi
    afe5:	b8 00 00 00 00       	mov    $0x0,%eax
    afea:	e8 d1 ed ff ff       	call   9dc0 <printf@plt>
    afef:	48 83 c4 40          	add    $0x40,%rsp
    aff3:	48 8b 85 98 fe ff ff 	mov    -0x168(%rbp),%rax
    affa:	48 85 c0             	test   %rax,%rax
    affd:	74 23                	je     b022 <main+0x439>
    afff:	48 8b 85 98 fe ff ff 	mov    -0x168(%rbp),%rax
    b006:	48 8b 00             	mov    (%rax),%rax
    b009:	48 89 c6             	mov    %rax,%rsi
    b00c:	48 8d 05 79 b4 00 00 	lea    0xb479(%rip),%rax        # 1648c <_ZN3MPIL11LOCK_SHAREDE+0x24c>
    b013:	48 89 c7             	mov    %rax,%rdi
    b016:	b8 00 00 00 00       	mov    $0x0,%eax
    b01b:	e8 a0 ed ff ff       	call   9dc0 <printf@plt>
    b020:	eb 0f                	jmp    b031 <main+0x448>
    b022:	48 8d 05 7c b4 00 00 	lea    0xb47c(%rip),%rax        # 164a5 <_ZN3MPIL11LOCK_SHAREDE+0x265>
    b029:	48 89 c7             	mov    %rax,%rdi
    b02c:	e8 8f f7 ff ff       	call   a7c0 <puts@plt>
    b031:	48 8b 85 b0 fe ff ff 	mov    -0x150(%rbp),%rax
    b038:	8b 00                	mov    (%rax),%eax
    b03a:	85 c0                	test   %eax,%eax
    b03c:	0f 85 ae 00 00 00    	jne    b0f0 <main+0x507>
    b042:	48 8b 85 b8 fe ff ff 	mov    -0x148(%rbp),%rax
    b049:	8b 00                	mov    (%rax),%eax
    b04b:	85 c0                	test   %eax,%eax
    b04d:	0f 85 9d 00 00 00    	jne    b0f0 <main+0x507>
    b053:	48 8d 95 f0 fe ff ff 	lea    -0x110(%rbp),%rdx
    b05a:	48 8d 45 b0          	lea    -0x50(%rbp),%rax
    b05e:	48 89 d6             	mov    %rdx,%rsi
    b061:	48 89 c7             	mov    %rax,%rdi
    b064:	e8 57 ef ff ff       	call   9fc0 <_ZNSt7__cxx1112basic_stringIcSt11char_traitsIcESaIcEEC1ERKS4_@plt>
    b069:	48 8d 95 98 fe ff ff 	lea    -0x168(%rbp),%rdx
    b070:	48 8d 45 b0          	lea    -0x50(%rbp),%rax
    b074:	48 89 d6             	mov    %rdx,%rsi
    b077:	48 89 c7             	mov    %rax,%rdi
    b07a:	e8 9d 69 00 00       	call   11a1c <_Z14load_particlesNSt7__cxx1112basic_stringIcSt11char_traitsIcESaIcEEEPP17chunk_particles_t>
    b07f:	48 8d 45 b0          	lea    -0x50(%rbp),%rax
    b083:	48 89 c7             	mov    %rax,%rdi
    b086:	e8 75 f0 ff ff       	call   a100 <_ZNSt7__cxx1112basic_stringIcSt11char_traitsIcESaIcEED1Ev@plt>
    b08b:	48 8b 85 98 fe ff ff 	mov    -0x168(%rbp),%rax
    b092:	48 8d 15 4f 72 00 00 	lea    0x724f(%rip),%rdx        # 122e8 <_Z25gravityUpdateAccelerationP10particle_tS0_>
    b099:	48 89 d6             	mov    %rdx,%rsi
    b09c:	48 89 c7             	mov    %rax,%rdi
    b09f:	e8 f6 5b 00 00       	call   10c9a <_Z29registerUpdateAccelerationFnsP17chunk_particles_tPFvP10particle_tS2_E>
    b0a4:	48 8b 85 98 fe ff ff 	mov    -0x168(%rbp),%rax
    b0ab:	be 09 00 00 00       	mov    $0x9,%esi
    b0b0:	48 89 c7             	mov    %rax,%rdi
    b0b3:	e8 da 7a 00 00       	call   12b92 <_Z7paddingP17chunk_particles_ti>
    b0b8:	48 8b 9d 98 fe ff ff 	mov    -0x168(%rbp),%rbx
    b0bf:	48 8d 95 10 ff ff ff 	lea    -0xf0(%rbp),%rdx
    b0c6:	48 8d 45 b0          	lea    -0x50(%rbp),%rax
    b0ca:	48 89 d6             	mov    %rdx,%rsi
    b0cd:	48 89 c7             	mov    %rax,%rdi
    b0d0:	e8 eb ee ff ff       	call   9fc0 <_ZNSt7__cxx1112basic_stringIcSt11char_traitsIcESaIcEEC1ERKS4_@plt>
    b0d5:	48 8d 45 b0          	lea    -0x50(%rbp),%rax
    b0d9:	48 89 de             	mov    %rbx,%rsi
    b0dc:	48 89 c7             	mov    %rax,%rdi
    b0df:	e8 40 6a 00 00       	call   11b24 <_Z15store_particlesNSt7__cxx1112basic_stringIcSt11char_traitsIcESaIcEEEP17chunk_particles_t>
    b0e4:	48 8d 45 b0          	lea    -0x50(%rbp),%rax
    b0e8:	48 89 c7             	mov    %rax,%rdi
    b0eb:	e8 10 f0 ff ff       	call   a100 <_ZNSt7__cxx1112basic_stringIcSt11char_traitsIcESaIcEED1Ev@plt>
    b0f0:	48 8b 85 98 fe ff ff 	mov    -0x168(%rbp),%rax
    b0f7:	48 85 c0             	test   %rax,%rax
    b0fa:	74 23                	je     b11f <main+0x536>
    b0fc:	48 8b 85 98 fe ff ff 	mov    -0x168(%rbp),%rax
    b103:	48 8b 00             	mov    (%rax),%rax
    b106:	48 89 c6             	mov    %rax,%rsi
    b109:	48 8d 05 ad b3 00 00 	lea    0xb3ad(%rip),%rax        # 164bd <_ZN3MPIL11LOCK_SHAREDE+0x27d>
    b110:	48 89 c7             	mov    %rax,%rdi
    b113:	b8 00 00 00 00       	mov    $0x0,%eax
    b118:	e8 a3 ec ff ff       	call   9dc0 <printf@plt>
    b11d:	eb 0f                	jmp    b12e <main+0x545>
    b11f:	48 8d 05 b0 b3 00 00 	lea    0xb3b0(%rip),%rax        # 164d6 <_ZN3MPIL11LOCK_SHAREDE+0x296>
    b126:	48 89 c7             	mov    %rax,%rdi
    b129:	e8 92 f6 ff ff       	call   a7c0 <puts@plt>
    b12e:	48 c7 85 a0 fe ff ff 	movq   $0x0,-0x160(%rbp)
    b135:	00 00 00 00 
    b139:	48 c7 85 a8 fe ff ff 	movq   $0x0,-0x158(%rbp)
    b140:	00 00 00 00 
    b144:	48 8b 95 98 fe ff ff 	mov    -0x168(%rbp),%rdx
    b14b:	48 8d 8d c0 fe ff ff 	lea    -0x140(%rbp),%rcx
    b152:	48 8d b5 a8 fe ff ff 	lea    -0x158(%rbp),%rsi
    b159:	48 8d 85 a0 fe ff ff 	lea    -0x160(%rbp),%rax
    b160:	48 89 c7             	mov    %rax,%rdi
    b163:	e8 ef 8d 00 00       	call   13f57 <_Z7scatterPP17chunk_particles_tS1_S0_P10topology_t>
    b168:	c7 85 8c fe ff ff 00 	movl   $0x0,-0x174(%rbp)
    b16f:	00 00 00 
    b172:	eb 33                	jmp    b1a7 <main+0x5be>
    b174:	48 8b 8d a8 fe ff ff 	mov    -0x158(%rbp),%rcx
    b17b:	48 8b 85 a0 fe ff ff 	mov    -0x160(%rbp),%rax
    b182:	48 8b 35 b7 b3 00 00 	mov    0xb3b7(%rip),%rsi        # 16540 <_ZN3MPIL11LOCK_SHAREDE+0x300>
    b189:	48 8d 95 c0 fe ff ff 	lea    -0x140(%rbp),%rdx
    b190:	66 48 0f 6e c6       	movq   %rsi,%xmm0
    b195:	48 89 ce             	mov    %rcx,%rsi
    b198:	48 89 c7             	mov    %rax,%rdi
    b19b:	e8 f9 9a 00 00       	call   14c99 <_Z6updateP17chunk_particles_tS0_P10topology_td>
    b1a0:	83 85 8c fe ff ff 01 	addl   $0x1,-0x174(%rbp)
    b1a7:	83 bd 8c fe ff ff 63 	cmpl   $0x63,-0x174(%rbp)
    b1ae:	7e c4                	jle    b174 <main+0x58b>
    b1b0:	48 8b 9d a0 fe ff ff 	mov    -0x160(%rbp),%rbx
    b1b7:	48 8d 95 30 ff ff ff 	lea    -0xd0(%rbp),%rdx
    b1be:	48 8d 45 b0          	lea    -0x50(%rbp),%rax
    b1c2:	48 89 d6             	mov    %rdx,%rsi
    b1c5:	48 89 c7             	mov    %rax,%rdi
    b1c8:	e8 f3 ed ff ff       	call   9fc0 <_ZNSt7__cxx1112basic_stringIcSt11char_traitsIcESaIcEEC1ERKS4_@plt>
    b1cd:	48 8d 45 b0          	lea    -0x50(%rbp),%rax
    b1d1:	48 89 de             	mov    %rbx,%rsi
    b1d4:	48 89 c7             	mov    %rax,%rdi
    b1d7:	e8 48 69 00 00       	call   11b24 <_Z15store_particlesNSt7__cxx1112basic_stringIcSt11char_traitsIcESaIcEEEP17chunk_particles_t>
    b1dc:	48 8d 45 b0          	lea    -0x50(%rbp),%rax
    b1e0:	48 89 c7             	mov    %rax,%rdi
    b1e3:	e8 18 ef ff ff       	call   a100 <_ZNSt7__cxx1112basic_stringIcSt11char_traitsIcESaIcEED1Ev@plt>
    b1e8:	48 8b 9d a8 fe ff ff 	mov    -0x158(%rbp),%rbx
    b1ef:	48 8d 95 50 ff ff ff 	lea    -0xb0(%rbp),%rdx
    b1f6:	48 8d 45 b0          	lea    -0x50(%rbp),%rax
    b1fa:	48 89 d6             	mov    %rdx,%rsi
    b1fd:	48 89 c7             	mov    %rax,%rdi
    b200:	e8 bb ed ff ff       	call   9fc0 <_ZNSt7__cxx1112basic_stringIcSt11char_traitsIcESaIcEEC1ERKS4_@plt>
    b205:	48 8d 45 b0          	lea    -0x50(%rbp),%rax
    b209:	48 89 de             	mov    %rbx,%rsi
    b20c:	48 89 c7             	mov    %rax,%rdi
    b20f:	e8 10 69 00 00       	call   11b24 <_Z15store_particlesNSt7__cxx1112basic_stringIcSt11char_traitsIcESaIcEEEP17chunk_particles_t>
    b214:	48 8d 45 b0          	lea    -0x50(%rbp),%rax
    b218:	48 89 c7             	mov    %rax,%rdi
    b21b:	e8 e0 ee ff ff       	call   a100 <_ZNSt7__cxx1112basic_stringIcSt11char_traitsIcESaIcEED1Ev@plt>
    b220:	48 8b 85 98 fe ff ff 	mov    -0x168(%rbp),%rax
    b227:	48 85 c0             	test   %rax,%rax
    b22a:	74 23                	je     b24f <main+0x666>
    b22c:	48 8b 85 98 fe ff ff 	mov    -0x168(%rbp),%rax
    b233:	48 8b 00             	mov    (%rax),%rax
    b236:	48 89 c6             	mov    %rax,%rsi
    b239:	48 8d 05 ae b2 00 00 	lea    0xb2ae(%rip),%rax        # 164ee <_ZN3MPIL11LOCK_SHAREDE+0x2ae>
    b240:	48 89 c7             	mov    %rax,%rdi
    b243:	b8 00 00 00 00       	mov    $0x0,%eax
    b248:	e8 73 eb ff ff       	call   9dc0 <printf@plt>
    b24d:	eb 14                	jmp    b263 <main+0x67a>
    b24f:	48 8d 05 ab b2 00 00 	lea    0xb2ab(%rip),%rax        # 16501 <_ZN3MPIL11LOCK_SHAREDE+0x2c1>
    b256:	48 89 c7             	mov    %rax,%rdi
    b259:	b8 00 00 00 00       	mov    $0x0,%eax
    b25e:	e8 5d eb ff ff       	call   9dc0 <printf@plt>
    b263:	48 8b 95 98 fe ff ff 	mov    -0x168(%rbp),%rdx
    b26a:	48 8b b5 a8 fe ff ff 	mov    -0x158(%rbp),%rsi
    b271:	48 8b 85 a0 fe ff ff 	mov    -0x160(%rbp),%rax
    b278:	48 8d 8d c0 fe ff ff 	lea    -0x140(%rbp),%rcx
    b27f:	48 89 c7             	mov    %rax,%rdi
    b282:	e8 c1 95 00 00       	call   14848 <_Z6gatherP17chunk_particles_tS0_S0_P10topology_t>
    b287:	48 8b 85 98 fe ff ff 	mov    -0x168(%rbp),%rax
    b28e:	48 85 c0             	test   %rax,%rax
    b291:	74 23                	je     b2b6 <main+0x6cd>
    b293:	48 8b 85 98 fe ff ff 	mov    -0x168(%rbp),%rax
    b29a:	48 8b 00             	mov    (%rax),%rax
    b29d:	48 89 c6             	mov    %rax,%rsi
    b2a0:	48 8d 05 6d b2 00 00 	lea    0xb26d(%rip),%rax        # 16514 <_ZN3MPIL11LOCK_SHAREDE+0x2d4>
    b2a7:	48 89 c7             	mov    %rax,%rdi
    b2aa:	b8 00 00 00 00       	mov    $0x0,%eax
    b2af:	e8 0c eb ff ff       	call   9dc0 <printf@plt>
    b2b4:	eb 0f                	jmp    b2c5 <main+0x6dc>
    b2b6:	48 8d 05 6b b2 00 00 	lea    0xb26b(%rip),%rax        # 16528 <_ZN3MPIL11LOCK_SHAREDE+0x2e8>
    b2bd:	48 89 c7             	mov    %rax,%rdi
    b2c0:	e8 fb f4 ff ff       	call   a7c0 <puts@plt>
    b2c5:	48 8b 85 b0 fe ff ff 	mov    -0x150(%rbp),%rax
    b2cc:	8b 00                	mov    (%rax),%eax
    b2ce:	85 c0                	test   %eax,%eax
    b2d0:	0f 85 89 00 00 00    	jne    b35f <main+0x776>
    b2d6:	48 8b 85 b8 fe ff ff 	mov    -0x148(%rbp),%rax
    b2dd:	8b 00                	mov    (%rax),%eax
    b2df:	85 c0                	test   %eax,%eax
    b2e1:	75 7c                	jne    b35f <main+0x776>
    b2e3:	48 8b 9d 98 fe ff ff 	mov    -0x168(%rbp),%rbx
    b2ea:	48 8d 95 70 ff ff ff 	lea    -0x90(%rbp),%rdx
    b2f1:	48 8d 45 b0          	lea    -0x50(%rbp),%rax
    b2f5:	48 89 d6             	mov    %rdx,%rsi
    b2f8:	48 89 c7             	mov    %rax,%rdi
    b2fb:	e8 c0 ec ff ff       	call   9fc0 <_ZNSt7__cxx1112basic_stringIcSt11char_traitsIcESaIcEEC1ERKS4_@plt>
    b300:	48 8d 45 b0          	lea    -0x50(%rbp),%rax
    b304:	48 89 de             	mov    %rbx,%rsi
    b307:	48 89 c7             	mov    %rax,%rdi
    b30a:	e8 15 68 00 00       	call   11b24 <_Z15store_particlesNSt7__cxx1112basic_stringIcSt11char_traitsIcESaIcEEEP17chunk_particles_t>
    b30f:	48 8d 45 b0          	lea    -0x50(%rbp),%rax
    b313:	48 89 c7             	mov    %rax,%rdi
    b316:	e8 e5 ed ff ff       	call   a100 <_ZNSt7__cxx1112basic_stringIcSt11char_traitsIcESaIcEED1Ev@plt>
    b31b:	48 8b 85 98 fe ff ff 	mov    -0x168(%rbp),%rax
    b322:	48 89 c7             	mov    %rax,%rdi
    b325:	e8 8f 7c 00 00       	call   12fb9 <_Z6shrinkP17chunk_particles_t>
    b32a:	48 8b 9d 98 fe ff ff 	mov    -0x168(%rbp),%rbx
    b331:	48 8d 55 90          	lea    -0x70(%rbp),%rdx
    b335:	48 8d 45 b0          	lea    -0x50(%rbp),%rax
    b339:	48 89 d6             	mov    %rdx,%rsi
    b33c:	48 89 c7             	mov    %rax,%rdi
    b33f:	e8 7c ec ff ff       	call   9fc0 <_ZNSt7__cxx1112basic_stringIcSt11char_traitsIcESaIcEEC1ERKS4_@plt>
    b344:	48 8d 45 b0          	lea    -0x50(%rbp),%rax
    b348:	48 89 de             	mov    %rbx,%rsi
    b34b:	48 89 c7             	mov    %rax,%rdi
    b34e:	e8 d1 67 00 00       	call   11b24 <_Z15store_particlesNSt7__cxx1112basic_stringIcSt11char_traitsIcESaIcEEEP17chunk_particles_t>
    b353:	48 8d 45 b0          	lea    -0x50(%rbp),%rax
    b357:	48 89 c7             	mov    %rax,%rdi
    b35a:	e8 a1 ed ff ff       	call   a100 <_ZNSt7__cxx1112basic_stringIcSt11char_traitsIcESaIcEED1Ev@plt>
    b35f:	e8 ec ee ff ff       	call   a250 <MPI_Finalize@plt>
    b364:	bb 00 00 00 00       	mov    $0x0,%ebx
    b369:	48 8d 45 90          	lea    -0x70(%rbp),%rax
    b36d:	48 89 c7             	mov    %rax,%rdi
    b370:	e8 8b ed ff ff       	call   a100 <_ZNSt7__cxx1112basic_stringIcSt11char_traitsIcESaIcEED1Ev@plt>
    b375:	48 8d 85 70 ff ff ff 	lea    -0x90(%rbp),%rax
    b37c:	48 89 c7             	mov    %rax,%rdi
    b37f:	e8 7c ed ff ff       	call   a100 <_ZNSt7__cxx1112basic_stringIcSt11char_traitsIcESaIcEED1Ev@plt>
    b384:	48 8d 85 50 ff ff ff 	lea    -0xb0(%rbp),%rax
    b38b:	48 89 c7             	mov    %rax,%rdi
    b38e:	e8 6d ed ff ff       	call   a100 <_ZNSt7__cxx1112basic_stringIcSt11char_traitsIcESaIcEED1Ev@plt>
    b393:	48 8d 85 30 ff ff ff 	lea    -0xd0(%rbp),%rax
    b39a:	48 89 c7             	mov    %rax,%rdi
    b39d:	e8 5e ed ff ff       	call   a100 <_ZNSt7__cxx1112basic_stringIcSt11char_traitsIcESaIcEED1Ev@plt>
    b3a2:	48 8d 85 10 ff ff ff 	lea    -0xf0(%rbp),%rax
    b3a9:	48 89 c7             	mov    %rax,%rdi
    b3ac:	e8 4f ed ff ff       	call   a100 <_ZNSt7__cxx1112basic_stringIcSt11char_traitsIcESaIcEED1Ev@plt>
    b3b1:	48 8d 85 f0 fe ff ff 	lea    -0x110(%rbp),%rax
    b3b8:	48 89 c7             	mov    %rax,%rdi
    b3bb:	e8 40 ed ff ff       	call   a100 <_ZNSt7__cxx1112basic_stringIcSt11char_traitsIcESaIcEED1Ev@plt>
    b3c0:	89 d8                	mov    %ebx,%eax
    b3c2:	48 8b 55 d8          	mov    -0x28(%rbp),%rdx
    b3c6:	64 48 2b 14 25 28 00 	sub    %fs:0x28,%rdx
    b3cd:	00 00 
    b3cf:	0f 84 ff 01 00 00    	je     b5d4 <main+0x9eb>
    b3d5:	e9 f5 01 00 00       	jmp    b5cf <main+0x9e6>
    b3da:	f3 0f 1e fa          	endbr64 
    b3de:	48 89 c3             	mov    %rax,%rbx
    b3e1:	48 8d 85 a8 fe ff ff 	lea    -0x158(%rbp),%rax
    b3e8:	48 89 c7             	mov    %rax,%rdi
    b3eb:	e8 70 f0 ff ff       	call   a460 <_ZNSaIcED1Ev@plt>
    b3f0:	48 89 d8             	mov    %rbx,%rax
    b3f3:	48 89 c7             	mov    %rax,%rdi
    b3f6:	e8 85 f5 ff ff       	call   a980 <_Unwind_Resume@plt>
    b3fb:	f3 0f 1e fa          	endbr64 
    b3ff:	48 89 c3             	mov    %rax,%rbx
    b402:	48 8d 85 a8 fe ff ff 	lea    -0x158(%rbp),%rax
    b409:	48 89 c7             	mov    %rax,%rdi
    b40c:	e8 4f f0 ff ff       	call   a460 <_ZNSaIcED1Ev@plt>
    b411:	e9 9f 01 00 00       	jmp    b5b5 <main+0x9cc>
    b416:	f3 0f 1e fa          	endbr64 
    b41a:	48 89 c3             	mov    %rax,%rbx
    b41d:	48 8d 45 90          	lea    -0x70(%rbp),%rax
    b421:	48 89 c7             	mov    %rax,%rdi
    b424:	e8 d7 ec ff ff       	call   a100 <_ZNSt7__cxx1112basic_stringIcSt11char_traitsIcESaIcEED1Ev@plt>
    b429:	eb 07                	jmp    b432 <main+0x849>
    b42b:	f3 0f 1e fa          	endbr64 
    b42f:	48 89 c3             	mov    %rax,%rbx
    b432:	48 8d 85 70 ff ff ff 	lea    -0x90(%rbp),%rax
    b439:	48 89 c7             	mov    %rax,%rdi
    b43c:	e8 bf ec ff ff       	call   a100 <_ZNSt7__cxx1112basic_stringIcSt11char_traitsIcESaIcEED1Ev@plt>
    b441:	eb 07                	jmp    b44a <main+0x861>
    b443:	f3 0f 1e fa          	endbr64 
    b447:	48 89 c3             	mov    %rax,%rbx
    b44a:	48 8d 45 b0          	lea    -0x50(%rbp),%rax
    b44e:	48 89 c7             	mov    %rax,%rdi
    b451:	e8 aa ec ff ff       	call   a100 <_ZNSt7__cxx1112basic_stringIcSt11char_traitsIcESaIcEED1Ev@plt>
    b456:	e9 4b 01 00 00       	jmp    b5a6 <main+0x9bd>
    b45b:	f3 0f 1e fa          	endbr64 
    b45f:	48 89 c3             	mov    %rax,%rbx
    b462:	48 8d 45 90          	lea    -0x70(%rbp),%rax
    b466:	48 89 c7             	mov    %rax,%rdi
    b469:	e8 92 ec ff ff       	call   a100 <_ZNSt7__cxx1112basic_stringIcSt11char_traitsIcESaIcEED1Ev@plt>
    b46e:	eb 07                	jmp    b477 <main+0x88e>
    b470:	f3 0f 1e fa          	endbr64 
    b474:	48 89 c3             	mov    %rax,%rbx
    b477:	48 8d 85 70 ff ff ff 	lea    -0x90(%rbp),%rax
    b47e:	48 89 c7             	mov    %rax,%rdi
    b481:	e8 7a ec ff ff       	call   a100 <_ZNSt7__cxx1112basic_stringIcSt11char_traitsIcESaIcEED1Ev@plt>
    b486:	eb 07                	jmp    b48f <main+0x8a6>
    b488:	f3 0f 1e fa          	endbr64 
    b48c:	48 89 c3             	mov    %rax,%rbx
    b48f:	48 8d 45 b0          	lea    -0x50(%rbp),%rax
    b493:	48 89 c7             	mov    %rax,%rdi
    b496:	e8 65 ec ff ff       	call   a100 <_ZNSt7__cxx1112basic_stringIcSt11char_traitsIcESaIcEED1Ev@plt>
    b49b:	e9 ee 00 00 00       	jmp    b58e <main+0x9a5>
    b4a0:	f3 0f 1e fa          	endbr64 
    b4a4:	48 89 c3             	mov    %rax,%rbx
    b4a7:	48 8d 85 a8 fe ff ff 	lea    -0x158(%rbp),%rax
    b4ae:	48 89 c7             	mov    %rax,%rdi
    b4b1:	e8 aa ef ff ff       	call   a460 <_ZNSaIcED1Ev@plt>
    b4b6:	e9 bb 00 00 00       	jmp    b576 <main+0x98d>
    b4bb:	f3 0f 1e fa          	endbr64 
    b4bf:	48 89 c3             	mov    %rax,%rbx
    b4c2:	48 8d 85 a8 fe ff ff 	lea    -0x158(%rbp),%rax
    b4c9:	48 89 c7             	mov    %rax,%rdi
    b4cc:	e8 8f ef ff ff       	call   a460 <_ZNSaIcED1Ev@plt>
    b4d1:	e9 91 00 00 00       	jmp    b567 <main+0x97e>
    b4d6:	f3 0f 1e fa          	endbr64 
    b4da:	48 89 c3             	mov    %rax,%rbx
    b4dd:	48 8d 45 b0          	lea    -0x50(%rbp),%rax
    b4e1:	48 89 c7             	mov    %rax,%rdi
    b4e4:	e8 17 ec ff ff       	call   a100 <_ZNSt7__cxx1112basic_stringIcSt11char_traitsIcESaIcEED1Ev@plt>
    b4e9:	eb 70                	jmp    b55b <main+0x972>
    b4eb:	f3 0f 1e fa          	endbr64 
    b4ef:	48 89 c3             	mov    %rax,%rbx
    b4f2:	48 8d 45 b0          	lea    -0x50(%rbp),%rax
    b4f6:	48 89 c7             	mov    %rax,%rdi
    b4f9:	e8 02 ec ff ff       	call   a100 <_ZNSt7__cxx1112basic_stringIcSt11char_traitsIcESaIcEED1Ev@plt>
    b4fe:	eb 5b                	jmp    b55b <main+0x972>
    b500:	f3 0f 1e fa          	endbr64 
    b504:	48 89 c3             	mov    %rax,%rbx
    b507:	48 8d 45 b0          	lea    -0x50(%rbp),%rax
    b50b:	48 89 c7             	mov    %rax,%rdi
    b50e:	e8 ed eb ff ff       	call   a100 <_ZNSt7__cxx1112basic_stringIcSt11char_traitsIcESaIcEED1Ev@plt>
    b513:	eb 46                	jmp    b55b <main+0x972>
    b515:	f3 0f 1e fa          	endbr64 
    b519:	48 89 c3             	mov    %rax,%rbx
    b51c:	48 8d 45 b0          	lea    -0x50(%rbp),%rax
    b520:	48 89 c7             	mov    %rax,%rdi
    b523:	e8 d8 eb ff ff       	call   a100 <_ZNSt7__cxx1112basic_stringIcSt11char_traitsIcESaIcEED1Ev@plt>
    b528:	eb 31                	jmp    b55b <main+0x972>
    b52a:	f3 0f 1e fa          	endbr64 
    b52e:	48 89 c3             	mov    %rax,%rbx
    b531:	48 8d 45 b0          	lea    -0x50(%rbp),%rax
    b535:	48 89 c7             	mov    %rax,%rdi
    b538:	e8 c3 eb ff ff       	call   a100 <_ZNSt7__cxx1112basic_stringIcSt11char_traitsIcESaIcEED1Ev@plt>
    b53d:	eb 1c                	jmp    b55b <main+0x972>
    b53f:	f3 0f 1e fa          	endbr64 
    b543:	48 89 c3             	mov    %rax,%rbx
    b546:	48 8d 45 b0          	lea    -0x50(%rbp),%rax
    b54a:	48 89 c7             	mov    %rax,%rdi
    b54d:	e8 ae eb ff ff       	call   a100 <_ZNSt7__cxx1112basic_stringIcSt11char_traitsIcESaIcEED1Ev@plt>
    b552:	eb 07                	jmp    b55b <main+0x972>
    b554:	f3 0f 1e fa          	endbr64 
    b558:	48 89 c3             	mov    %rax,%rbx
    b55b:	48 8d 45 90          	lea    -0x70(%rbp),%rax
    b55f:	48 89 c7             	mov    %rax,%rdi
    b562:	e8 99 eb ff ff       	call   a100 <_ZNSt7__cxx1112basic_stringIcSt11char_traitsIcESaIcEED1Ev@plt>
    b567:	48 8d 85 70 ff ff ff 	lea    -0x90(%rbp),%rax
    b56e:	48 89 c7             	mov    %rax,%rdi
    b571:	e8 8a eb ff ff       	call   a100 <_ZNSt7__cxx1112basic_stringIcSt11char_traitsIcESaIcEED1Ev@plt>
    b576:	48 8d 85 50 ff ff ff 	lea    -0xb0(%rbp),%rax
    b57d:	48 89 c7             	mov    %rax,%rdi
    b580:	e8 7b eb ff ff       	call   a100 <_ZNSt7__cxx1112basic_stringIcSt11char_traitsIcESaIcEED1Ev@plt>
    b585:	eb 07                	jmp    b58e <main+0x9a5>
    b587:	f3 0f 1e fa          	endbr64 
    b58b:	48 89 c3             	mov    %rax,%rbx
    b58e:	48 8d 85 30 ff ff ff 	lea    -0xd0(%rbp),%rax
    b595:	48 89 c7             	mov    %rax,%rdi
    b598:	e8 63 eb ff ff       	call   a100 <_ZNSt7__cxx1112basic_stringIcSt11char_traitsIcESaIcEED1Ev@plt>
    b59d:	eb 07                	jmp    b5a6 <main+0x9bd>
    b59f:	f3 0f 1e fa          	endbr64 
    b5a3:	48 89 c3             	mov    %rax,%rbx
    b5a6:	48 8d 85 10 ff ff ff 	lea    -0xf0(%rbp),%rax
    b5ad:	48 89 c7             	mov    %rax,%rdi
    b5b0:	e8 4b eb ff ff       	call   a100 <_ZNSt7__cxx1112basic_stringIcSt11char_traitsIcESaIcEED1Ev@plt>
    b5b5:	48 8d 85 f0 fe ff ff 	lea    -0x110(%rbp),%rax
    b5bc:	48 89 c7             	mov    %rax,%rdi
    b5bf:	e8 3c eb ff ff       	call   a100 <_ZNSt7__cxx1112basic_stringIcSt11char_traitsIcESaIcEED1Ev@plt>
    b5c4:	48 89 d8             	mov    %rbx,%rax
    b5c7:	48 89 c7             	mov    %rax,%rdi
    b5ca:	e8 b1 f3 ff ff       	call   a980 <_Unwind_Resume@plt>
    b5cf:	e8 fc ee ff ff       	call   a4d0 <__stack_chk_fail@plt>
    b5d4:	48 8d 65 e8          	lea    -0x18(%rbp),%rsp
    b5d8:	5b                   	pop    %rbx
    b5d9:	41 5c                	pop    %r12
    b5db:	41 5d                	pop    %r13
    b5dd:	5d                   	pop    %rbp
    b5de:	c3                   	ret    

000000000000b5df <_Z41__static_initialization_and_destruction_0ii>:
    b5df:	f3 0f 1e fa          	endbr64 
    b5e3:	55                   	push   %rbp
    b5e4:	48 89 e5             	mov    %rsp,%rbp
    b5e7:	48 83 ec 10          	sub    $0x10,%rsp
    b5eb:	89 7d fc             	mov    %edi,-0x4(%rbp)
    b5ee:	89 75 f8             	mov    %esi,-0x8(%rbp)
    b5f1:	83 7d fc 01          	cmpl   $0x1,-0x4(%rbp)
    b5f5:	75 3b                	jne    b632 <_Z41__static_initialization_and_destruction_0ii+0x53>
    b5f7:	81 7d f8 ff ff 00 00 	cmpl   $0xffff,-0x8(%rbp)
    b5fe:	75 32                	jne    b632 <_Z41__static_initialization_and_destruction_0ii+0x53>
    b600:	48 8d 05 22 2c 01 00 	lea    0x12c22(%rip),%rax        # 1e229 <_ZStL8__ioinit>
    b607:	48 89 c7             	mov    %rax,%rdi
    b60a:	e8 a1 f1 ff ff       	call   a7b0 <_ZNSt8ios_base4InitC1Ev@plt>
    b60f:	48 8d 05 f2 19 01 00 	lea    0x119f2(%rip),%rax        # 1d008 <__dso_handle>
    b616:	48 89 c2             	mov    %rax,%rdx
    b619:	48 8d 05 09 2c 01 00 	lea    0x12c09(%rip),%rax        # 1e229 <_ZStL8__ioinit>
    b620:	48 89 c6             	mov    %rax,%rsi
    b623:	48 8b 05 ce 19 01 00 	mov    0x119ce(%rip),%rax        # 1cff8 <_ZNSt8ios_base4InitD1Ev@GLIBCXX_3.4>
    b62a:	48 89 c7             	mov    %rax,%rdi
    b62d:	e8 ee ec ff ff       	call   a320 <__cxa_atexit@plt>
    b632:	90                   	nop
    b633:	c9                   	leave  
    b634:	c3                   	ret    

000000000000b635 <_GLOBAL__sub_I_main>:
    b635:	f3 0f 1e fa          	endbr64 
    b639:	55                   	push   %rbp
    b63a:	48 89 e5             	mov    %rsp,%rbp
    b63d:	be ff ff 00 00       	mov    $0xffff,%esi
    b642:	bf 01 00 00 00       	mov    $0x1,%edi
    b647:	e8 93 ff ff ff       	call   b5df <_Z41__static_initialization_and_destruction_0ii>
    b64c:	5d                   	pop    %rbp
    b64d:	c3                   	ret    

000000000000b64e <_ZNSt7__cxx119to_stringEi>:
    b64e:	f3 0f 1e fa          	endbr64 
    b652:	55                   	push   %rbp
    b653:	48 89 e5             	mov    %rsp,%rbp
    b656:	53                   	push   %rbx
    b657:	48 83 ec 38          	sub    $0x38,%rsp
    b65b:	48 89 7d c8          	mov    %rdi,-0x38(%rbp)
    b65f:	89 75 c4             	mov    %esi,-0x3c(%rbp)
    b662:	64 48 8b 04 25 28 00 	mov    %fs:0x28,%rax
    b669:	00 00 
    b66b:	48 89 45 e8          	mov    %rax,-0x18(%rbp)
    b66f:	31 c0                	xor    %eax,%eax
    b671:	8b 45 c4             	mov    -0x3c(%rbp),%eax
    b674:	c1 e8 1f             	shr    $0x1f,%eax
    b677:	88 45 df             	mov    %al,-0x21(%rbp)
    b67a:	80 7d df 00          	cmpb   $0x0,-0x21(%rbp)
    b67e:	74 07                	je     b687 <_ZNSt7__cxx119to_stringEi+0x39>
    b680:	8b 45 c4             	mov    -0x3c(%rbp),%eax
    b683:	f7 d8                	neg    %eax
    b685:	eb 03                	jmp    b68a <_ZNSt7__cxx119to_stringEi+0x3c>
    b687:	8b 45 c4             	mov    -0x3c(%rbp),%eax
    b68a:	89 45 e0             	mov    %eax,-0x20(%rbp)
    b68d:	8b 45 e0             	mov    -0x20(%rbp),%eax
    b690:	be 0a 00 00 00       	mov    $0xa,%esi
    b695:	89 c7                	mov    %eax,%edi
    b697:	e8 c1 00 00 00       	call   b75d <_ZNSt8__detail14__to_chars_lenIjEEjT_i>
    b69c:	89 45 e4             	mov    %eax,-0x1c(%rbp)
    b69f:	48 8d 45 de          	lea    -0x22(%rbp),%rax
    b6a3:	48 89 c7             	mov    %rax,%rdi
    b6a6:	e8 e5 f2 ff ff       	call   a990 <_ZNSaIcEC1Ev@plt>
    b6ab:	0f b6 55 df          	movzbl -0x21(%rbp),%edx
    b6af:	8b 45 e4             	mov    -0x1c(%rbp),%eax
    b6b2:	01 d0                	add    %edx,%eax
    b6b4:	89 c6                	mov    %eax,%esi
    b6b6:	48 8d 55 de          	lea    -0x22(%rbp),%rdx
    b6ba:	48 8b 45 c8          	mov    -0x38(%rbp),%rax
    b6be:	48 89 d1             	mov    %rdx,%rcx
    b6c1:	ba 2d 00 00 00       	mov    $0x2d,%edx
    b6c6:	48 89 c7             	mov    %rax,%rdi
    b6c9:	e8 72 ea ff ff       	call   a140 <_ZNSt7__cxx1112basic_stringIcSt11char_traitsIcESaIcEEC1EmcRKS3_@plt>
    b6ce:	48 8d 45 de          	lea    -0x22(%rbp),%rax
    b6d2:	48 89 c7             	mov    %rax,%rdi
    b6d5:	e8 86 ed ff ff       	call   a460 <_ZNSaIcED1Ev@plt>
    b6da:	0f b6 55 df          	movzbl -0x21(%rbp),%edx
    b6de:	48 8b 45 c8          	mov    -0x38(%rbp),%rax
    b6e2:	48 89 d6             	mov    %rdx,%rsi
    b6e5:	48 89 c7             	mov    %rax,%rdi
    b6e8:	e8 03 f4 ff ff       	call   aaf0 <_ZNSt7__cxx1112basic_stringIcSt11char_traitsIcESaIcEEixEm@plt>
    b6ed:	48 89 c1             	mov    %rax,%rcx
    b6f0:	8b 55 e0             	mov    -0x20(%rbp),%edx
    b6f3:	8b 45 e4             	mov    -0x1c(%rbp),%eax
    b6f6:	89 c6                	mov    %eax,%esi
    b6f8:	48 89 cf             	mov    %rcx,%rdi
    b6fb:	e8 1e 4f 00 00       	call   1061e <_ZNSt8__detail18__to_chars_10_implIjEEvPcjT_>
    b700:	90                   	nop
    b701:	48 8b 45 e8          	mov    -0x18(%rbp),%rax
    b705:	64 48 2b 04 25 28 00 	sub    %fs:0x28,%rax
    b70c:	00 00 
    b70e:	74 43                	je     b753 <_ZNSt7__cxx119to_stringEi+0x105>
    b710:	eb 3c                	jmp    b74e <_ZNSt7__cxx119to_stringEi+0x100>
    b712:	f3 0f 1e fa          	endbr64 
    b716:	48 89 c3             	mov    %rax,%rbx
    b719:	48 8d 45 de          	lea    -0x22(%rbp),%rax
    b71d:	48 89 c7             	mov    %rax,%rdi
    b720:	e8 3b ed ff ff       	call   a460 <_ZNSaIcED1Ev@plt>
    b725:	48 89 d8             	mov    %rbx,%rax
    b728:	48 89 c7             	mov    %rax,%rdi
    b72b:	e8 50 f2 ff ff       	call   a980 <_Unwind_Resume@plt>
    b730:	f3 0f 1e fa          	endbr64 
    b734:	48 89 c3             	mov    %rax,%rbx
    b737:	48 8b 45 c8          	mov    -0x38(%rbp),%rax
    b73b:	48 89 c7             	mov    %rax,%rdi
    b73e:	e8 bd e9 ff ff       	call   a100 <_ZNSt7__cxx1112basic_stringIcSt11char_traitsIcESaIcEED1Ev@plt>
    b743:	48 89 d8             	mov    %rbx,%rax
    b746:	48 89 c7             	mov    %rax,%rdi
    b749:	e8 32 f2 ff ff       	call   a980 <_Unwind_Resume@plt>
    b74e:	e8 7d ed ff ff       	call   a4d0 <__stack_chk_fail@plt>
    b753:	48 8b 45 c8          	mov    -0x38(%rbp),%rax
    b757:	48 8b 5d f8          	mov    -0x8(%rbp),%rbx
    b75b:	c9                   	leave  
    b75c:	c3                   	ret    

000000000000b75d <_ZNSt8__detail14__to_chars_lenIjEEjT_i>:
    b75d:	f3 0f 1e fa          	endbr64 
    b761:	55                   	push   %rbp
    b762:	48 89 e5             	mov    %rsp,%rbp
    b765:	89 7d dc             	mov    %edi,-0x24(%rbp)
    b768:	89 75 d8             	mov    %esi,-0x28(%rbp)
    b76b:	c7 45 ec 01 00 00 00 	movl   $0x1,-0x14(%rbp)
    b772:	8b 45 d8             	mov    -0x28(%rbp),%eax
    b775:	0f af c0             	imul   %eax,%eax
    b778:	89 45 f0             	mov    %eax,-0x10(%rbp)
    b77b:	8b 45 d8             	mov    -0x28(%rbp),%eax
    b77e:	8b 55 f0             	mov    -0x10(%rbp),%edx
    b781:	0f af c2             	imul   %edx,%eax
    b784:	89 45 f4             	mov    %eax,-0xc(%rbp)
    b787:	8b 45 d8             	mov    -0x28(%rbp),%eax
    b78a:	0f af 45 f4          	imul   -0xc(%rbp),%eax
    b78e:	89 c0                	mov    %eax,%eax
    b790:	48 89 45 f8          	mov    %rax,-0x8(%rbp)
    b794:	8b 45 d8             	mov    -0x28(%rbp),%eax
    b797:	39 45 dc             	cmp    %eax,-0x24(%rbp)
    b79a:	73 05                	jae    b7a1 <_ZNSt8__detail14__to_chars_lenIjEEjT_i+0x44>
    b79c:	8b 45 ec             	mov    -0x14(%rbp),%eax
    b79f:	eb 46                	jmp    b7e7 <_ZNSt8__detail14__to_chars_lenIjEEjT_i+0x8a>
    b7a1:	8b 45 dc             	mov    -0x24(%rbp),%eax
    b7a4:	3b 45 f0             	cmp    -0x10(%rbp),%eax
    b7a7:	73 08                	jae    b7b1 <_ZNSt8__detail14__to_chars_lenIjEEjT_i+0x54>
    b7a9:	8b 45 ec             	mov    -0x14(%rbp),%eax
    b7ac:	83 c0 01             	add    $0x1,%eax
    b7af:	eb 36                	jmp    b7e7 <_ZNSt8__detail14__to_chars_lenIjEEjT_i+0x8a>
    b7b1:	8b 45 dc             	mov    -0x24(%rbp),%eax
    b7b4:	3b 45 f4             	cmp    -0xc(%rbp),%eax
    b7b7:	73 08                	jae    b7c1 <_ZNSt8__detail14__to_chars_lenIjEEjT_i+0x64>
    b7b9:	8b 45 ec             	mov    -0x14(%rbp),%eax
    b7bc:	83 c0 02             	add    $0x2,%eax
    b7bf:	eb 26                	jmp    b7e7 <_ZNSt8__detail14__to_chars_lenIjEEjT_i+0x8a>
    b7c1:	8b 45 dc             	mov    -0x24(%rbp),%eax
    b7c4:	48 39 45 f8          	cmp    %rax,-0x8(%rbp)
    b7c8:	76 08                	jbe    b7d2 <_ZNSt8__detail14__to_chars_lenIjEEjT_i+0x75>
    b7ca:	8b 45 ec             	mov    -0x14(%rbp),%eax
    b7cd:	83 c0 03             	add    $0x3,%eax
    b7d0:	eb 15                	jmp    b7e7 <_ZNSt8__detail14__to_chars_lenIjEEjT_i+0x8a>
    b7d2:	8b 45 dc             	mov    -0x24(%rbp),%eax
    b7d5:	ba 00 00 00 00       	mov    $0x0,%edx
    b7da:	48 f7 75 f8          	divq   -0x8(%rbp)
    b7de:	89 45 dc             	mov    %eax,-0x24(%rbp)
    b7e1:	83 45 ec 04          	addl   $0x4,-0x14(%rbp)
    b7e5:	eb ad                	jmp    b794 <_ZNSt8__detail14__to_chars_lenIjEEjT_i+0x37>
    b7e7:	5d                   	pop    %rbp
    b7e8:	c3                   	ret    
    b7e9:	90                   	nop

000000000000b7ea <_ZNKSt17integral_constantIbLb1EEcvbEv>:
    b7ea:	f3 0f 1e fa          	endbr64 
    b7ee:	55                   	push   %rbp
    b7ef:	48 89 e5             	mov    %rsp,%rbp
    b7f2:	48 89 7d f8          	mov    %rdi,-0x8(%rbp)
    b7f6:	b8 01 00 00 00       	mov    $0x1,%eax
    b7fb:	5d                   	pop    %rbp
    b7fc:	c3                   	ret    
    b7fd:	90                   	nop

000000000000b7fe <_ZN3MPI8DatatypeD1Ev>:
    b7fe:	f3 0f 1e fa          	endbr64 
    b802:	55                   	push   %rbp
    b803:	48 89 e5             	mov    %rsp,%rbp
    b806:	48 89 7d f8          	mov    %rdi,-0x8(%rbp)
    b80a:	48 8d 15 6f 0c 01 00 	lea    0x10c6f(%rip),%rdx        # 1c480 <_ZTVN3MPI8DatatypeE+0x10>
    b811:	48 8b 45 f8          	mov    -0x8(%rbp),%rax
    b815:	48 89 10             	mov    %rdx,(%rax)
    b818:	90                   	nop
    b819:	5d                   	pop    %rbp
    b81a:	c3                   	ret    
    b81b:	90                   	nop

000000000000b81c <_ZN3MPI8DatatypeD0Ev>:
    b81c:	f3 0f 1e fa          	endbr64 
    b820:	55                   	push   %rbp
    b821:	48 89 e5             	mov    %rsp,%rbp
    b824:	48 83 ec 10          	sub    $0x10,%rsp
    b828:	48 89 7d f8          	mov    %rdi,-0x8(%rbp)
    b82c:	48 8b 45 f8          	mov    -0x8(%rbp),%rax
    b830:	48 89 c7             	mov    %rax,%rdi
    b833:	e8 c6 ff ff ff       	call   b7fe <_ZN3MPI8DatatypeD1Ev>
    b838:	48 8b 45 f8          	mov    -0x8(%rbp),%rax
    b83c:	be 10 00 00 00       	mov    $0x10,%esi
    b841:	48 89 c7             	mov    %rax,%rdi
    b844:	e8 a7 eb ff ff       	call   a3f0 <_ZdlPvm@plt>
    b849:	c9                   	leave  
    b84a:	c3                   	ret    
    b84b:	90                   	nop

000000000000b84c <_ZN3MPI8DatatypeC1EP15ompi_datatype_t>:
    b84c:	f3 0f 1e fa          	endbr64 
    b850:	55                   	push   %rbp
    b851:	48 89 e5             	mov    %rsp,%rbp
    b854:	48 89 7d f8          	mov    %rdi,-0x8(%rbp)
    b858:	48 89 75 f0          	mov    %rsi,-0x10(%rbp)
    b85c:	48 8d 15 1d 0c 01 00 	lea    0x10c1d(%rip),%rdx        # 1c480 <_ZTVN3MPI8DatatypeE+0x10>
    b863:	48 8b 45 f8          	mov    -0x8(%rbp),%rax
    b867:	48 89 10             	mov    %rdx,(%rax)
    b86a:	48 8b 45 f8          	mov    -0x8(%rbp),%rax
    b86e:	48 8b 55 f0          	mov    -0x10(%rbp),%rdx
    b872:	48 89 50 08          	mov    %rdx,0x8(%rax)
    b876:	90                   	nop
    b877:	5d                   	pop    %rbp
    b878:	c3                   	ret    
    b879:	90                   	nop

000000000000b87a <_ZN3MPI8DatatypeaSERKP15ompi_datatype_t>:
    b87a:	f3 0f 1e fa          	endbr64 
    b87e:	55                   	push   %rbp
    b87f:	48 89 e5             	mov    %rsp,%rbp
    b882:	48 89 7d f8          	mov    %rdi,-0x8(%rbp)
    b886:	48 89 75 f0          	mov    %rsi,-0x10(%rbp)
    b88a:	48 8b 45 f0          	mov    -0x10(%rbp),%rax
    b88e:	48 8b 10             	mov    (%rax),%rdx
    b891:	48 8b 45 f8          	mov    -0x8(%rbp),%rax
    b895:	48 89 50 08          	mov    %rdx,0x8(%rax)
    b899:	48 8b 45 f8          	mov    -0x8(%rbp),%rax
    b89d:	5d                   	pop    %rbp
    b89e:	c3                   	ret    
    b89f:	90                   	nop

000000000000b8a0 <_ZNK3MPI8DatatypecvP15ompi_datatype_tEv>:
    b8a0:	f3 0f 1e fa          	endbr64 
    b8a4:	55                   	push   %rbp
    b8a5:	48 89 e5             	mov    %rsp,%rbp
    b8a8:	48 89 7d f8          	mov    %rdi,-0x8(%rbp)
    b8ac:	48 8b 45 f8          	mov    -0x8(%rbp),%rax
    b8b0:	48 8b 40 08          	mov    0x8(%rax),%rax
    b8b4:	5d                   	pop    %rbp
    b8b5:	c3                   	ret    

000000000000b8b6 <_ZN3MPI6StatusD1Ev>:
    b8b6:	f3 0f 1e fa          	endbr64 
    b8ba:	55                   	push   %rbp
    b8bb:	48 89 e5             	mov    %rsp,%rbp
    b8be:	48 89 7d f8          	mov    %rdi,-0x8(%rbp)
    b8c2:	48 8d 15 9f fd 00 00 	lea    0xfd9f(%rip),%rdx        # 1b668 <_ZTVN3MPI6StatusE+0x10>
    b8c9:	48 8b 45 f8          	mov    -0x8(%rbp),%rax
    b8cd:	48 89 10             	mov    %rdx,(%rax)
    b8d0:	90                   	nop
    b8d1:	5d                   	pop    %rbp
    b8d2:	c3                   	ret    
    b8d3:	90                   	nop

000000000000b8d4 <_ZN3MPI6StatusD0Ev>:
    b8d4:	f3 0f 1e fa          	endbr64 
    b8d8:	55                   	push   %rbp
    b8d9:	48 89 e5             	mov    %rsp,%rbp
    b8dc:	48 83 ec 10          	sub    $0x10,%rsp
    b8e0:	48 89 7d f8          	mov    %rdi,-0x8(%rbp)
    b8e4:	48 8b 45 f8          	mov    -0x8(%rbp),%rax
    b8e8:	48 89 c7             	mov    %rax,%rdi
    b8eb:	e8 c6 ff ff ff       	call   b8b6 <_ZN3MPI6StatusD1Ev>
    b8f0:	48 8b 45 f8          	mov    -0x8(%rbp),%rax
    b8f4:	be 20 00 00 00       	mov    $0x20,%esi
    b8f9:	48 89 c7             	mov    %rax,%rdi
    b8fc:	e8 ef ea ff ff       	call   a3f0 <_ZdlPvm@plt>
    b901:	c9                   	leave  
    b902:	c3                   	ret    
    b903:	90                   	nop

000000000000b904 <_ZN3MPI6StatusaSERK20ompi_status_public_t>:
    b904:	f3 0f 1e fa          	endbr64 
    b908:	55                   	push   %rbp
    b909:	48 89 e5             	mov    %rsp,%rbp
    b90c:	48 89 7d f8          	mov    %rdi,-0x8(%rbp)
    b910:	48 89 75 f0          	mov    %rsi,-0x10(%rbp)
    b914:	48 8b 4d f8          	mov    -0x8(%rbp),%rcx
    b918:	48 8b 75 f0          	mov    -0x10(%rbp),%rsi
    b91c:	48 8b 06             	mov    (%rsi),%rax
    b91f:	48 8b 56 08          	mov    0x8(%rsi),%rdx
    b923:	48 89 41 08          	mov    %rax,0x8(%rcx)
    b927:	48 89 51 10          	mov    %rdx,0x10(%rcx)
    b92b:	48 8b 46 10          	mov    0x10(%rsi),%rax
    b92f:	48 89 41 18          	mov    %rax,0x18(%rcx)
    b933:	48 8b 45 f8          	mov    -0x8(%rbp),%rax
    b937:	5d                   	pop    %rbp
    b938:	c3                   	ret    
    b939:	90                   	nop

000000000000b93a <_ZN3MPI7RequestD1Ev>:
    b93a:	f3 0f 1e fa          	endbr64 
    b93e:	55                   	push   %rbp
    b93f:	48 89 e5             	mov    %rsp,%rbp
    b942:	48 89 7d f8          	mov    %rdi,-0x8(%rbp)
    b946:	48 8d 15 23 08 01 00 	lea    0x10823(%rip),%rdx        # 1c170 <_ZTVN3MPI7RequestE+0x10>
    b94d:	48 8b 45 f8          	mov    -0x8(%rbp),%rax
    b951:	48 89 10             	mov    %rdx,(%rax)
    b954:	90                   	nop
    b955:	5d                   	pop    %rbp
    b956:	c3                   	ret    
    b957:	90                   	nop

000000000000b958 <_ZN3MPI7RequestD0Ev>:
    b958:	f3 0f 1e fa          	endbr64 
    b95c:	55                   	push   %rbp
    b95d:	48 89 e5             	mov    %rsp,%rbp
    b960:	48 83 ec 10          	sub    $0x10,%rsp
    b964:	48 89 7d f8          	mov    %rdi,-0x8(%rbp)
    b968:	48 8b 45 f8          	mov    -0x8(%rbp),%rax
    b96c:	48 89 c7             	mov    %rax,%rdi
    b96f:	e8 c6 ff ff ff       	call   b93a <_ZN3MPI7RequestD1Ev>
    b974:	48 8b 45 f8          	mov    -0x8(%rbp),%rax
    b978:	be 10 00 00 00       	mov    $0x10,%esi
    b97d:	48 89 c7             	mov    %rax,%rdi
    b980:	e8 6b ea ff ff       	call   a3f0 <_ZdlPvm@plt>
    b985:	c9                   	leave  
    b986:	c3                   	ret    
    b987:	90                   	nop

000000000000b988 <_ZN3MPI7RequestC1EP14ompi_request_t>:
    b988:	f3 0f 1e fa          	endbr64 
    b98c:	55                   	push   %rbp
    b98d:	48 89 e5             	mov    %rsp,%rbp
    b990:	48 89 7d f8          	mov    %rdi,-0x8(%rbp)
    b994:	48 89 75 f0          	mov    %rsi,-0x10(%rbp)
    b998:	48 8d 15 d1 07 01 00 	lea    0x107d1(%rip),%rdx        # 1c170 <_ZTVN3MPI7RequestE+0x10>
    b99f:	48 8b 45 f8          	mov    -0x8(%rbp),%rax
    b9a3:	48 89 10             	mov    %rdx,(%rax)
    b9a6:	48 8b 45 f8          	mov    -0x8(%rbp),%rax
    b9aa:	48 8b 55 f0          	mov    -0x10(%rbp),%rdx
    b9ae:	48 89 50 08          	mov    %rdx,0x8(%rax)
    b9b2:	90                   	nop
    b9b3:	5d                   	pop    %rbp
    b9b4:	c3                   	ret    
    b9b5:	90                   	nop

000000000000b9b6 <_ZN3MPI8PrequestC1ERKP14ompi_request_t>:
    b9b6:	f3 0f 1e fa          	endbr64 
    b9ba:	55                   	push   %rbp
    b9bb:	48 89 e5             	mov    %rsp,%rbp
    b9be:	48 83 ec 10          	sub    $0x10,%rsp
    b9c2:	48 89 7d f8          	mov    %rdi,-0x8(%rbp)
    b9c6:	48 89 75 f0          	mov    %rsi,-0x10(%rbp)
    b9ca:	48 8b 45 f8          	mov    -0x8(%rbp),%rax
    b9ce:	48 8b 55 f0          	mov    -0x10(%rbp),%rdx
    b9d2:	48 8b 12             	mov    (%rdx),%rdx
    b9d5:	48 89 d6             	mov    %rdx,%rsi
    b9d8:	48 89 c7             	mov    %rax,%rdi
    b9db:	e8 a8 ff ff ff       	call   b988 <_ZN3MPI7RequestC1EP14ompi_request_t>
    b9e0:	48 8d 15 21 07 01 00 	lea    0x10721(%rip),%rdx        # 1c108 <_ZTVN3MPI8PrequestE+0x10>
    b9e7:	48 8b 45 f8          	mov    -0x8(%rbp),%rax
    b9eb:	48 89 10             	mov    %rdx,(%rax)
    b9ee:	90                   	nop
    b9ef:	c9                   	leave  
    b9f0:	c3                   	ret    
    b9f1:	90                   	nop

000000000000b9f2 <_ZN3MPI8PrequestD1Ev>:
    b9f2:	f3 0f 1e fa          	endbr64 
    b9f6:	55                   	push   %rbp
    b9f7:	48 89 e5             	mov    %rsp,%rbp
    b9fa:	48 83 ec 10          	sub    $0x10,%rsp
    b9fe:	48 89 7d f8          	mov    %rdi,-0x8(%rbp)
    ba02:	48 8d 15 ff 06 01 00 	lea    0x106ff(%rip),%rdx        # 1c108 <_ZTVN3MPI8PrequestE+0x10>
    ba09:	48 8b 45 f8          	mov    -0x8(%rbp),%rax
    ba0d:	48 89 10             	mov    %rdx,(%rax)
    ba10:	48 8b 45 f8          	mov    -0x8(%rbp),%rax
    ba14:	48 89 c7             	mov    %rax,%rdi
    ba17:	e8 1e ff ff ff       	call   b93a <_ZN3MPI7RequestD1Ev>
    ba1c:	90                   	nop
    ba1d:	c9                   	leave  
    ba1e:	c3                   	ret    
    ba1f:	90                   	nop

000000000000ba20 <_ZN3MPI8PrequestD0Ev>:
    ba20:	f3 0f 1e fa          	endbr64 
    ba24:	55                   	push   %rbp
    ba25:	48 89 e5             	mov    %rsp,%rbp
    ba28:	48 83 ec 10          	sub    $0x10,%rsp
    ba2c:	48 89 7d f8          	mov    %rdi,-0x8(%rbp)
    ba30:	48 8b 45 f8          	mov    -0x8(%rbp),%rax
    ba34:	48 89 c7             	mov    %rax,%rdi
    ba37:	e8 b6 ff ff ff       	call   b9f2 <_ZN3MPI8PrequestD1Ev>
    ba3c:	48 8b 45 f8          	mov    -0x8(%rbp),%rax
    ba40:	be 10 00 00 00       	mov    $0x10,%esi
    ba45:	48 89 c7             	mov    %rax,%rdi
    ba48:	e8 a3 e9 ff ff       	call   a3f0 <_ZdlPvm@plt>
    ba4d:	c9                   	leave  
    ba4e:	c3                   	ret    
    ba4f:	90                   	nop

000000000000ba50 <_ZN3MPI8GrequestD1Ev>:
    ba50:	f3 0f 1e fa          	endbr64 
    ba54:	55                   	push   %rbp
    ba55:	48 89 e5             	mov    %rsp,%rbp
    ba58:	48 83 ec 10          	sub    $0x10,%rsp
    ba5c:	48 89 7d f8          	mov    %rdi,-0x8(%rbp)
    ba60:	48 8d 15 39 06 01 00 	lea    0x10639(%rip),%rdx        # 1c0a0 <_ZTVN3MPI8GrequestE+0x10>
    ba67:	48 8b 45 f8          	mov    -0x8(%rbp),%rax
    ba6b:	48 89 10             	mov    %rdx,(%rax)
    ba6e:	48 8b 45 f8          	mov    -0x8(%rbp),%rax
    ba72:	48 89 c7             	mov    %rax,%rdi
    ba75:	e8 c0 fe ff ff       	call   b93a <_ZN3MPI7RequestD1Ev>
    ba7a:	90                   	nop
    ba7b:	c9                   	leave  
    ba7c:	c3                   	ret    
    ba7d:	90                   	nop

000000000000ba7e <_ZN3MPI8GrequestD0Ev>:
    ba7e:	f3 0f 1e fa          	endbr64 
    ba82:	55                   	push   %rbp
    ba83:	48 89 e5             	mov    %rsp,%rbp
    ba86:	48 83 ec 10          	sub    $0x10,%rsp
    ba8a:	48 89 7d f8          	mov    %rdi,-0x8(%rbp)
    ba8e:	48 8b 45 f8          	mov    -0x8(%rbp),%rax
    ba92:	48 89 c7             	mov    %rax,%rdi
    ba95:	e8 b6 ff ff ff       	call   ba50 <_ZN3MPI8GrequestD1Ev>
    ba9a:	48 8b 45 f8          	mov    -0x8(%rbp),%rax
    ba9e:	be 10 00 00 00       	mov    $0x10,%esi
    baa3:	48 89 c7             	mov    %rax,%rdi
    baa6:	e8 45 e9 ff ff       	call   a3f0 <_ZdlPvm@plt>
    baab:	c9                   	leave  
    baac:	c3                   	ret    
    baad:	90                   	nop

000000000000baae <_ZN3MPI5GroupC1EP12ompi_group_t>:
    baae:	f3 0f 1e fa          	endbr64 
    bab2:	55                   	push   %rbp
    bab3:	48 89 e5             	mov    %rsp,%rbp
    bab6:	48 89 7d f8          	mov    %rdi,-0x8(%rbp)
    baba:	48 89 75 f0          	mov    %rsi,-0x10(%rbp)
    babe:	48 8d 15 83 fc 00 00 	lea    0xfc83(%rip),%rdx        # 1b748 <_ZTVN3MPI5GroupE+0x10>
    bac5:	48 8b 45 f8          	mov    -0x8(%rbp),%rax
    bac9:	48 89 10             	mov    %rdx,(%rax)
    bacc:	48 8b 45 f8          	mov    -0x8(%rbp),%rax
    bad0:	48 8b 55 f0          	mov    -0x10(%rbp),%rdx
    bad4:	48 89 50 08          	mov    %rdx,0x8(%rax)
    bad8:	90                   	nop
    bad9:	5d                   	pop    %rbp
    bada:	c3                   	ret    
    badb:	90                   	nop

000000000000badc <_ZN3MPI5GroupD1Ev>:
    badc:	f3 0f 1e fa          	endbr64 
    bae0:	55                   	push   %rbp
    bae1:	48 89 e5             	mov    %rsp,%rbp
    bae4:	48 89 7d f8          	mov    %rdi,-0x8(%rbp)
    bae8:	48 8d 15 59 fc 00 00 	lea    0xfc59(%rip),%rdx        # 1b748 <_ZTVN3MPI5GroupE+0x10>
    baef:	48 8b 45 f8          	mov    -0x8(%rbp),%rax
    baf3:	48 89 10             	mov    %rdx,(%rax)
    baf6:	90                   	nop
    baf7:	5d                   	pop    %rbp
    baf8:	c3                   	ret    
    baf9:	90                   	nop

000000000000bafa <_ZN3MPI5GroupD0Ev>:
    bafa:	f3 0f 1e fa          	endbr64 
    bafe:	55                   	push   %rbp
    baff:	48 89 e5             	mov    %rsp,%rbp
    bb02:	48 83 ec 10          	sub    $0x10,%rsp
    bb06:	48 89 7d f8          	mov    %rdi,-0x8(%rbp)
    bb0a:	48 8b 45 f8          	mov    -0x8(%rbp),%rax
    bb0e:	48 89 c7             	mov    %rax,%rdi
    bb11:	e8 c6 ff ff ff       	call   badc <_ZN3MPI5GroupD1Ev>
    bb16:	48 8b 45 f8          	mov    -0x8(%rbp),%rax
    bb1a:	be 10 00 00 00       	mov    $0x10,%esi
    bb1f:	48 89 c7             	mov    %rax,%rdi
    bb22:	e8 c9 e8 ff ff       	call   a3f0 <_ZdlPvm@plt>
    bb27:	c9                   	leave  
    bb28:	c3                   	ret    
    bb29:	90                   	nop

000000000000bb2a <_ZNK3MPI5GroupcvP12ompi_group_tEv>:
    bb2a:	f3 0f 1e fa          	endbr64 
    bb2e:	55                   	push   %rbp
    bb2f:	48 89 e5             	mov    %rsp,%rbp
    bb32:	48 89 7d f8          	mov    %rdi,-0x8(%rbp)
    bb36:	48 8b 45 f8          	mov    -0x8(%rbp),%rax
    bb3a:	48 8b 40 08          	mov    0x8(%rax),%rax
    bb3e:	5d                   	pop    %rbp
    bb3f:	c3                   	ret    

000000000000bb40 <_ZN3MPI9Comm_NullC1EP19ompi_communicator_t>:
    bb40:	f3 0f 1e fa          	endbr64 
    bb44:	55                   	push   %rbp
    bb45:	48 89 e5             	mov    %rsp,%rbp
    bb48:	48 89 7d f8          	mov    %rdi,-0x8(%rbp)
    bb4c:	48 89 75 f0          	mov    %rsi,-0x10(%rbp)
    bb50:	48 8d 15 79 06 01 00 	lea    0x10679(%rip),%rdx        # 1c1d0 <_ZTVN3MPI9Comm_NullE+0x10>
    bb57:	48 8b 45 f8          	mov    -0x8(%rbp),%rax
    bb5b:	48 89 10             	mov    %rdx,(%rax)
    bb5e:	48 8b 45 f8          	mov    -0x8(%rbp),%rax
    bb62:	48 8b 55 f0          	mov    -0x10(%rbp),%rdx
    bb66:	48 89 50 08          	mov    %rdx,0x8(%rax)
    bb6a:	90                   	nop
    bb6b:	5d                   	pop    %rbp
    bb6c:	c3                   	ret    
    bb6d:	90                   	nop

000000000000bb6e <_ZN3MPI9Comm_NullD1Ev>:
    bb6e:	f3 0f 1e fa          	endbr64 
    bb72:	55                   	push   %rbp
    bb73:	48 89 e5             	mov    %rsp,%rbp
    bb76:	48 89 7d f8          	mov    %rdi,-0x8(%rbp)
    bb7a:	48 8d 15 4f 06 01 00 	lea    0x1064f(%rip),%rdx        # 1c1d0 <_ZTVN3MPI9Comm_NullE+0x10>
    bb81:	48 8b 45 f8          	mov    -0x8(%rbp),%rax
    bb85:	48 89 10             	mov    %rdx,(%rax)
    bb88:	90                   	nop
    bb89:	5d                   	pop    %rbp
    bb8a:	c3                   	ret    
    bb8b:	90                   	nop

000000000000bb8c <_ZN3MPI9Comm_NullD0Ev>:
    bb8c:	f3 0f 1e fa          	endbr64 
    bb90:	55                   	push   %rbp
    bb91:	48 89 e5             	mov    %rsp,%rbp
    bb94:	48 83 ec 10          	sub    $0x10,%rsp
    bb98:	48 89 7d f8          	mov    %rdi,-0x8(%rbp)
    bb9c:	48 8b 45 f8          	mov    -0x8(%rbp),%rax
    bba0:	48 89 c7             	mov    %rax,%rdi
    bba3:	e8 c6 ff ff ff       	call   bb6e <_ZN3MPI9Comm_NullD1Ev>
    bba8:	48 8b 45 f8          	mov    -0x8(%rbp),%rax
    bbac:	be 10 00 00 00       	mov    $0x10,%esi
    bbb1:	48 89 c7             	mov    %rax,%rdi
    bbb4:	e8 37 e8 ff ff       	call   a3f0 <_ZdlPvm@plt>
    bbb9:	c9                   	leave  
    bbba:	c3                   	ret    
    bbbb:	90                   	nop

000000000000bbbc <_ZNK3MPI9Comm_NullcvP19ompi_communicator_tEv>:
    bbbc:	f3 0f 1e fa          	endbr64 
    bbc0:	55                   	push   %rbp
    bbc1:	48 89 e5             	mov    %rsp,%rbp
    bbc4:	48 89 7d f8          	mov    %rdi,-0x8(%rbp)
    bbc8:	48 8b 45 f8          	mov    -0x8(%rbp),%rax
    bbcc:	48 8b 40 08          	mov    0x8(%rax),%rax
    bbd0:	5d                   	pop    %rbp
    bbd1:	c3                   	ret    

000000000000bbd2 <_ZN3MPI4CommC1EP19ompi_communicator_t>:
    bbd2:	f3 0f 1e fa          	endbr64 
    bbd6:	55                   	push   %rbp
    bbd7:	48 89 e5             	mov    %rsp,%rbp
    bbda:	48 83 ec 10          	sub    $0x10,%rsp
    bbde:	48 89 7d f8          	mov    %rdi,-0x8(%rbp)
    bbe2:	48 89 75 f0          	mov    %rsi,-0x10(%rbp)
    bbe6:	48 8b 45 f8          	mov    -0x8(%rbp),%rax
    bbea:	48 8b 55 f0          	mov    -0x10(%rbp),%rdx
    bbee:	48 89 d6             	mov    %rdx,%rsi
    bbf1:	48 89 c7             	mov    %rax,%rdi
    bbf4:	e8 47 ff ff ff       	call   bb40 <_ZN3MPI9Comm_NullC1EP19ompi_communicator_t>
    bbf9:	48 8d 15 b0 06 01 00 	lea    0x106b0(%rip),%rdx        # 1c2b0 <_ZTVN3MPI4CommE+0x10>
    bc00:	48 8b 45 f8          	mov    -0x8(%rbp),%rax
    bc04:	48 89 10             	mov    %rdx,(%rax)
    bc07:	90                   	nop
    bc08:	c9                   	leave  
    bc09:	c3                   	ret    

000000000000bc0a <_ZN3MPI3WinD1Ev>:
    bc0a:	f3 0f 1e fa          	endbr64 
    bc0e:	55                   	push   %rbp
    bc0f:	48 89 e5             	mov    %rsp,%rbp
    bc12:	48 89 7d f8          	mov    %rdi,-0x8(%rbp)
    bc16:	48 8d 15 d3 05 01 00 	lea    0x105d3(%rip),%rdx        # 1c1f0 <_ZTVN3MPI3WinE+0x10>
    bc1d:	48 8b 45 f8          	mov    -0x8(%rbp),%rax
    bc21:	48 89 10             	mov    %rdx,(%rax)
    bc24:	90                   	nop
    bc25:	5d                   	pop    %rbp
    bc26:	c3                   	ret    
    bc27:	90                   	nop

000000000000bc28 <_ZN3MPI3WinD0Ev>:
    bc28:	f3 0f 1e fa          	endbr64 
    bc2c:	55                   	push   %rbp
    bc2d:	48 89 e5             	mov    %rsp,%rbp
    bc30:	48 83 ec 10          	sub    $0x10,%rsp
    bc34:	48 89 7d f8          	mov    %rdi,-0x8(%rbp)
    bc38:	48 8b 45 f8          	mov    -0x8(%rbp),%rax
    bc3c:	48 89 c7             	mov    %rax,%rdi
    bc3f:	e8 c6 ff ff ff       	call   bc0a <_ZN3MPI3WinD1Ev>
    bc44:	48 8b 45 f8          	mov    -0x8(%rbp),%rax
    bc48:	be 10 00 00 00       	mov    $0x10,%esi
    bc4d:	48 89 c7             	mov    %rax,%rdi
    bc50:	e8 9b e7 ff ff       	call   a3f0 <_ZdlPvm@plt>
    bc55:	c9                   	leave  
    bc56:	c3                   	ret    
    bc57:	90                   	nop

000000000000bc58 <_ZN3MPI10ErrhandlerD1Ev>:
    bc58:	f3 0f 1e fa          	endbr64 
    bc5c:	55                   	push   %rbp
    bc5d:	48 89 e5             	mov    %rsp,%rbp
    bc60:	48 89 7d f8          	mov    %rdi,-0x8(%rbp)
    bc64:	48 8d 15 75 fa 00 00 	lea    0xfa75(%rip),%rdx        # 1b6e0 <_ZTVN3MPI10ErrhandlerE+0x10>
    bc6b:	48 8b 45 f8          	mov    -0x8(%rbp),%rax
    bc6f:	48 89 10             	mov    %rdx,(%rax)
    bc72:	90                   	nop
    bc73:	5d                   	pop    %rbp
    bc74:	c3                   	ret    
    bc75:	90                   	nop

000000000000bc76 <_ZN3MPI10ErrhandlerD0Ev>:
    bc76:	f3 0f 1e fa          	endbr64 
    bc7a:	55                   	push   %rbp
    bc7b:	48 89 e5             	mov    %rsp,%rbp
    bc7e:	48 83 ec 10          	sub    $0x10,%rsp
    bc82:	48 89 7d f8          	mov    %rdi,-0x8(%rbp)
    bc86:	48 8b 45 f8          	mov    -0x8(%rbp),%rax
    bc8a:	48 89 c7             	mov    %rax,%rdi
    bc8d:	e8 c6 ff ff ff       	call   bc58 <_ZN3MPI10ErrhandlerD1Ev>
    bc92:	48 8b 45 f8          	mov    -0x8(%rbp),%rax
    bc96:	be 10 00 00 00       	mov    $0x10,%esi
    bc9b:	48 89 c7             	mov    %rax,%rdi
    bc9e:	e8 4d e7 ff ff       	call   a3f0 <_ZdlPvm@plt>
    bca3:	c9                   	leave  
    bca4:	c3                   	ret    
    bca5:	90                   	nop

000000000000bca6 <_ZN3MPI10ErrhandlerC1EP17ompi_errhandler_t>:
    bca6:	f3 0f 1e fa          	endbr64 
    bcaa:	55                   	push   %rbp
    bcab:	48 89 e5             	mov    %rsp,%rbp
    bcae:	48 89 7d f8          	mov    %rdi,-0x8(%rbp)
    bcb2:	48 89 75 f0          	mov    %rsi,-0x10(%rbp)
    bcb6:	48 8d 15 23 fa 00 00 	lea    0xfa23(%rip),%rdx        # 1b6e0 <_ZTVN3MPI10ErrhandlerE+0x10>
    bcbd:	48 8b 45 f8          	mov    -0x8(%rbp),%rax
    bcc1:	48 89 10             	mov    %rdx,(%rax)
    bcc4:	48 8b 45 f8          	mov    -0x8(%rbp),%rax
    bcc8:	48 8b 55 f0          	mov    -0x10(%rbp),%rdx
    bccc:	48 89 50 08          	mov    %rdx,0x8(%rax)
    bcd0:	90                   	nop
    bcd1:	5d                   	pop    %rbp
    bcd2:	c3                   	ret    
    bcd3:	90                   	nop

000000000000bcd4 <_ZNK3MPI10ErrhandlercvP17ompi_errhandler_tEv>:
    bcd4:	f3 0f 1e fa          	endbr64 
    bcd8:	55                   	push   %rbp
    bcd9:	48 89 e5             	mov    %rsp,%rbp
    bcdc:	48 89 7d f8          	mov    %rdi,-0x8(%rbp)
    bce0:	48 8b 45 f8          	mov    -0x8(%rbp),%rax
    bce4:	48 8b 40 08          	mov    0x8(%rax),%rax
    bce8:	5d                   	pop    %rbp
    bce9:	c3                   	ret    

000000000000bcea <_ZN3MPI4CommD1Ev>:
    bcea:	f3 0f 1e fa          	endbr64 
    bcee:	55                   	push   %rbp
    bcef:	48 89 e5             	mov    %rsp,%rbp
    bcf2:	48 83 ec 10          	sub    $0x10,%rsp
    bcf6:	48 89 7d f8          	mov    %rdi,-0x8(%rbp)
    bcfa:	48 8d 15 af 05 01 00 	lea    0x105af(%rip),%rdx        # 1c2b0 <_ZTVN3MPI4CommE+0x10>
    bd01:	48 8b 45 f8          	mov    -0x8(%rbp),%rax
    bd05:	48 89 10             	mov    %rdx,(%rax)
    bd08:	48 8b 45 f8          	mov    -0x8(%rbp),%rax
    bd0c:	48 89 c7             	mov    %rax,%rdi
    bd0f:	e8 5a fe ff ff       	call   bb6e <_ZN3MPI9Comm_NullD1Ev>
    bd14:	90                   	nop
    bd15:	c9                   	leave  
    bd16:	c3                   	ret    
    bd17:	90                   	nop

000000000000bd18 <_ZN3MPI4CommD0Ev>:
    bd18:	f3 0f 1e fa          	endbr64 
    bd1c:	55                   	push   %rbp
    bd1d:	48 89 e5             	mov    %rsp,%rbp
    bd20:	48 83 ec 10          	sub    $0x10,%rsp
    bd24:	48 89 7d f8          	mov    %rdi,-0x8(%rbp)
    bd28:	48 8b 45 f8          	mov    -0x8(%rbp),%rax
    bd2c:	48 89 c7             	mov    %rax,%rdi
    bd2f:	e8 b6 ff ff ff       	call   bcea <_ZN3MPI4CommD1Ev>
    bd34:	48 8b 45 f8          	mov    -0x8(%rbp),%rax
    bd38:	be 10 00 00 00       	mov    $0x10,%esi
    bd3d:	48 89 c7             	mov    %rax,%rdi
    bd40:	e8 ab e6 ff ff       	call   a3f0 <_ZdlPvm@plt>
    bd45:	c9                   	leave  
    bd46:	c3                   	ret    
    bd47:	90                   	nop

000000000000bd48 <_ZN3MPI9IntracommC1Ev>:
    bd48:	f3 0f 1e fa          	endbr64 
    bd4c:	55                   	push   %rbp
    bd4d:	48 89 e5             	mov    %rsp,%rbp
    bd50:	48 83 ec 10          	sub    $0x10,%rsp
    bd54:	48 89 7d f8          	mov    %rdi,-0x8(%rbp)
    bd58:	48 8b 45 f8          	mov    -0x8(%rbp),%rax
    bd5c:	48 89 c7             	mov    %rax,%rdi
    bd5f:	e8 2c e3 ff ff       	call   a090 <_ZN3MPI4CommC2Ev@plt>
    bd64:	48 8d 15 fd 00 01 00 	lea    0x100fd(%rip),%rdx        # 1be68 <_ZTVN3MPI9IntracommE+0x10>
    bd6b:	48 8b 45 f8          	mov    -0x8(%rbp),%rax
    bd6f:	48 89 10             	mov    %rdx,(%rax)
    bd72:	90                   	nop
    bd73:	c9                   	leave  
    bd74:	c3                   	ret    
    bd75:	90                   	nop

000000000000bd76 <_ZN3MPI9IntracommD1Ev>:
    bd76:	f3 0f 1e fa          	endbr64 
    bd7a:	55                   	push   %rbp
    bd7b:	48 89 e5             	mov    %rsp,%rbp
    bd7e:	48 83 ec 10          	sub    $0x10,%rsp
    bd82:	48 89 7d f8          	mov    %rdi,-0x8(%rbp)
    bd86:	48 8d 15 db 00 01 00 	lea    0x100db(%rip),%rdx        # 1be68 <_ZTVN3MPI9IntracommE+0x10>
    bd8d:	48 8b 45 f8          	mov    -0x8(%rbp),%rax
    bd91:	48 89 10             	mov    %rdx,(%rax)
    bd94:	48 8b 45 f8          	mov    -0x8(%rbp),%rax
    bd98:	48 89 c7             	mov    %rax,%rdi
    bd9b:	e8 4a ff ff ff       	call   bcea <_ZN3MPI4CommD1Ev>
    bda0:	90                   	nop
    bda1:	c9                   	leave  
    bda2:	c3                   	ret    
    bda3:	90                   	nop

000000000000bda4 <_ZN3MPI9IntracommD0Ev>:
    bda4:	f3 0f 1e fa          	endbr64 
    bda8:	55                   	push   %rbp
    bda9:	48 89 e5             	mov    %rsp,%rbp
    bdac:	48 83 ec 10          	sub    $0x10,%rsp
    bdb0:	48 89 7d f8          	mov    %rdi,-0x8(%rbp)
    bdb4:	48 8b 45 f8          	mov    -0x8(%rbp),%rax
    bdb8:	48 89 c7             	mov    %rax,%rdi
    bdbb:	e8 b6 ff ff ff       	call   bd76 <_ZN3MPI9IntracommD1Ev>
    bdc0:	48 8b 45 f8          	mov    -0x8(%rbp),%rax
    bdc4:	be 10 00 00 00       	mov    $0x10,%esi
    bdc9:	48 89 c7             	mov    %rax,%rdi
    bdcc:	e8 1f e6 ff ff       	call   a3f0 <_ZdlPvm@plt>
    bdd1:	c9                   	leave  
    bdd2:	c3                   	ret    
    bdd3:	90                   	nop

000000000000bdd4 <_ZN3MPI9IntercommC1EP19ompi_communicator_t>:
    bdd4:	f3 0f 1e fa          	endbr64 
    bdd8:	55                   	push   %rbp
    bdd9:	48 89 e5             	mov    %rsp,%rbp
    bddc:	48 83 ec 10          	sub    $0x10,%rsp
    bde0:	48 89 7d f8          	mov    %rdi,-0x8(%rbp)
    bde4:	48 89 75 f0          	mov    %rsi,-0x10(%rbp)
    bde8:	48 8b 45 f8          	mov    -0x8(%rbp),%rax
    bdec:	48 8b 55 f0          	mov    -0x10(%rbp),%rdx
    bdf0:	48 89 d6             	mov    %rdx,%rsi
    bdf3:	48 89 c7             	mov    %rax,%rdi
    bdf6:	e8 d7 fd ff ff       	call   bbd2 <_ZN3MPI4CommC1EP19ompi_communicator_t>
    bdfb:	48 8d 15 9e f9 00 00 	lea    0xf99e(%rip),%rdx        # 1b7a0 <_ZTVN3MPI9IntercommE+0x10>
    be02:	48 8b 45 f8          	mov    -0x8(%rbp),%rax
    be06:	48 89 10             	mov    %rdx,(%rax)
    be09:	90                   	nop
    be0a:	c9                   	leave  
    be0b:	c3                   	ret    

000000000000be0c <_ZN3MPI4InfoC1EP11ompi_info_t>:
    be0c:	f3 0f 1e fa          	endbr64 
    be10:	55                   	push   %rbp
    be11:	48 89 e5             	mov    %rsp,%rbp
    be14:	48 89 7d f8          	mov    %rdi,-0x8(%rbp)
    be18:	48 89 75 f0          	mov    %rsi,-0x10(%rbp)
    be1c:	48 8d 15 e5 f7 00 00 	lea    0xf7e5(%rip),%rdx        # 1b608 <_ZTVN3MPI4InfoE+0x10>
    be23:	48 8b 45 f8          	mov    -0x8(%rbp),%rax
    be27:	48 89 10             	mov    %rdx,(%rax)
    be2a:	48 8b 45 f8          	mov    -0x8(%rbp),%rax
    be2e:	48 8b 55 f0          	mov    -0x10(%rbp),%rdx
    be32:	48 89 50 08          	mov    %rdx,0x8(%rax)
    be36:	90                   	nop
    be37:	5d                   	pop    %rbp
    be38:	c3                   	ret    
    be39:	90                   	nop

000000000000be3a <_ZN3MPI4InfoD1Ev>:
    be3a:	f3 0f 1e fa          	endbr64 
    be3e:	55                   	push   %rbp
    be3f:	48 89 e5             	mov    %rsp,%rbp
    be42:	48 89 7d f8          	mov    %rdi,-0x8(%rbp)
    be46:	48 8d 15 bb f7 00 00 	lea    0xf7bb(%rip),%rdx        # 1b608 <_ZTVN3MPI4InfoE+0x10>
    be4d:	48 8b 45 f8          	mov    -0x8(%rbp),%rax
    be51:	48 89 10             	mov    %rdx,(%rax)
    be54:	90                   	nop
    be55:	5d                   	pop    %rbp
    be56:	c3                   	ret    
    be57:	90                   	nop

000000000000be58 <_ZN3MPI4InfoD0Ev>:
    be58:	f3 0f 1e fa          	endbr64 
    be5c:	55                   	push   %rbp
    be5d:	48 89 e5             	mov    %rsp,%rbp
    be60:	48 83 ec 10          	sub    $0x10,%rsp
    be64:	48 89 7d f8          	mov    %rdi,-0x8(%rbp)
    be68:	48 8b 45 f8          	mov    -0x8(%rbp),%rax
    be6c:	48 89 c7             	mov    %rax,%rdi
    be6f:	e8 c6 ff ff ff       	call   be3a <_ZN3MPI4InfoD1Ev>
    be74:	48 8b 45 f8          	mov    -0x8(%rbp),%rax
    be78:	be 10 00 00 00       	mov    $0x10,%esi
    be7d:	48 89 c7             	mov    %rax,%rdi
    be80:	e8 6b e5 ff ff       	call   a3f0 <_ZdlPvm@plt>
    be85:	c9                   	leave  
    be86:	c3                   	ret    
    be87:	90                   	nop

000000000000be88 <_ZNK3MPI4InfocvP11ompi_info_tEv>:
    be88:	f3 0f 1e fa          	endbr64 
    be8c:	55                   	push   %rbp
    be8d:	48 89 e5             	mov    %rsp,%rbp
    be90:	48 89 7d f8          	mov    %rdi,-0x8(%rbp)
    be94:	48 8b 45 f8          	mov    -0x8(%rbp),%rax
    be98:	48 8b 40 08          	mov    0x8(%rax),%rax
    be9c:	5d                   	pop    %rbp
    be9d:	c3                   	ret    

000000000000be9e <_ZNK3MPI8Datatype17Create_contiguousEi>:
    be9e:	f3 0f 1e fa          	endbr64 
    bea2:	55                   	push   %rbp
    bea3:	48 89 e5             	mov    %rsp,%rbp
    bea6:	48 83 ec 30          	sub    $0x30,%rsp
    beaa:	48 89 7d e8          	mov    %rdi,-0x18(%rbp)
    beae:	48 89 75 e0          	mov    %rsi,-0x20(%rbp)
    beb2:	89 55 dc             	mov    %edx,-0x24(%rbp)
    beb5:	64 48 8b 04 25 28 00 	mov    %fs:0x28,%rax
    bebc:	00 00 
    bebe:	48 89 45 f8          	mov    %rax,-0x8(%rbp)
    bec2:	31 c0                	xor    %eax,%eax
    bec4:	48 8b 45 e0          	mov    -0x20(%rbp),%rax
    bec8:	48 8b 48 08          	mov    0x8(%rax),%rcx
    becc:	48 8d 55 f0          	lea    -0x10(%rbp),%rdx
    bed0:	8b 45 dc             	mov    -0x24(%rbp),%eax
    bed3:	48 89 ce             	mov    %rcx,%rsi
    bed6:	89 c7                	mov    %eax,%edi
    bed8:	e8 33 e2 ff ff       	call   a110 <MPI_Type_contiguous@plt>
    bedd:	48 8b 55 f0          	mov    -0x10(%rbp),%rdx
    bee1:	48 8b 45 e8          	mov    -0x18(%rbp),%rax
    bee5:	48 89 d6             	mov    %rdx,%rsi
    bee8:	48 89 c7             	mov    %rax,%rdi
    beeb:	e8 5c f9 ff ff       	call   b84c <_ZN3MPI8DatatypeC1EP15ompi_datatype_t>
    bef0:	48 8b 45 f8          	mov    -0x8(%rbp),%rax
    bef4:	64 48 2b 04 25 28 00 	sub    %fs:0x28,%rax
    befb:	00 00 
    befd:	74 05                	je     bf04 <_ZNK3MPI8Datatype17Create_contiguousEi+0x66>
    beff:	e8 cc e5 ff ff       	call   a4d0 <__stack_chk_fail@plt>
    bf04:	48 8b 45 e8          	mov    -0x18(%rbp),%rax
    bf08:	c9                   	leave  
    bf09:	c3                   	ret    

000000000000bf0a <_ZNK3MPI8Datatype13Create_vectorEiii>:
    bf0a:	f3 0f 1e fa          	endbr64 
    bf0e:	55                   	push   %rbp
    bf0f:	48 89 e5             	mov    %rsp,%rbp
    bf12:	48 83 ec 30          	sub    $0x30,%rsp
    bf16:	48 89 7d e8          	mov    %rdi,-0x18(%rbp)
    bf1a:	48 89 75 e0          	mov    %rsi,-0x20(%rbp)
    bf1e:	89 55 dc             	mov    %edx,-0x24(%rbp)
    bf21:	89 4d d8             	mov    %ecx,-0x28(%rbp)
    bf24:	44 89 45 d4          	mov    %r8d,-0x2c(%rbp)
    bf28:	64 48 8b 04 25 28 00 	mov    %fs:0x28,%rax
    bf2f:	00 00 
    bf31:	48 89 45 f8          	mov    %rax,-0x8(%rbp)
    bf35:	31 c0                	xor    %eax,%eax
    bf37:	48 8b 45 e0          	mov    -0x20(%rbp),%rax
    bf3b:	48 8b 48 08          	mov    0x8(%rax),%rcx
    bf3f:	48 8d 7d f0          	lea    -0x10(%rbp),%rdi
    bf43:	8b 55 d4             	mov    -0x2c(%rbp),%edx
    bf46:	8b 75 d8             	mov    -0x28(%rbp),%esi
    bf49:	8b 45 dc             	mov    -0x24(%rbp),%eax
    bf4c:	49 89 f8             	mov    %rdi,%r8
    bf4f:	89 c7                	mov    %eax,%edi
    bf51:	e8 8a e9 ff ff       	call   a8e0 <MPI_Type_vector@plt>
    bf56:	48 8b 55 f0          	mov    -0x10(%rbp),%rdx
    bf5a:	48 8b 45 e8          	mov    -0x18(%rbp),%rax
    bf5e:	48 89 d6             	mov    %rdx,%rsi
    bf61:	48 89 c7             	mov    %rax,%rdi
    bf64:	e8 e3 f8 ff ff       	call   b84c <_ZN3MPI8DatatypeC1EP15ompi_datatype_t>
    bf69:	48 8b 45 f8          	mov    -0x8(%rbp),%rax
    bf6d:	64 48 2b 04 25 28 00 	sub    %fs:0x28,%rax
    bf74:	00 00 
    bf76:	74 05                	je     bf7d <_ZNK3MPI8Datatype13Create_vectorEiii+0x73>
    bf78:	e8 53 e5 ff ff       	call   a4d0 <__stack_chk_fail@plt>
    bf7d:	48 8b 45 e8          	mov    -0x18(%rbp),%rax
    bf81:	c9                   	leave  
    bf82:	c3                   	ret    
    bf83:	90                   	nop

000000000000bf84 <_ZNK3MPI8Datatype14Create_indexedEiPKiS2_>:
    bf84:	f3 0f 1e fa          	endbr64 
    bf88:	55                   	push   %rbp
    bf89:	48 89 e5             	mov    %rsp,%rbp
    bf8c:	48 83 ec 40          	sub    $0x40,%rsp
    bf90:	48 89 7d e8          	mov    %rdi,-0x18(%rbp)
    bf94:	48 89 75 e0          	mov    %rsi,-0x20(%rbp)
    bf98:	89 55 dc             	mov    %edx,-0x24(%rbp)
    bf9b:	48 89 4d d0          	mov    %rcx,-0x30(%rbp)
    bf9f:	4c 89 45 c8          	mov    %r8,-0x38(%rbp)
    bfa3:	64 48 8b 04 25 28 00 	mov    %fs:0x28,%rax
    bfaa:	00 00 
    bfac:	48 89 45 f8          	mov    %rax,-0x8(%rbp)
    bfb0:	31 c0                	xor    %eax,%eax
    bfb2:	48 8b 45 e0          	mov    -0x20(%rbp),%rax
    bfb6:	48 8b 48 08          	mov    0x8(%rax),%rcx
    bfba:	48 8d 7d f0          	lea    -0x10(%rbp),%rdi
    bfbe:	48 8b 55 c8          	mov    -0x38(%rbp),%rdx
    bfc2:	48 8b 75 d0          	mov    -0x30(%rbp),%rsi
    bfc6:	8b 45 dc             	mov    -0x24(%rbp),%eax
    bfc9:	49 89 f8             	mov    %rdi,%r8
    bfcc:	89 c7                	mov    %eax,%edi
    bfce:	e8 3d e9 ff ff       	call   a910 <MPI_Type_indexed@plt>
    bfd3:	48 8b 55 f0          	mov    -0x10(%rbp),%rdx
    bfd7:	48 8b 45 e8          	mov    -0x18(%rbp),%rax
    bfdb:	48 89 d6             	mov    %rdx,%rsi
    bfde:	48 89 c7             	mov    %rax,%rdi
    bfe1:	e8 66 f8 ff ff       	call   b84c <_ZN3MPI8DatatypeC1EP15ompi_datatype_t>
    bfe6:	48 8b 45 f8          	mov    -0x8(%rbp),%rax
    bfea:	64 48 2b 04 25 28 00 	sub    %fs:0x28,%rax
    bff1:	00 00 
    bff3:	74 05                	je     bffa <_ZNK3MPI8Datatype14Create_indexedEiPKiS2_+0x76>
    bff5:	e8 d6 e4 ff ff       	call   a4d0 <__stack_chk_fail@plt>
    bffa:	48 8b 45 e8          	mov    -0x18(%rbp),%rax
    bffe:	c9                   	leave  
    bfff:	c3                   	ret    

000000000000c000 <_ZNK3MPI8Datatype15Create_hindexedEiPKiPKl>:
    c000:	f3 0f 1e fa          	endbr64 
    c004:	55                   	push   %rbp
    c005:	48 89 e5             	mov    %rsp,%rbp
    c008:	48 83 ec 40          	sub    $0x40,%rsp
    c00c:	48 89 7d e8          	mov    %rdi,-0x18(%rbp)
    c010:	48 89 75 e0          	mov    %rsi,-0x20(%rbp)
    c014:	89 55 dc             	mov    %edx,-0x24(%rbp)
    c017:	48 89 4d d0          	mov    %rcx,-0x30(%rbp)
    c01b:	4c 89 45 c8          	mov    %r8,-0x38(%rbp)
    c01f:	64 48 8b 04 25 28 00 	mov    %fs:0x28,%rax
    c026:	00 00 
    c028:	48 89 45 f8          	mov    %rax,-0x8(%rbp)
    c02c:	31 c0                	xor    %eax,%eax
    c02e:	48 8b 45 e0          	mov    -0x20(%rbp),%rax
    c032:	48 8b 48 08          	mov    0x8(%rax),%rcx
    c036:	48 8d 7d f0          	lea    -0x10(%rbp),%rdi
    c03a:	48 8b 55 c8          	mov    -0x38(%rbp),%rdx
    c03e:	48 8b 75 d0          	mov    -0x30(%rbp),%rsi
    c042:	8b 45 dc             	mov    -0x24(%rbp),%eax
    c045:	49 89 f8             	mov    %rdi,%r8
    c048:	89 c7                	mov    %eax,%edi
    c04a:	e8 b1 e4 ff ff       	call   a500 <MPI_Type_create_hindexed@plt>
    c04f:	48 8b 55 f0          	mov    -0x10(%rbp),%rdx
    c053:	48 8b 45 e8          	mov    -0x18(%rbp),%rax
    c057:	48 89 d6             	mov    %rdx,%rsi
    c05a:	48 89 c7             	mov    %rax,%rdi
    c05d:	e8 ea f7 ff ff       	call   b84c <_ZN3MPI8DatatypeC1EP15ompi_datatype_t>
    c062:	48 8b 45 f8          	mov    -0x8(%rbp),%rax
    c066:	64 48 2b 04 25 28 00 	sub    %fs:0x28,%rax
    c06d:	00 00 
    c06f:	74 05                	je     c076 <_ZNK3MPI8Datatype15Create_hindexedEiPKiPKl+0x76>
    c071:	e8 5a e4 ff ff       	call   a4d0 <__stack_chk_fail@plt>
    c076:	48 8b 45 e8          	mov    -0x18(%rbp),%rax
    c07a:	c9                   	leave  
    c07b:	c3                   	ret    

000000000000c07c <_ZNK3MPI8Datatype14Create_hvectorEiil>:
    c07c:	f3 0f 1e fa          	endbr64 
    c080:	55                   	push   %rbp
    c081:	48 89 e5             	mov    %rsp,%rbp
    c084:	48 83 ec 30          	sub    $0x30,%rsp
    c088:	48 89 7d e8          	mov    %rdi,-0x18(%rbp)
    c08c:	48 89 75 e0          	mov    %rsi,-0x20(%rbp)
    c090:	89 55 dc             	mov    %edx,-0x24(%rbp)
    c093:	89 4d d8             	mov    %ecx,-0x28(%rbp)
    c096:	4c 89 45 d0          	mov    %r8,-0x30(%rbp)
    c09a:	64 48 8b 04 25 28 00 	mov    %fs:0x28,%rax
    c0a1:	00 00 
    c0a3:	48 89 45 f8          	mov    %rax,-0x8(%rbp)
    c0a7:	31 c0                	xor    %eax,%eax
    c0a9:	48 8b 45 e0          	mov    -0x20(%rbp),%rax
    c0ad:	48 8b 48 08          	mov    0x8(%rax),%rcx
    c0b1:	48 8d 7d f0          	lea    -0x10(%rbp),%rdi
    c0b5:	48 8b 55 d0          	mov    -0x30(%rbp),%rdx
    c0b9:	8b 75 d8             	mov    -0x28(%rbp),%esi
    c0bc:	8b 45 dc             	mov    -0x24(%rbp),%eax
    c0bf:	49 89 f8             	mov    %rdi,%r8
    c0c2:	89 c7                	mov    %eax,%edi
    c0c4:	e8 77 de ff ff       	call   9f40 <MPI_Type_create_hvector@plt>
    c0c9:	48 8b 55 f0          	mov    -0x10(%rbp),%rdx
    c0cd:	48 8b 45 e8          	mov    -0x18(%rbp),%rax
    c0d1:	48 89 d6             	mov    %rdx,%rsi
    c0d4:	48 89 c7             	mov    %rax,%rdi
    c0d7:	e8 70 f7 ff ff       	call   b84c <_ZN3MPI8DatatypeC1EP15ompi_datatype_t>
    c0dc:	48 8b 45 f8          	mov    -0x8(%rbp),%rax
    c0e0:	64 48 2b 04 25 28 00 	sub    %fs:0x28,%rax
    c0e7:	00 00 
    c0e9:	74 05                	je     c0f0 <_ZNK3MPI8Datatype14Create_hvectorEiil+0x74>
    c0eb:	e8 e0 e3 ff ff       	call   a4d0 <__stack_chk_fail@plt>
    c0f0:	48 8b 45 e8          	mov    -0x18(%rbp),%rax
    c0f4:	c9                   	leave  
    c0f5:	c3                   	ret    

000000000000c0f6 <_ZNK3MPI8Datatype20Create_indexed_blockEiiPKi>:
    c0f6:	f3 0f 1e fa          	endbr64 
    c0fa:	55                   	push   %rbp
    c0fb:	48 89 e5             	mov    %rsp,%rbp
    c0fe:	48 83 ec 30          	sub    $0x30,%rsp
    c102:	48 89 7d e8          	mov    %rdi,-0x18(%rbp)
    c106:	48 89 75 e0          	mov    %rsi,-0x20(%rbp)
    c10a:	89 55 dc             	mov    %edx,-0x24(%rbp)
    c10d:	89 4d d8             	mov    %ecx,-0x28(%rbp)
    c110:	4c 89 45 d0          	mov    %r8,-0x30(%rbp)
    c114:	64 48 8b 04 25 28 00 	mov    %fs:0x28,%rax
    c11b:	00 00 
    c11d:	48 89 45 f8          	mov    %rax,-0x8(%rbp)
    c121:	31 c0                	xor    %eax,%eax
    c123:	48 8b 45 e0          	mov    -0x20(%rbp),%rax
    c127:	48 8b 48 08          	mov    0x8(%rax),%rcx
    c12b:	48 8d 7d f0          	lea    -0x10(%rbp),%rdi
    c12f:	48 8b 55 d0          	mov    -0x30(%rbp),%rdx
    c133:	8b 75 d8             	mov    -0x28(%rbp),%esi
    c136:	8b 45 dc             	mov    -0x24(%rbp),%eax
    c139:	49 89 f8             	mov    %rdi,%r8
    c13c:	89 c7                	mov    %eax,%edi
    c13e:	e8 6d e5 ff ff       	call   a6b0 <MPI_Type_create_indexed_block@plt>
    c143:	48 8b 55 f0          	mov    -0x10(%rbp),%rdx
    c147:	48 8b 45 e8          	mov    -0x18(%rbp),%rax
    c14b:	48 89 d6             	mov    %rdx,%rsi
    c14e:	48 89 c7             	mov    %rax,%rdi
    c151:	e8 f6 f6 ff ff       	call   b84c <_ZN3MPI8DatatypeC1EP15ompi_datatype_t>
    c156:	48 8b 45 f8          	mov    -0x8(%rbp),%rax
    c15a:	64 48 2b 04 25 28 00 	sub    %fs:0x28,%rax
    c161:	00 00 
    c163:	74 05                	je     c16a <_ZNK3MPI8Datatype20Create_indexed_blockEiiPKi+0x74>
    c165:	e8 66 e3 ff ff       	call   a4d0 <__stack_chk_fail@plt>
    c16a:	48 8b 45 e8          	mov    -0x18(%rbp),%rax
    c16e:	c9                   	leave  
    c16f:	c3                   	ret    

000000000000c170 <_ZNK3MPI8Datatype14Create_resizedEll>:
    c170:	f3 0f 1e fa          	endbr64 
    c174:	55                   	push   %rbp
    c175:	48 89 e5             	mov    %rsp,%rbp
    c178:	48 83 ec 30          	sub    $0x30,%rsp
    c17c:	48 89 7d e8          	mov    %rdi,-0x18(%rbp)
    c180:	48 89 75 e0          	mov    %rsi,-0x20(%rbp)
    c184:	48 89 55 d8          	mov    %rdx,-0x28(%rbp)
    c188:	48 89 4d d0          	mov    %rcx,-0x30(%rbp)
    c18c:	64 48 8b 04 25 28 00 	mov    %fs:0x28,%rax
    c193:	00 00 
    c195:	48 89 45 f8          	mov    %rax,-0x8(%rbp)
    c199:	31 c0                	xor    %eax,%eax
    c19b:	48 8b 45 e0          	mov    -0x20(%rbp),%rax
    c19f:	48 8b 40 08          	mov    0x8(%rax),%rax
    c1a3:	48 8d 4d f0          	lea    -0x10(%rbp),%rcx
    c1a7:	48 8b 55 d0          	mov    -0x30(%rbp),%rdx
    c1ab:	48 8b 75 d8          	mov    -0x28(%rbp),%rsi
    c1af:	48 89 c7             	mov    %rax,%rdi
    c1b2:	e8 b9 e7 ff ff       	call   a970 <MPI_Type_create_resized@plt>
    c1b7:	48 8b 55 f0          	mov    -0x10(%rbp),%rdx
    c1bb:	48 8b 45 e8          	mov    -0x18(%rbp),%rax
    c1bf:	48 89 d6             	mov    %rdx,%rsi
    c1c2:	48 89 c7             	mov    %rax,%rdi
    c1c5:	e8 82 f6 ff ff       	call   b84c <_ZN3MPI8DatatypeC1EP15ompi_datatype_t>
    c1ca:	48 8b 45 f8          	mov    -0x8(%rbp),%rax
    c1ce:	64 48 2b 04 25 28 00 	sub    %fs:0x28,%rax
    c1d5:	00 00 
    c1d7:	74 05                	je     c1de <_ZNK3MPI8Datatype14Create_resizedEll+0x6e>
    c1d9:	e8 f2 e2 ff ff       	call   a4d0 <__stack_chk_fail@plt>
    c1de:	48 8b 45 e8          	mov    -0x18(%rbp),%rax
    c1e2:	c9                   	leave  
    c1e3:	c3                   	ret    

000000000000c1e4 <_ZNK3MPI8Datatype8Get_sizeEv>:
    c1e4:	f3 0f 1e fa          	endbr64 
    c1e8:	55                   	push   %rbp
    c1e9:	48 89 e5             	mov    %rsp,%rbp
    c1ec:	48 83 ec 20          	sub    $0x20,%rsp
    c1f0:	48 89 7d e8          	mov    %rdi,-0x18(%rbp)
    c1f4:	64 48 8b 04 25 28 00 	mov    %fs:0x28,%rax
    c1fb:	00 00 
    c1fd:	48 89 45 f8          	mov    %rax,-0x8(%rbp)
    c201:	31 c0                	xor    %eax,%eax
    c203:	48 8b 45 e8          	mov    -0x18(%rbp),%rax
    c207:	48 8b 40 08          	mov    0x8(%rax),%rax
    c20b:	48 8d 55 f4          	lea    -0xc(%rbp),%rdx
    c20f:	48 89 d6             	mov    %rdx,%rsi
    c212:	48 89 c7             	mov    %rax,%rdi
    c215:	e8 b6 e3 ff ff       	call   a5d0 <MPI_Type_size@plt>
    c21a:	8b 45 f4             	mov    -0xc(%rbp),%eax
    c21d:	48 8b 55 f8          	mov    -0x8(%rbp),%rdx
    c221:	64 48 2b 14 25 28 00 	sub    %fs:0x28,%rdx
    c228:	00 00 
    c22a:	74 05                	je     c231 <_ZNK3MPI8Datatype8Get_sizeEv+0x4d>
    c22c:	e8 9f e2 ff ff       	call   a4d0 <__stack_chk_fail@plt>
    c231:	c9                   	leave  
    c232:	c3                   	ret    
    c233:	90                   	nop

000000000000c234 <_ZNK3MPI8Datatype10Get_extentERlS1_>:
    c234:	f3 0f 1e fa          	endbr64 
    c238:	55                   	push   %rbp
    c239:	48 89 e5             	mov    %rsp,%rbp
    c23c:	48 83 ec 20          	sub    $0x20,%rsp
    c240:	48 89 7d f8          	mov    %rdi,-0x8(%rbp)
    c244:	48 89 75 f0          	mov    %rsi,-0x10(%rbp)
    c248:	48 89 55 e8          	mov    %rdx,-0x18(%rbp)
    c24c:	48 8b 45 f8          	mov    -0x8(%rbp),%rax
    c250:	48 8b 40 08          	mov    0x8(%rax),%rax
    c254:	48 8b 55 e8          	mov    -0x18(%rbp),%rdx
    c258:	48 8b 4d f0          	mov    -0x10(%rbp),%rcx
    c25c:	48 89 ce             	mov    %rcx,%rsi
    c25f:	48 89 c7             	mov    %rax,%rdi
    c262:	e8 69 dd ff ff       	call   9fd0 <MPI_Type_get_extent@plt>
    c267:	90                   	nop
    c268:	c9                   	leave  
    c269:	c3                   	ret    

000000000000c26a <_ZNK3MPI8Datatype15Get_true_extentERlS1_>:
    c26a:	f3 0f 1e fa          	endbr64 
    c26e:	55                   	push   %rbp
    c26f:	48 89 e5             	mov    %rsp,%rbp
    c272:	48 83 ec 20          	sub    $0x20,%rsp
    c276:	48 89 7d f8          	mov    %rdi,-0x8(%rbp)
    c27a:	48 89 75 f0          	mov    %rsi,-0x10(%rbp)
    c27e:	48 89 55 e8          	mov    %rdx,-0x18(%rbp)
    c282:	48 8b 45 f8          	mov    -0x8(%rbp),%rax
    c286:	48 8b 40 08          	mov    0x8(%rax),%rax
    c28a:	48 8b 55 e8          	mov    -0x18(%rbp),%rdx
    c28e:	48 8b 4d f0          	mov    -0x10(%rbp),%rcx
    c292:	48 89 ce             	mov    %rcx,%rsi
    c295:	48 89 c7             	mov    %rax,%rdi
    c298:	e8 43 de ff ff       	call   a0e0 <MPI_Type_get_true_extent@plt>
    c29d:	90                   	nop
    c29e:	c9                   	leave  
    c29f:	c3                   	ret    

000000000000c2a0 <_ZN3MPI8Datatype6CommitEv>:
    c2a0:	f3 0f 1e fa          	endbr64 
    c2a4:	55                   	push   %rbp
    c2a5:	48 89 e5             	mov    %rsp,%rbp
    c2a8:	48 83 ec 10          	sub    $0x10,%rsp
    c2ac:	48 89 7d f8          	mov    %rdi,-0x8(%rbp)
    c2b0:	48 8b 45 f8          	mov    -0x8(%rbp),%rax
    c2b4:	48 83 c0 08          	add    $0x8,%rax
    c2b8:	48 89 c7             	mov    %rax,%rdi
    c2bb:	e8 e0 e2 ff ff       	call   a5a0 <MPI_Type_commit@plt>
    c2c0:	90                   	nop
    c2c1:	c9                   	leave  
    c2c2:	c3                   	ret    
    c2c3:	90                   	nop

000000000000c2c4 <_ZNK3MPI8Datatype4PackEPKviPviRiRKNS_4CommE>:
    c2c4:	f3 0f 1e fa          	endbr64 
    c2c8:	55                   	push   %rbp
    c2c9:	48 89 e5             	mov    %rsp,%rbp
    c2cc:	48 83 ec 30          	sub    $0x30,%rsp
    c2d0:	48 89 7d f8          	mov    %rdi,-0x8(%rbp)
    c2d4:	48 89 75 f0          	mov    %rsi,-0x10(%rbp)
    c2d8:	89 55 ec             	mov    %edx,-0x14(%rbp)
    c2db:	48 89 4d e0          	mov    %rcx,-0x20(%rbp)
    c2df:	44 89 45 e8          	mov    %r8d,-0x18(%rbp)
    c2e3:	4c 89 4d d8          	mov    %r9,-0x28(%rbp)
    c2e7:	48 8b 45 10          	mov    0x10(%rbp),%rax
    c2eb:	48 89 c7             	mov    %rax,%rdi
    c2ee:	e8 c9 f8 ff ff       	call   bbbc <_ZNK3MPI9Comm_NullcvP19ompi_communicator_tEv>
    c2f3:	48 89 c7             	mov    %rax,%rdi
    c2f6:	48 8b 45 f8          	mov    -0x8(%rbp),%rax
    c2fa:	48 8b 50 08          	mov    0x8(%rax),%rdx
    c2fe:	4c 8b 4d d8          	mov    -0x28(%rbp),%r9
    c302:	44 8b 45 e8          	mov    -0x18(%rbp),%r8d
    c306:	48 8b 4d e0          	mov    -0x20(%rbp),%rcx
    c30a:	8b 75 ec             	mov    -0x14(%rbp),%esi
    c30d:	48 8b 45 f0          	mov    -0x10(%rbp),%rax
    c311:	48 83 ec 08          	sub    $0x8,%rsp
    c315:	57                   	push   %rdi
    c316:	48 89 c7             	mov    %rax,%rdi
    c319:	e8 82 e0 ff ff       	call   a3a0 <MPI_Pack@plt>
    c31e:	48 83 c4 10          	add    $0x10,%rsp
    c322:	90                   	nop
    c323:	c9                   	leave  
    c324:	c3                   	ret    
    c325:	90                   	nop

000000000000c326 <_ZNK3MPI8Datatype6UnpackEPKviPviRiRKNS_4CommE>:
    c326:	f3 0f 1e fa          	endbr64 
    c32a:	55                   	push   %rbp
    c32b:	48 89 e5             	mov    %rsp,%rbp
    c32e:	48 83 ec 30          	sub    $0x30,%rsp
    c332:	48 89 7d f8          	mov    %rdi,-0x8(%rbp)
    c336:	48 89 75 f0          	mov    %rsi,-0x10(%rbp)
    c33a:	89 55 ec             	mov    %edx,-0x14(%rbp)
    c33d:	48 89 4d e0          	mov    %rcx,-0x20(%rbp)
    c341:	44 89 45 e8          	mov    %r8d,-0x18(%rbp)
    c345:	4c 89 4d d8          	mov    %r9,-0x28(%rbp)
    c349:	48 8b 45 10          	mov    0x10(%rbp),%rax
    c34d:	48 89 c7             	mov    %rax,%rdi
    c350:	e8 67 f8 ff ff       	call   bbbc <_ZNK3MPI9Comm_NullcvP19ompi_communicator_tEv>
    c355:	48 89 c7             	mov    %rax,%rdi
    c358:	48 8b 45 f8          	mov    -0x8(%rbp),%rax
    c35c:	4c 8b 48 08          	mov    0x8(%rax),%r9
    c360:	44 8b 45 e8          	mov    -0x18(%rbp),%r8d
    c364:	48 8b 4d e0          	mov    -0x20(%rbp),%rcx
    c368:	48 8b 55 d8          	mov    -0x28(%rbp),%rdx
    c36c:	8b 75 ec             	mov    -0x14(%rbp),%esi
    c36f:	48 8b 45 f0          	mov    -0x10(%rbp),%rax
    c373:	48 83 ec 08          	sub    $0x8,%rsp
    c377:	57                   	push   %rdi
    c378:	48 89 c7             	mov    %rax,%rdi
    c37b:	e8 80 dc ff ff       	call   a000 <MPI_Unpack@plt>
    c380:	48 83 c4 10          	add    $0x10,%rsp
    c384:	90                   	nop
    c385:	c9                   	leave  
    c386:	c3                   	ret    
    c387:	90                   	nop

000000000000c388 <_ZNK3MPI8Datatype9Pack_sizeEiRKNS_4CommE>:
    c388:	f3 0f 1e fa          	endbr64 
    c38c:	55                   	push   %rbp
    c38d:	48 89 e5             	mov    %rsp,%rbp
    c390:	48 83 ec 30          	sub    $0x30,%rsp
    c394:	48 89 7d e8          	mov    %rdi,-0x18(%rbp)
    c398:	89 75 e4             	mov    %esi,-0x1c(%rbp)
    c39b:	48 89 55 d8          	mov    %rdx,-0x28(%rbp)
    c39f:	64 48 8b 04 25 28 00 	mov    %fs:0x28,%rax
    c3a6:	00 00 
    c3a8:	48 89 45 f8          	mov    %rax,-0x8(%rbp)
    c3ac:	31 c0                	xor    %eax,%eax
    c3ae:	48 8b 45 d8          	mov    -0x28(%rbp),%rax
    c3b2:	48 89 c7             	mov    %rax,%rdi
    c3b5:	e8 02 f8 ff ff       	call   bbbc <_ZNK3MPI9Comm_NullcvP19ompi_communicator_tEv>
    c3ba:	48 89 c7             	mov    %rax,%rdi
    c3bd:	48 8b 45 e8          	mov    -0x18(%rbp),%rax
    c3c1:	48 8b 70 08          	mov    0x8(%rax),%rsi
    c3c5:	48 8d 55 f4          	lea    -0xc(%rbp),%rdx
    c3c9:	8b 45 e4             	mov    -0x1c(%rbp),%eax
    c3cc:	48 89 d1             	mov    %rdx,%rcx
    c3cf:	48 89 fa             	mov    %rdi,%rdx
    c3d2:	89 c7                	mov    %eax,%edi
    c3d4:	e8 37 db ff ff       	call   9f10 <MPI_Pack_size@plt>
    c3d9:	8b 45 f4             	mov    -0xc(%rbp),%eax
    c3dc:	48 8b 55 f8          	mov    -0x8(%rbp),%rdx
    c3e0:	64 48 2b 14 25 28 00 	sub    %fs:0x28,%rdx
    c3e7:	00 00 
    c3e9:	74 05                	je     c3f0 <_ZNK3MPI8Datatype9Pack_sizeEiRKNS_4CommE+0x68>
    c3eb:	e8 e0 e0 ff ff       	call   a4d0 <__stack_chk_fail@plt>
    c3f0:	c9                   	leave  
    c3f1:	c3                   	ret    

000000000000c3f2 <_ZNK3MPI8Datatype13Pack_externalEPKcPKviPvlRl>:
    c3f2:	f3 0f 1e fa          	endbr64 
    c3f6:	55                   	push   %rbp
    c3f7:	48 89 e5             	mov    %rsp,%rbp
    c3fa:	48 83 ec 30          	sub    $0x30,%rsp
    c3fe:	48 89 7d f8          	mov    %rdi,-0x8(%rbp)
    c402:	48 89 75 f0          	mov    %rsi,-0x10(%rbp)
    c406:	48 89 55 e8          	mov    %rdx,-0x18(%rbp)
    c40a:	89 4d e4             	mov    %ecx,-0x1c(%rbp)
    c40d:	4c 89 45 d8          	mov    %r8,-0x28(%rbp)
    c411:	4c 89 4d d0          	mov    %r9,-0x30(%rbp)
    c415:	48 8b 45 f8          	mov    -0x8(%rbp),%rax
    c419:	48 8b 48 08          	mov    0x8(%rax),%rcx
    c41d:	4c 8b 45 d0          	mov    -0x30(%rbp),%r8
    c421:	48 8b 7d d8          	mov    -0x28(%rbp),%rdi
    c425:	8b 55 e4             	mov    -0x1c(%rbp),%edx
    c428:	48 8b 75 e8          	mov    -0x18(%rbp),%rsi
    c42c:	48 8b 45 f0          	mov    -0x10(%rbp),%rax
    c430:	48 83 ec 08          	sub    $0x8,%rsp
    c434:	ff 75 10             	push   0x10(%rbp)
    c437:	4d 89 c1             	mov    %r8,%r9
    c43a:	49 89 f8             	mov    %rdi,%r8
    c43d:	48 89 c7             	mov    %rax,%rdi
    c440:	e8 9b dd ff ff       	call   a1e0 <MPI_Pack_external@plt>
    c445:	48 83 c4 10          	add    $0x10,%rsp
    c449:	90                   	nop
    c44a:	c9                   	leave  
    c44b:	c3                   	ret    

000000000000c44c <_ZNK3MPI8Datatype18Pack_external_sizeEPKci>:
    c44c:	f3 0f 1e fa          	endbr64 
    c450:	55                   	push   %rbp
    c451:	48 89 e5             	mov    %rsp,%rbp
    c454:	48 83 ec 30          	sub    $0x30,%rsp
    c458:	48 89 7d e8          	mov    %rdi,-0x18(%rbp)
    c45c:	48 89 75 e0          	mov    %rsi,-0x20(%rbp)
    c460:	89 55 dc             	mov    %edx,-0x24(%rbp)
    c463:	64 48 8b 04 25 28 00 	mov    %fs:0x28,%rax
    c46a:	00 00 
    c46c:	48 89 45 f8          	mov    %rax,-0x8(%rbp)
    c470:	31 c0                	xor    %eax,%eax
    c472:	48 8b 45 e8          	mov    -0x18(%rbp),%rax
    c476:	48 8b 50 08          	mov    0x8(%rax),%rdx
    c47a:	48 8d 4d f0          	lea    -0x10(%rbp),%rcx
    c47e:	8b 75 dc             	mov    -0x24(%rbp),%esi
    c481:	48 8b 45 e0          	mov    -0x20(%rbp),%rax
    c485:	48 89 c7             	mov    %rax,%rdi
    c488:	e8 03 e6 ff ff       	call   aa90 <MPI_Pack_external_size@plt>
    c48d:	48 8b 45 f0          	mov    -0x10(%rbp),%rax
    c491:	48 8b 55 f8          	mov    -0x8(%rbp),%rdx
    c495:	64 48 2b 14 25 28 00 	sub    %fs:0x28,%rdx
    c49c:	00 00 
    c49e:	74 05                	je     c4a5 <_ZNK3MPI8Datatype18Pack_external_sizeEPKci+0x59>
    c4a0:	e8 2b e0 ff ff       	call   a4d0 <__stack_chk_fail@plt>
    c4a5:	c9                   	leave  
    c4a6:	c3                   	ret    
    c4a7:	90                   	nop

000000000000c4a8 <_ZNK3MPI8Datatype15Unpack_externalEPKcPKvlRlPvi>:
    c4a8:	f3 0f 1e fa          	endbr64 
    c4ac:	55                   	push   %rbp
    c4ad:	48 89 e5             	mov    %rsp,%rbp
    c4b0:	48 83 ec 30          	sub    $0x30,%rsp
    c4b4:	48 89 7d f8          	mov    %rdi,-0x8(%rbp)
    c4b8:	48 89 75 f0          	mov    %rsi,-0x10(%rbp)
    c4bc:	48 89 55 e8          	mov    %rdx,-0x18(%rbp)
    c4c0:	48 89 4d e0          	mov    %rcx,-0x20(%rbp)
    c4c4:	4c 89 45 d8          	mov    %r8,-0x28(%rbp)
    c4c8:	4c 89 4d d0          	mov    %r9,-0x30(%rbp)
    c4cc:	48 8b 45 f8          	mov    -0x8(%rbp),%rax
    c4d0:	48 8b 78 08          	mov    0x8(%rax),%rdi
    c4d4:	4c 8b 45 d0          	mov    -0x30(%rbp),%r8
    c4d8:	48 8b 4d d8          	mov    -0x28(%rbp),%rcx
    c4dc:	48 8b 55 e0          	mov    -0x20(%rbp),%rdx
    c4e0:	48 8b 75 e8          	mov    -0x18(%rbp),%rsi
    c4e4:	48 8b 45 f0          	mov    -0x10(%rbp),%rax
    c4e8:	48 83 ec 08          	sub    $0x8,%rsp
    c4ec:	57                   	push   %rdi
    c4ed:	44 8b 4d 10          	mov    0x10(%rbp),%r9d
    c4f1:	48 89 c7             	mov    %rax,%rdi
    c4f4:	e8 57 da ff ff       	call   9f50 <MPI_Unpack_external@plt>
    c4f9:	48 83 c4 10          	add    $0x10,%rsp
    c4fd:	90                   	nop
    c4fe:	c9                   	leave  
    c4ff:	c3                   	ret    

000000000000c500 <_ZNK3MPI8Datatype15Create_subarrayEiPKiS2_S2_i>:
    c500:	f3 0f 1e fa          	endbr64 
    c504:	55                   	push   %rbp
    c505:	48 89 e5             	mov    %rsp,%rbp
    c508:	48 83 ec 40          	sub    $0x40,%rsp
    c50c:	48 89 7d e8          	mov    %rdi,-0x18(%rbp)
    c510:	48 89 75 e0          	mov    %rsi,-0x20(%rbp)
    c514:	89 55 dc             	mov    %edx,-0x24(%rbp)
    c517:	48 89 4d d0          	mov    %rcx,-0x30(%rbp)
    c51b:	4c 89 45 c8          	mov    %r8,-0x38(%rbp)
    c51f:	4c 89 4d c0          	mov    %r9,-0x40(%rbp)
    c523:	64 48 8b 04 25 28 00 	mov    %fs:0x28,%rax
    c52a:	00 00 
    c52c:	48 89 45 f8          	mov    %rax,-0x8(%rbp)
    c530:	31 c0                	xor    %eax,%eax
    c532:	48 8b 45 e0          	mov    -0x20(%rbp),%rax
    c536:	4c 8b 40 08          	mov    0x8(%rax),%r8
    c53a:	48 8b 4d c0          	mov    -0x40(%rbp),%rcx
    c53e:	48 8b 55 c8          	mov    -0x38(%rbp),%rdx
    c542:	48 8b 75 d0          	mov    -0x30(%rbp),%rsi
    c546:	8b 45 dc             	mov    -0x24(%rbp),%eax
    c549:	48 83 ec 08          	sub    $0x8,%rsp
    c54d:	48 8d 7d f0          	lea    -0x10(%rbp),%rdi
    c551:	57                   	push   %rdi
    c552:	4d 89 c1             	mov    %r8,%r9
    c555:	44 8b 45 10          	mov    0x10(%rbp),%r8d
    c559:	89 c7                	mov    %eax,%edi
    c55b:	e8 20 e3 ff ff       	call   a880 <MPI_Type_create_subarray@plt>
    c560:	48 83 c4 10          	add    $0x10,%rsp
    c564:	48 8b 55 f0          	mov    -0x10(%rbp),%rdx
    c568:	48 8b 45 e8          	mov    -0x18(%rbp),%rax
    c56c:	48 89 d6             	mov    %rdx,%rsi
    c56f:	48 89 c7             	mov    %rax,%rdi
    c572:	e8 d5 f2 ff ff       	call   b84c <_ZN3MPI8DatatypeC1EP15ompi_datatype_t>
    c577:	48 8b 45 f8          	mov    -0x8(%rbp),%rax
    c57b:	64 48 2b 04 25 28 00 	sub    %fs:0x28,%rax
    c582:	00 00 
    c584:	74 05                	je     c58b <_ZNK3MPI8Datatype15Create_subarrayEiPKiS2_S2_i+0x8b>
    c586:	e8 45 df ff ff       	call   a4d0 <__stack_chk_fail@plt>
    c58b:	48 8b 45 e8          	mov    -0x18(%rbp),%rax
    c58f:	c9                   	leave  
    c590:	c3                   	ret    
    c591:	90                   	nop

000000000000c592 <_ZNK3MPI8Datatype13Create_darrayEiiiPKiS2_S2_S2_i>:
    c592:	f3 0f 1e fa          	endbr64 
    c596:	55                   	push   %rbp
    c597:	48 89 e5             	mov    %rsp,%rbp
    c59a:	48 83 ec 50          	sub    $0x50,%rsp
    c59e:	48 89 7d e8          	mov    %rdi,-0x18(%rbp)
    c5a2:	48 89 75 e0          	mov    %rsi,-0x20(%rbp)
    c5a6:	89 55 dc             	mov    %edx,-0x24(%rbp)
    c5a9:	89 4d d8             	mov    %ecx,-0x28(%rbp)
    c5ac:	44 89 45 d4          	mov    %r8d,-0x2c(%rbp)
    c5b0:	4c 89 4d c8          	mov    %r9,-0x38(%rbp)
    c5b4:	48 8b 45 10          	mov    0x10(%rbp),%rax
    c5b8:	48 89 45 c0          	mov    %rax,-0x40(%rbp)
    c5bc:	48 8b 45 18          	mov    0x18(%rbp),%rax
    c5c0:	48 89 45 b8          	mov    %rax,-0x48(%rbp)
    c5c4:	48 8b 45 20          	mov    0x20(%rbp),%rax
    c5c8:	48 89 45 b0          	mov    %rax,-0x50(%rbp)
    c5cc:	64 48 8b 04 25 28 00 	mov    %fs:0x28,%rax
    c5d3:	00 00 
    c5d5:	48 89 45 f8          	mov    %rax,-0x8(%rbp)
    c5d9:	31 c0                	xor    %eax,%eax
    c5db:	48 8b 45 e0          	mov    -0x20(%rbp),%rax
    c5df:	48 8b 78 08          	mov    0x8(%rax),%rdi
    c5e3:	4c 8b 4d b8          	mov    -0x48(%rbp),%r9
    c5e7:	4c 8b 55 c0          	mov    -0x40(%rbp),%r10
    c5eb:	48 8b 4d c8          	mov    -0x38(%rbp),%rcx
    c5ef:	8b 55 d4             	mov    -0x2c(%rbp),%edx
    c5f2:	8b 75 d8             	mov    -0x28(%rbp),%esi
    c5f5:	8b 45 dc             	mov    -0x24(%rbp),%eax
    c5f8:	4c 8d 45 f0          	lea    -0x10(%rbp),%r8
    c5fc:	41 50                	push   %r8
    c5fe:	57                   	push   %rdi
    c5ff:	8b 7d 28             	mov    0x28(%rbp),%edi
    c602:	57                   	push   %rdi
    c603:	ff 75 b0             	push   -0x50(%rbp)
    c606:	4d 89 d0             	mov    %r10,%r8
    c609:	89 c7                	mov    %eax,%edi
    c60b:	e8 90 dc ff ff       	call   a2a0 <MPI_Type_create_darray@plt>
    c610:	48 83 c4 20          	add    $0x20,%rsp
    c614:	48 8b 55 f0          	mov    -0x10(%rbp),%rdx
    c618:	48 8b 45 e8          	mov    -0x18(%rbp),%rax
    c61c:	48 89 d6             	mov    %rdx,%rsi
    c61f:	48 89 c7             	mov    %rax,%rdi
    c622:	e8 25 f2 ff ff       	call   b84c <_ZN3MPI8DatatypeC1EP15ompi_datatype_t>
    c627:	48 8b 45 f8          	mov    -0x8(%rbp),%rax
    c62b:	64 48 2b 04 25 28 00 	sub    %fs:0x28,%rax
    c632:	00 00 
    c634:	74 05                	je     c63b <_ZNK3MPI8Datatype13Create_darrayEiiiPKiS2_S2_S2_i+0xa9>
    c636:	e8 95 de ff ff       	call   a4d0 <__stack_chk_fail@plt>
    c63b:	48 8b 45 e8          	mov    -0x18(%rbp),%rax
    c63f:	c9                   	leave  
    c640:	c3                   	ret    
    c641:	90                   	nop

000000000000c642 <_ZNK3MPI8Datatype3DupEv>:
    c642:	f3 0f 1e fa          	endbr64 
    c646:	55                   	push   %rbp
    c647:	48 89 e5             	mov    %rsp,%rbp
    c64a:	48 83 ec 20          	sub    $0x20,%rsp
    c64e:	48 89 7d e8          	mov    %rdi,-0x18(%rbp)
    c652:	48 89 75 e0          	mov    %rsi,-0x20(%rbp)
    c656:	64 48 8b 04 25 28 00 	mov    %fs:0x28,%rax
    c65d:	00 00 
    c65f:	48 89 45 f8          	mov    %rax,-0x8(%rbp)
    c663:	31 c0                	xor    %eax,%eax
    c665:	48 8b 45 e0          	mov    -0x20(%rbp),%rax
    c669:	48 8b 40 08          	mov    0x8(%rax),%rax
    c66d:	48 8d 55 f0          	lea    -0x10(%rbp),%rdx
    c671:	48 89 d6             	mov    %rdx,%rsi
    c674:	48 89 c7             	mov    %rax,%rdi
    c677:	e8 24 e1 ff ff       	call   a7a0 <MPI_Type_dup@plt>
    c67c:	48 8b 55 f0          	mov    -0x10(%rbp),%rdx
    c680:	48 8b 45 e8          	mov    -0x18(%rbp),%rax
    c684:	48 89 d6             	mov    %rdx,%rsi
    c687:	48 89 c7             	mov    %rax,%rdi
    c68a:	e8 bd f1 ff ff       	call   b84c <_ZN3MPI8DatatypeC1EP15ompi_datatype_t>
    c68f:	48 8b 45 f8          	mov    -0x8(%rbp),%rax
    c693:	64 48 2b 04 25 28 00 	sub    %fs:0x28,%rax
    c69a:	00 00 
    c69c:	74 05                	je     c6a3 <_ZNK3MPI8Datatype3DupEv+0x61>
    c69e:	e8 2d de ff ff       	call   a4d0 <__stack_chk_fail@plt>
    c6a3:	48 8b 45 e8          	mov    -0x18(%rbp),%rax
    c6a7:	c9                   	leave  
    c6a8:	c3                   	ret    
    c6a9:	90                   	nop

000000000000c6aa <_ZN3MPI8Datatype11Delete_attrEi>:
    c6aa:	f3 0f 1e fa          	endbr64 
    c6ae:	55                   	push   %rbp
    c6af:	48 89 e5             	mov    %rsp,%rbp
    c6b2:	48 83 ec 10          	sub    $0x10,%rsp
    c6b6:	48 89 7d f8          	mov    %rdi,-0x8(%rbp)
    c6ba:	89 75 f4             	mov    %esi,-0xc(%rbp)
    c6bd:	48 8b 45 f8          	mov    -0x8(%rbp),%rax
    c6c1:	48 8b 40 08          	mov    0x8(%rax),%rax
    c6c5:	8b 55 f4             	mov    -0xc(%rbp),%edx
    c6c8:	89 d6                	mov    %edx,%esi
    c6ca:	48 89 c7             	mov    %rax,%rdi
    c6cd:	e8 0e e3 ff ff       	call   a9e0 <MPI_Type_delete_attr@plt>
    c6d2:	90                   	nop
    c6d3:	c9                   	leave  
    c6d4:	c3                   	ret    
    c6d5:	90                   	nop

000000000000c6d6 <_ZNK3MPI8Datatype8Get_attrEiPv>:
    c6d6:	f3 0f 1e fa          	endbr64 
    c6da:	55                   	push   %rbp
    c6db:	48 89 e5             	mov    %rsp,%rbp
    c6de:	48 83 ec 30          	sub    $0x30,%rsp
    c6e2:	48 89 7d e8          	mov    %rdi,-0x18(%rbp)
    c6e6:	89 75 e4             	mov    %esi,-0x1c(%rbp)
    c6e9:	48 89 55 d8          	mov    %rdx,-0x28(%rbp)
    c6ed:	64 48 8b 04 25 28 00 	mov    %fs:0x28,%rax
    c6f4:	00 00 
    c6f6:	48 89 45 f8          	mov    %rax,-0x8(%rbp)
    c6fa:	31 c0                	xor    %eax,%eax
    c6fc:	48 8b 45 e8          	mov    -0x18(%rbp),%rax
    c700:	48 8b 40 08          	mov    0x8(%rax),%rax
    c704:	48 8d 4d f4          	lea    -0xc(%rbp),%rcx
    c708:	48 8b 55 d8          	mov    -0x28(%rbp),%rdx
    c70c:	8b 75 e4             	mov    -0x1c(%rbp),%esi
    c70f:	48 89 c7             	mov    %rax,%rdi
    c712:	e8 19 dc ff ff       	call   a330 <MPI_Type_get_attr@plt>
    c717:	8b 45 f4             	mov    -0xc(%rbp),%eax
    c71a:	85 c0                	test   %eax,%eax
    c71c:	0f 95 c0             	setne  %al
    c71f:	48 8b 55 f8          	mov    -0x8(%rbp),%rdx
    c723:	64 48 2b 14 25 28 00 	sub    %fs:0x28,%rdx
    c72a:	00 00 
    c72c:	74 05                	je     c733 <_ZNK3MPI8Datatype8Get_attrEiPv+0x5d>
    c72e:	e8 9d dd ff ff       	call   a4d0 <__stack_chk_fail@plt>
    c733:	c9                   	leave  
    c734:	c3                   	ret    
    c735:	90                   	nop

000000000000c736 <_ZNK3MPI8Datatype12Get_contentsEiiiPiPlPS0_>:
    c736:	f3 0f 1e fa          	endbr64 
    c73a:	55                   	push   %rbp
    c73b:	48 89 e5             	mov    %rsp,%rbp
    c73e:	48 83 ec 40          	sub    $0x40,%rsp
    c742:	48 89 7d e8          	mov    %rdi,-0x18(%rbp)
    c746:	89 75 e4             	mov    %esi,-0x1c(%rbp)
    c749:	89 55 e0             	mov    %edx,-0x20(%rbp)
    c74c:	89 4d dc             	mov    %ecx,-0x24(%rbp)
    c74f:	4c 89 45 d0          	mov    %r8,-0x30(%rbp)
    c753:	4c 89 4d c8          	mov    %r9,-0x38(%rbp)
    c757:	8b 45 dc             	mov    -0x24(%rbp),%eax
    c75a:	48 98                	cltq   
    c75c:	48 ba ff ff ff ff ff 	movabs $0xfffffffffffffff,%rdx
    c763:	ff ff 0f 
    c766:	48 39 d0             	cmp    %rdx,%rax
    c769:	77 4b                	ja     c7b6 <_ZNK3MPI8Datatype12Get_contentsEiiiPiPlPS0_+0x80>
    c76b:	48 c1 e0 03          	shl    $0x3,%rax
    c76f:	48 89 c7             	mov    %rax,%rdi
    c772:	e8 29 d6 ff ff       	call   9da0 <_Znam@plt>
    c777:	48 89 45 f8          	mov    %rax,-0x8(%rbp)
    c77b:	48 8b 45 e8          	mov    -0x18(%rbp),%rax
    c77f:	48 8b 40 08          	mov    0x8(%rax),%rax
    c783:	4c 8b 45 c8          	mov    -0x38(%rbp),%r8
    c787:	48 8b 7d d0          	mov    -0x30(%rbp),%rdi
    c78b:	8b 4d dc             	mov    -0x24(%rbp),%ecx
    c78e:	8b 55 e0             	mov    -0x20(%rbp),%edx
    c791:	8b 75 e4             	mov    -0x1c(%rbp),%esi
    c794:	48 83 ec 08          	sub    $0x8,%rsp
    c798:	ff 75 f8             	push   -0x8(%rbp)
    c79b:	4d 89 c1             	mov    %r8,%r9
    c79e:	49 89 f8             	mov    %rdi,%r8
    c7a1:	48 89 c7             	mov    %rax,%rdi
    c7a4:	e8 17 df ff ff       	call   a6c0 <MPI_Type_get_contents@plt>
    c7a9:	48 83 c4 10          	add    $0x10,%rsp
    c7ad:	c7 45 f4 00 00 00 00 	movl   $0x0,-0xc(%rbp)
    c7b4:	eb 3b                	jmp    c7f1 <_ZNK3MPI8Datatype12Get_contentsEiiiPiPlPS0_+0xbb>
    c7b6:	e8 25 df ff ff       	call   a6e0 <__cxa_throw_bad_array_new_length@plt>
    c7bb:	8b 45 f4             	mov    -0xc(%rbp),%eax
    c7be:	48 98                	cltq   
    c7c0:	48 8d 14 c5 00 00 00 	lea    0x0(,%rax,8),%rdx
    c7c7:	00 
    c7c8:	48 8b 45 f8          	mov    -0x8(%rbp),%rax
    c7cc:	48 01 c2             	add    %rax,%rdx
    c7cf:	8b 45 f4             	mov    -0xc(%rbp),%eax
    c7d2:	48 98                	cltq   
    c7d4:	48 c1 e0 04          	shl    $0x4,%rax
    c7d8:	48 89 c1             	mov    %rax,%rcx
    c7db:	48 8b 45 10          	mov    0x10(%rbp),%rax
    c7df:	48 01 c8             	add    %rcx,%rax
    c7e2:	48 89 d6             	mov    %rdx,%rsi
    c7e5:	48 89 c7             	mov    %rax,%rdi
    c7e8:	e8 8d f0 ff ff       	call   b87a <_ZN3MPI8DatatypeaSERKP15ompi_datatype_t>
    c7ed:	83 45 f4 01          	addl   $0x1,-0xc(%rbp)
    c7f1:	8b 45 f4             	mov    -0xc(%rbp),%eax
    c7f4:	3b 45 dc             	cmp    -0x24(%rbp),%eax
    c7f7:	7c c2                	jl     c7bb <_ZNK3MPI8Datatype12Get_contentsEiiiPiPlPS0_+0x85>
    c7f9:	48 83 7d f8 00       	cmpq   $0x0,-0x8(%rbp)
    c7fe:	74 0c                	je     c80c <_ZNK3MPI8Datatype12Get_contentsEiiiPiPlPS0_+0xd6>
    c800:	48 8b 45 f8          	mov    -0x8(%rbp),%rax
    c804:	48 89 c7             	mov    %rax,%rdi
    c807:	e8 b4 dd ff ff       	call   a5c0 <_ZdaPv@plt>
    c80c:	90                   	nop
    c80d:	c9                   	leave  
    c80e:	c3                   	ret    
    c80f:	90                   	nop

000000000000c810 <_ZNK3MPI8Datatype12Get_envelopeERiS1_S1_S1_>:
    c810:	f3 0f 1e fa          	endbr64 
    c814:	55                   	push   %rbp
    c815:	48 89 e5             	mov    %rsp,%rbp
    c818:	48 83 ec 30          	sub    $0x30,%rsp
    c81c:	48 89 7d f8          	mov    %rdi,-0x8(%rbp)
    c820:	48 89 75 f0          	mov    %rsi,-0x10(%rbp)
    c824:	48 89 55 e8          	mov    %rdx,-0x18(%rbp)
    c828:	48 89 4d e0          	mov    %rcx,-0x20(%rbp)
    c82c:	4c 89 45 d8          	mov    %r8,-0x28(%rbp)
    c830:	48 8b 45 f8          	mov    -0x8(%rbp),%rax
    c834:	48 8b 40 08          	mov    0x8(%rax),%rax
    c838:	48 8b 7d d8          	mov    -0x28(%rbp),%rdi
    c83c:	48 8b 4d e0          	mov    -0x20(%rbp),%rcx
    c840:	48 8b 55 e8          	mov    -0x18(%rbp),%rdx
    c844:	48 8b 75 f0          	mov    -0x10(%rbp),%rsi
    c848:	49 89 f8             	mov    %rdi,%r8
    c84b:	48 89 c7             	mov    %rax,%rdi
    c84e:	e8 dd d7 ff ff       	call   a030 <MPI_Type_get_envelope@plt>
    c853:	90                   	nop
    c854:	c9                   	leave  
    c855:	c3                   	ret    

000000000000c856 <_ZNK3MPI8Datatype8Get_nameEPcRi>:
    c856:	f3 0f 1e fa          	endbr64 
    c85a:	55                   	push   %rbp
    c85b:	48 89 e5             	mov    %rsp,%rbp
    c85e:	48 83 ec 20          	sub    $0x20,%rsp
    c862:	48 89 7d f8          	mov    %rdi,-0x8(%rbp)
    c866:	48 89 75 f0          	mov    %rsi,-0x10(%rbp)
    c86a:	48 89 55 e8          	mov    %rdx,-0x18(%rbp)
    c86e:	48 8b 45 f8          	mov    -0x8(%rbp),%rax
    c872:	48 8b 40 08          	mov    0x8(%rax),%rax
    c876:	48 8b 55 e8          	mov    -0x18(%rbp),%rdx
    c87a:	48 8b 4d f0          	mov    -0x10(%rbp),%rcx
    c87e:	48 89 ce             	mov    %rcx,%rsi
    c881:	48 89 c7             	mov    %rax,%rdi
    c884:	e8 17 de ff ff       	call   a6a0 <MPI_Type_get_name@plt>
    c889:	90                   	nop
    c88a:	c9                   	leave  
    c88b:	c3                   	ret    

000000000000c88c <_ZN3MPI8Datatype8Set_attrEiPKv>:
    c88c:	f3 0f 1e fa          	endbr64 
    c890:	55                   	push   %rbp
    c891:	48 89 e5             	mov    %rsp,%rbp
    c894:	48 83 ec 20          	sub    $0x20,%rsp
    c898:	48 89 7d f8          	mov    %rdi,-0x8(%rbp)
    c89c:	89 75 f4             	mov    %esi,-0xc(%rbp)
    c89f:	48 89 55 e8          	mov    %rdx,-0x18(%rbp)
    c8a3:	48 8b 45 f8          	mov    -0x8(%rbp),%rax
    c8a7:	48 8b 40 08          	mov    0x8(%rax),%rax
    c8ab:	48 8b 55 e8          	mov    -0x18(%rbp),%rdx
    c8af:	8b 4d f4             	mov    -0xc(%rbp),%ecx
    c8b2:	89 ce                	mov    %ecx,%esi
    c8b4:	48 89 c7             	mov    %rax,%rdi
    c8b7:	e8 94 e1 ff ff       	call   aa50 <MPI_Type_set_attr@plt>
    c8bc:	90                   	nop
    c8bd:	c9                   	leave  
    c8be:	c3                   	ret    
    c8bf:	90                   	nop

000000000000c8c0 <_ZN3MPI8Datatype8Set_nameEPKc>:
    c8c0:	f3 0f 1e fa          	endbr64 
    c8c4:	55                   	push   %rbp
    c8c5:	48 89 e5             	mov    %rsp,%rbp
    c8c8:	48 83 ec 10          	sub    $0x10,%rsp
    c8cc:	48 89 7d f8          	mov    %rdi,-0x8(%rbp)
    c8d0:	48 89 75 f0          	mov    %rsi,-0x10(%rbp)
    c8d4:	48 8b 45 f8          	mov    -0x8(%rbp),%rax
    c8d8:	48 8b 40 08          	mov    0x8(%rax),%rax
    c8dc:	48 8b 55 f0          	mov    -0x10(%rbp),%rdx
    c8e0:	48 89 d6             	mov    %rdx,%rsi
    c8e3:	48 89 c7             	mov    %rax,%rdi
    c8e6:	e8 b5 e1 ff ff       	call   aaa0 <MPI_Type_set_name@plt>
    c8eb:	90                   	nop
    c8ec:	c9                   	leave  
    c8ed:	c3                   	ret    

000000000000c8ee <_ZN3MPI14Is_initializedEv>:
    c8ee:	f3 0f 1e fa          	endbr64 
    c8f2:	55                   	push   %rbp
    c8f3:	48 89 e5             	mov    %rsp,%rbp
    c8f6:	48 83 ec 10          	sub    $0x10,%rsp
    c8fa:	64 48 8b 04 25 28 00 	mov    %fs:0x28,%rax
    c901:	00 00 
    c903:	48 89 45 f8          	mov    %rax,-0x8(%rbp)
    c907:	31 c0                	xor    %eax,%eax
    c909:	48 8d 45 f4          	lea    -0xc(%rbp),%rax
    c90d:	48 89 c7             	mov    %rax,%rdi
    c910:	e8 4b d7 ff ff       	call   a060 <MPI_Initialized@plt>
    c915:	8b 45 f4             	mov    -0xc(%rbp),%eax
    c918:	85 c0                	test   %eax,%eax
    c91a:	0f 95 c0             	setne  %al
    c91d:	48 8b 55 f8          	mov    -0x8(%rbp),%rdx
    c921:	64 48 2b 14 25 28 00 	sub    %fs:0x28,%rdx
    c928:	00 00 
    c92a:	74 05                	je     c931 <_ZN3MPI14Is_initializedEv+0x43>
    c92c:	e8 9f db ff ff       	call   a4d0 <__stack_chk_fail@plt>
    c931:	c9                   	leave  
    c932:	c3                   	ret    
    c933:	90                   	nop

000000000000c934 <_ZN3MPI7Request4WaitERNS_6StatusE>:
    c934:	f3 0f 1e fa          	endbr64 
    c938:	55                   	push   %rbp
    c939:	48 89 e5             	mov    %rsp,%rbp
    c93c:	48 83 ec 10          	sub    $0x10,%rsp
    c940:	48 89 7d f8          	mov    %rdi,-0x8(%rbp)
    c944:	48 89 75 f0          	mov    %rsi,-0x10(%rbp)
    c948:	48 8b 45 f0          	mov    -0x10(%rbp),%rax
    c94c:	48 8d 50 08          	lea    0x8(%rax),%rdx
    c950:	48 8b 45 f8          	mov    -0x8(%rbp),%rax
    c954:	48 83 c0 08          	add    $0x8,%rax
    c958:	48 89 d6             	mov    %rdx,%rsi
    c95b:	48 89 c7             	mov    %rax,%rdi
    c95e:	e8 cd dc ff ff       	call   a630 <MPI_Wait@plt>
    c963:	90                   	nop
    c964:	c9                   	leave  
    c965:	c3                   	ret    

000000000000c966 <_ZN3MPI7Request4WaitEv>:
    c966:	f3 0f 1e fa          	endbr64 
    c96a:	55                   	push   %rbp
    c96b:	48 89 e5             	mov    %rsp,%rbp
    c96e:	48 83 ec 10          	sub    $0x10,%rsp
    c972:	48 89 7d f8          	mov    %rdi,-0x8(%rbp)
    c976:	48 8b 45 f8          	mov    -0x8(%rbp),%rax
    c97a:	48 83 c0 08          	add    $0x8,%rax
    c97e:	be 00 00 00 00       	mov    $0x0,%esi
    c983:	48 89 c7             	mov    %rax,%rdi
    c986:	e8 a5 dc ff ff       	call   a630 <MPI_Wait@plt>
    c98b:	90                   	nop
    c98c:	c9                   	leave  
    c98d:	c3                   	ret    

000000000000c98e <_ZN3MPI7Request4FreeEv>:
    c98e:	f3 0f 1e fa          	endbr64 
    c992:	55                   	push   %rbp
    c993:	48 89 e5             	mov    %rsp,%rbp
    c996:	48 83 ec 10          	sub    $0x10,%rsp
    c99a:	48 89 7d f8          	mov    %rdi,-0x8(%rbp)
    c99e:	48 8b 45 f8          	mov    -0x8(%rbp),%rax
    c9a2:	48 83 c0 08          	add    $0x8,%rax
    c9a6:	48 89 c7             	mov    %rax,%rdi
    c9a9:	e8 c2 d8 ff ff       	call   a270 <MPI_Request_free@plt>
    c9ae:	90                   	nop
    c9af:	c9                   	leave  
    c9b0:	c3                   	ret    
    c9b1:	90                   	nop

000000000000c9b2 <_ZN3MPI7Request4TestERNS_6StatusE>:
    c9b2:	f3 0f 1e fa          	endbr64 
    c9b6:	55                   	push   %rbp
    c9b7:	48 89 e5             	mov    %rsp,%rbp
    c9ba:	48 83 ec 20          	sub    $0x20,%rsp
    c9be:	48 89 7d e8          	mov    %rdi,-0x18(%rbp)
    c9c2:	48 89 75 e0          	mov    %rsi,-0x20(%rbp)
    c9c6:	64 48 8b 04 25 28 00 	mov    %fs:0x28,%rax
    c9cd:	00 00 
    c9cf:	48 89 45 f8          	mov    %rax,-0x8(%rbp)
    c9d3:	31 c0                	xor    %eax,%eax
    c9d5:	48 8b 45 e0          	mov    -0x20(%rbp),%rax
    c9d9:	48 8d 50 08          	lea    0x8(%rax),%rdx
    c9dd:	48 8b 45 e8          	mov    -0x18(%rbp),%rax
    c9e1:	48 8d 48 08          	lea    0x8(%rax),%rcx
    c9e5:	48 8d 45 f4          	lea    -0xc(%rbp),%rax
    c9e9:	48 89 c6             	mov    %rax,%rsi
    c9ec:	48 89 cf             	mov    %rcx,%rdi
    c9ef:	e8 bc de ff ff       	call   a8b0 <MPI_Test@plt>
    c9f4:	8b 45 f4             	mov    -0xc(%rbp),%eax
    c9f7:	85 c0                	test   %eax,%eax
    c9f9:	0f 95 c0             	setne  %al
    c9fc:	48 8b 55 f8          	mov    -0x8(%rbp),%rdx
    ca00:	64 48 2b 14 25 28 00 	sub    %fs:0x28,%rdx
    ca07:	00 00 
    ca09:	74 05                	je     ca10 <_ZN3MPI7Request4TestERNS_6StatusE+0x5e>
    ca0b:	e8 c0 da ff ff       	call   a4d0 <__stack_chk_fail@plt>
    ca10:	c9                   	leave  
    ca11:	c3                   	ret    

000000000000ca12 <_ZN3MPI7Request4TestEv>:
    ca12:	f3 0f 1e fa          	endbr64 
    ca16:	55                   	push   %rbp
    ca17:	48 89 e5             	mov    %rsp,%rbp
    ca1a:	48 83 ec 20          	sub    $0x20,%rsp
    ca1e:	48 89 7d e8          	mov    %rdi,-0x18(%rbp)
    ca22:	64 48 8b 04 25 28 00 	mov    %fs:0x28,%rax
    ca29:	00 00 
    ca2b:	48 89 45 f8          	mov    %rax,-0x8(%rbp)
    ca2f:	31 c0                	xor    %eax,%eax
    ca31:	48 8b 45 e8          	mov    -0x18(%rbp),%rax
    ca35:	48 8d 48 08          	lea    0x8(%rax),%rcx
    ca39:	48 8d 45 f4          	lea    -0xc(%rbp),%rax
    ca3d:	ba 00 00 00 00       	mov    $0x0,%edx
    ca42:	48 89 c6             	mov    %rax,%rsi
    ca45:	48 89 cf             	mov    %rcx,%rdi
    ca48:	e8 63 de ff ff       	call   a8b0 <MPI_Test@plt>
    ca4d:	8b 45 f4             	mov    -0xc(%rbp),%eax
    ca50:	85 c0                	test   %eax,%eax
    ca52:	0f 95 c0             	setne  %al
    ca55:	48 8b 55 f8          	mov    -0x8(%rbp),%rdx
    ca59:	64 48 2b 14 25 28 00 	sub    %fs:0x28,%rdx
    ca60:	00 00 
    ca62:	74 05                	je     ca69 <_ZN3MPI7Request4TestEv+0x57>
    ca64:	e8 67 da ff ff       	call   a4d0 <__stack_chk_fail@plt>
    ca69:	c9                   	leave  
    ca6a:	c3                   	ret    
    ca6b:	90                   	nop

000000000000ca6c <_ZNK3MPI7Request6CancelEv>:
    ca6c:	f3 0f 1e fa          	endbr64 
    ca70:	55                   	push   %rbp
    ca71:	48 89 e5             	mov    %rsp,%rbp
    ca74:	48 83 ec 10          	sub    $0x10,%rsp
    ca78:	48 89 7d f8          	mov    %rdi,-0x8(%rbp)
    ca7c:	48 8b 45 f8          	mov    -0x8(%rbp),%rax
    ca80:	48 83 c0 08          	add    $0x8,%rax
    ca84:	48 89 c7             	mov    %rax,%rdi
    ca87:	e8 c4 d5 ff ff       	call   a050 <MPI_Cancel@plt>
    ca8c:	90                   	nop
    ca8d:	c9                   	leave  
    ca8e:	c3                   	ret    
    ca8f:	90                   	nop

000000000000ca90 <_ZN3MPI8Prequest5StartEv>:
    ca90:	f3 0f 1e fa          	endbr64 
    ca94:	55                   	push   %rbp
    ca95:	48 89 e5             	mov    %rsp,%rbp
    ca98:	48 83 ec 10          	sub    $0x10,%rsp
    ca9c:	48 89 7d f8          	mov    %rdi,-0x8(%rbp)
    caa0:	48 8b 45 f8          	mov    -0x8(%rbp),%rax
    caa4:	48 83 c0 08          	add    $0x8,%rax
    caa8:	48 89 c7             	mov    %rax,%rdi
    caab:	e8 40 de ff ff       	call   a8f0 <MPI_Start@plt>
    cab0:	90                   	nop
    cab1:	c9                   	leave  
    cab2:	c3                   	ret    
    cab3:	90                   	nop

000000000000cab4 <_ZNK3MPI7Request10Get_statusERNS_6StatusE>:
    cab4:	f3 0f 1e fa          	endbr64 
    cab8:	55                   	push   %rbp
    cab9:	48 89 e5             	mov    %rsp,%rbp
    cabc:	48 83 ec 40          	sub    $0x40,%rsp
    cac0:	48 89 7d c8          	mov    %rdi,-0x38(%rbp)
    cac4:	48 89 75 c0          	mov    %rsi,-0x40(%rbp)
    cac8:	64 48 8b 04 25 28 00 	mov    %fs:0x28,%rax
    cacf:	00 00 
    cad1:	48 89 45 f8          	mov    %rax,-0x8(%rbp)
    cad5:	31 c0                	xor    %eax,%eax
    cad7:	c7 45 dc 00 00 00 00 	movl   $0x0,-0x24(%rbp)
    cade:	48 8b 45 c8          	mov    -0x38(%rbp),%rax
    cae2:	48 8b 40 08          	mov    0x8(%rax),%rax
    cae6:	48 8d 55 e0          	lea    -0x20(%rbp),%rdx
    caea:	48 8d 4d dc          	lea    -0x24(%rbp),%rcx
    caee:	48 89 ce             	mov    %rcx,%rsi
    caf1:	48 89 c7             	mov    %rax,%rdi
    caf4:	e8 27 d4 ff ff       	call   9f20 <MPI_Request_get_status@plt>
    caf9:	8b 45 dc             	mov    -0x24(%rbp),%eax
    cafc:	85 c0                	test   %eax,%eax
    cafe:	74 13                	je     cb13 <_ZNK3MPI7Request10Get_statusERNS_6StatusE+0x5f>
    cb00:	48 8d 55 e0          	lea    -0x20(%rbp),%rdx
    cb04:	48 8b 45 c0          	mov    -0x40(%rbp),%rax
    cb08:	48 89 d6             	mov    %rdx,%rsi
    cb0b:	48 89 c7             	mov    %rax,%rdi
    cb0e:	e8 f1 ed ff ff       	call   b904 <_ZN3MPI6StatusaSERK20ompi_status_public_t>
    cb13:	8b 45 dc             	mov    -0x24(%rbp),%eax
    cb16:	85 c0                	test   %eax,%eax
    cb18:	0f 95 c0             	setne  %al
    cb1b:	48 8b 55 f8          	mov    -0x8(%rbp),%rdx
    cb1f:	64 48 2b 14 25 28 00 	sub    %fs:0x28,%rdx
    cb26:	00 00 
    cb28:	74 05                	je     cb2f <_ZNK3MPI7Request10Get_statusERNS_6StatusE+0x7b>
    cb2a:	e8 a1 d9 ff ff       	call   a4d0 <__stack_chk_fail@plt>
    cb2f:	c9                   	leave  
    cb30:	c3                   	ret    
    cb31:	90                   	nop

000000000000cb32 <_ZNK3MPI7Request10Get_statusEv>:
    cb32:	f3 0f 1e fa          	endbr64 
    cb36:	55                   	push   %rbp
    cb37:	48 89 e5             	mov    %rsp,%rbp
    cb3a:	48 83 ec 20          	sub    $0x20,%rsp
    cb3e:	48 89 7d e8          	mov    %rdi,-0x18(%rbp)
    cb42:	64 48 8b 04 25 28 00 	mov    %fs:0x28,%rax
    cb49:	00 00 
    cb4b:	48 89 45 f8          	mov    %rax,-0x8(%rbp)
    cb4f:	31 c0                	xor    %eax,%eax
    cb51:	48 8b 45 e8          	mov    -0x18(%rbp),%rax
    cb55:	48 8b 40 08          	mov    0x8(%rax),%rax
    cb59:	48 8d 4d f4          	lea    -0xc(%rbp),%rcx
    cb5d:	ba 00 00 00 00       	mov    $0x0,%edx
    cb62:	48 89 ce             	mov    %rcx,%rsi
    cb65:	48 89 c7             	mov    %rax,%rdi
    cb68:	e8 b3 d3 ff ff       	call   9f20 <MPI_Request_get_status@plt>
    cb6d:	8b 45 f4             	mov    -0xc(%rbp),%eax
    cb70:	85 c0                	test   %eax,%eax
    cb72:	0f 95 c0             	setne  %al
    cb75:	48 8b 55 f8          	mov    -0x8(%rbp),%rdx
    cb79:	64 48 2b 14 25 28 00 	sub    %fs:0x28,%rdx
    cb80:	00 00 
    cb82:	74 05                	je     cb89 <_ZNK3MPI7Request10Get_statusEv+0x57>
    cb84:	e8 47 d9 ff ff       	call   a4d0 <__stack_chk_fail@plt>
    cb89:	c9                   	leave  
    cb8a:	c3                   	ret    
    cb8b:	90                   	nop

000000000000cb8c <_ZN3MPI8Grequest8CompleteEv>:
    cb8c:	f3 0f 1e fa          	endbr64 
    cb90:	55                   	push   %rbp
    cb91:	48 89 e5             	mov    %rsp,%rbp
    cb94:	48 83 ec 10          	sub    $0x10,%rsp
    cb98:	48 89 7d f8          	mov    %rdi,-0x8(%rbp)
    cb9c:	48 8b 45 f8          	mov    -0x8(%rbp),%rax
    cba0:	48 8b 40 08          	mov    0x8(%rax),%rax
    cba4:	48 89 c7             	mov    %rax,%rdi
    cba7:	e8 e4 d6 ff ff       	call   a290 <MPI_Grequest_complete@plt>
    cbac:	90                   	nop
    cbad:	c9                   	leave  
    cbae:	c3                   	ret    
    cbaf:	90                   	nop

000000000000cbb0 <_ZNK3MPI4Comm4SendEPKviRKNS_8DatatypeEii>:
    cbb0:	f3 0f 1e fa          	endbr64 
    cbb4:	55                   	push   %rbp
    cbb5:	48 89 e5             	mov    %rsp,%rbp
    cbb8:	53                   	push   %rbx
    cbb9:	48 83 ec 38          	sub    $0x38,%rsp
    cbbd:	48 89 7d e8          	mov    %rdi,-0x18(%rbp)
    cbc1:	48 89 75 e0          	mov    %rsi,-0x20(%rbp)
    cbc5:	89 55 dc             	mov    %edx,-0x24(%rbp)
    cbc8:	48 89 4d d0          	mov    %rcx,-0x30(%rbp)
    cbcc:	44 89 45 d8          	mov    %r8d,-0x28(%rbp)
    cbd0:	44 89 4d cc          	mov    %r9d,-0x34(%rbp)
    cbd4:	48 8b 45 e8          	mov    -0x18(%rbp),%rax
    cbd8:	48 8b 58 08          	mov    0x8(%rax),%rbx
    cbdc:	48 8b 45 d0          	mov    -0x30(%rbp),%rax
    cbe0:	48 89 c7             	mov    %rax,%rdi
    cbe3:	e8 b8 ec ff ff       	call   b8a0 <_ZNK3MPI8DatatypecvP15ompi_datatype_tEv>
    cbe8:	48 89 c7             	mov    %rax,%rdi
    cbeb:	8b 4d cc             	mov    -0x34(%rbp),%ecx
    cbee:	8b 55 d8             	mov    -0x28(%rbp),%edx
    cbf1:	8b 75 dc             	mov    -0x24(%rbp),%esi
    cbf4:	48 8b 45 e0          	mov    -0x20(%rbp),%rax
    cbf8:	49 89 d9             	mov    %rbx,%r9
    cbfb:	41 89 c8             	mov    %ecx,%r8d
    cbfe:	89 d1                	mov    %edx,%ecx
    cc00:	48 89 fa             	mov    %rdi,%rdx
    cc03:	48 89 c7             	mov    %rax,%rdi
    cc06:	e8 75 d3 ff ff       	call   9f80 <MPI_Send@plt>
    cc0b:	90                   	nop
    cc0c:	48 8b 5d f8          	mov    -0x8(%rbp),%rbx
    cc10:	c9                   	leave  
    cc11:	c3                   	ret    

000000000000cc12 <_ZNK3MPI4Comm4RecvEPviRKNS_8DatatypeEiiRNS_6StatusE>:
    cc12:	f3 0f 1e fa          	endbr64 
    cc16:	55                   	push   %rbp
    cc17:	48 89 e5             	mov    %rsp,%rbp
    cc1a:	41 54                	push   %r12
    cc1c:	53                   	push   %rbx
    cc1d:	48 83 ec 30          	sub    $0x30,%rsp
    cc21:	48 89 7d e8          	mov    %rdi,-0x18(%rbp)
    cc25:	48 89 75 e0          	mov    %rsi,-0x20(%rbp)
    cc29:	89 55 dc             	mov    %edx,-0x24(%rbp)
    cc2c:	48 89 4d d0          	mov    %rcx,-0x30(%rbp)
    cc30:	44 89 45 d8          	mov    %r8d,-0x28(%rbp)
    cc34:	44 89 4d cc          	mov    %r9d,-0x34(%rbp)
    cc38:	48 8b 45 10          	mov    0x10(%rbp),%rax
    cc3c:	48 8d 58 08          	lea    0x8(%rax),%rbx
    cc40:	48 8b 45 e8          	mov    -0x18(%rbp),%rax
    cc44:	4c 8b 60 08          	mov    0x8(%rax),%r12
    cc48:	48 8b 45 d0          	mov    -0x30(%rbp),%rax
    cc4c:	48 89 c7             	mov    %rax,%rdi
    cc4f:	e8 4c ec ff ff       	call   b8a0 <_ZNK3MPI8DatatypecvP15ompi_datatype_tEv>
    cc54:	48 89 c7             	mov    %rax,%rdi
    cc57:	8b 4d cc             	mov    -0x34(%rbp),%ecx
    cc5a:	8b 55 d8             	mov    -0x28(%rbp),%edx
    cc5d:	8b 75 dc             	mov    -0x24(%rbp),%esi
    cc60:	48 8b 45 e0          	mov    -0x20(%rbp),%rax
    cc64:	48 83 ec 08          	sub    $0x8,%rsp
    cc68:	53                   	push   %rbx
    cc69:	4d 89 e1             	mov    %r12,%r9
    cc6c:	41 89 c8             	mov    %ecx,%r8d
    cc6f:	89 d1                	mov    %edx,%ecx
    cc71:	48 89 fa             	mov    %rdi,%rdx
    cc74:	48 89 c7             	mov    %rax,%rdi
    cc77:	e8 54 d6 ff ff       	call   a2d0 <MPI_Recv@plt>
    cc7c:	48 83 c4 10          	add    $0x10,%rsp
    cc80:	90                   	nop
    cc81:	48 8d 65 f0          	lea    -0x10(%rbp),%rsp
    cc85:	5b                   	pop    %rbx
    cc86:	41 5c                	pop    %r12
    cc88:	5d                   	pop    %rbp
    cc89:	c3                   	ret    

000000000000cc8a <_ZNK3MPI4Comm4RecvEPviRKNS_8DatatypeEii>:
    cc8a:	f3 0f 1e fa          	endbr64 
    cc8e:	55                   	push   %rbp
    cc8f:	48 89 e5             	mov    %rsp,%rbp
    cc92:	53                   	push   %rbx
    cc93:	48 83 ec 38          	sub    $0x38,%rsp
    cc97:	48 89 7d e8          	mov    %rdi,-0x18(%rbp)
    cc9b:	48 89 75 e0          	mov    %rsi,-0x20(%rbp)
    cc9f:	89 55 dc             	mov    %edx,-0x24(%rbp)
    cca2:	48 89 4d d0          	mov    %rcx,-0x30(%rbp)
    cca6:	44 89 45 d8          	mov    %r8d,-0x28(%rbp)
    ccaa:	44 89 4d cc          	mov    %r9d,-0x34(%rbp)
    ccae:	48 8b 45 e8          	mov    -0x18(%rbp),%rax
    ccb2:	48 8b 58 08          	mov    0x8(%rax),%rbx
    ccb6:	48 8b 45 d0          	mov    -0x30(%rbp),%rax
    ccba:	48 89 c7             	mov    %rax,%rdi
    ccbd:	e8 de eb ff ff       	call   b8a0 <_ZNK3MPI8DatatypecvP15ompi_datatype_tEv>
    ccc2:	48 89 c7             	mov    %rax,%rdi
    ccc5:	8b 4d cc             	mov    -0x34(%rbp),%ecx
    ccc8:	8b 55 d8             	mov    -0x28(%rbp),%edx
    cccb:	8b 75 dc             	mov    -0x24(%rbp),%esi
    ccce:	48 8b 45 e0          	mov    -0x20(%rbp),%rax
    ccd2:	48 83 ec 08          	sub    $0x8,%rsp
    ccd6:	6a 00                	push   $0x0
    ccd8:	49 89 d9             	mov    %rbx,%r9
    ccdb:	41 89 c8             	mov    %ecx,%r8d
    ccde:	89 d1                	mov    %edx,%ecx
    cce0:	48 89 fa             	mov    %rdi,%rdx
    cce3:	48 89 c7             	mov    %rax,%rdi
    cce6:	e8 e5 d5 ff ff       	call   a2d0 <MPI_Recv@plt>
    cceb:	48 83 c4 10          	add    $0x10,%rsp
    ccef:	90                   	nop
    ccf0:	48 8b 5d f8          	mov    -0x8(%rbp),%rbx
    ccf4:	c9                   	leave  
    ccf5:	c3                   	ret    

000000000000ccf6 <_ZNK3MPI4Comm5BsendEPKviRKNS_8DatatypeEii>:
    ccf6:	f3 0f 1e fa          	endbr64 
    ccfa:	55                   	push   %rbp
    ccfb:	48 89 e5             	mov    %rsp,%rbp
    ccfe:	53                   	push   %rbx
    ccff:	48 83 ec 38          	sub    $0x38,%rsp
    cd03:	48 89 7d e8          	mov    %rdi,-0x18(%rbp)
    cd07:	48 89 75 e0          	mov    %rsi,-0x20(%rbp)
    cd0b:	89 55 dc             	mov    %edx,-0x24(%rbp)
    cd0e:	48 89 4d d0          	mov    %rcx,-0x30(%rbp)
    cd12:	44 89 45 d8          	mov    %r8d,-0x28(%rbp)
    cd16:	44 89 4d cc          	mov    %r9d,-0x34(%rbp)
    cd1a:	48 8b 45 e8          	mov    -0x18(%rbp),%rax
    cd1e:	48 8b 58 08          	mov    0x8(%rax),%rbx
    cd22:	48 8b 45 d0          	mov    -0x30(%rbp),%rax
    cd26:	48 89 c7             	mov    %rax,%rdi
    cd29:	e8 72 eb ff ff       	call   b8a0 <_ZNK3MPI8DatatypecvP15ompi_datatype_tEv>
    cd2e:	48 89 c7             	mov    %rax,%rdi
    cd31:	8b 4d cc             	mov    -0x34(%rbp),%ecx
    cd34:	8b 55 d8             	mov    -0x28(%rbp),%edx
    cd37:	8b 75 dc             	mov    -0x24(%rbp),%esi
    cd3a:	48 8b 45 e0          	mov    -0x20(%rbp),%rax
    cd3e:	49 89 d9             	mov    %rbx,%r9
    cd41:	41 89 c8             	mov    %ecx,%r8d
    cd44:	89 d1                	mov    %edx,%ecx
    cd46:	48 89 fa             	mov    %rdi,%rdx
    cd49:	48 89 c7             	mov    %rax,%rdi
    cd4c:	e8 5f d7 ff ff       	call   a4b0 <MPI_Bsend@plt>
    cd51:	90                   	nop
    cd52:	48 8b 5d f8          	mov    -0x8(%rbp),%rbx
    cd56:	c9                   	leave  
    cd57:	c3                   	ret    

000000000000cd58 <_ZNK3MPI4Comm5SsendEPKviRKNS_8DatatypeEii>:
    cd58:	f3 0f 1e fa          	endbr64 
    cd5c:	55                   	push   %rbp
    cd5d:	48 89 e5             	mov    %rsp,%rbp
    cd60:	53                   	push   %rbx
    cd61:	48 83 ec 38          	sub    $0x38,%rsp
    cd65:	48 89 7d e8          	mov    %rdi,-0x18(%rbp)
    cd69:	48 89 75 e0          	mov    %rsi,-0x20(%rbp)
    cd6d:	89 55 dc             	mov    %edx,-0x24(%rbp)
    cd70:	48 89 4d d0          	mov    %rcx,-0x30(%rbp)
    cd74:	44 89 45 d8          	mov    %r8d,-0x28(%rbp)
    cd78:	44 89 4d cc          	mov    %r9d,-0x34(%rbp)
    cd7c:	48 8b 45 e8          	mov    -0x18(%rbp),%rax
    cd80:	48 8b 58 08          	mov    0x8(%rax),%rbx
    cd84:	48 8b 45 d0          	mov    -0x30(%rbp),%rax
    cd88:	48 89 c7             	mov    %rax,%rdi
    cd8b:	e8 10 eb ff ff       	call   b8a0 <_ZNK3MPI8DatatypecvP15ompi_datatype_tEv>
    cd90:	48 89 c7             	mov    %rax,%rdi
    cd93:	8b 4d cc             	mov    -0x34(%rbp),%ecx
    cd96:	8b 55 d8             	mov    -0x28(%rbp),%edx
    cd99:	8b 75 dc             	mov    -0x24(%rbp),%esi
    cd9c:	48 8b 45 e0          	mov    -0x20(%rbp),%rax
    cda0:	49 89 d9             	mov    %rbx,%r9
    cda3:	41 89 c8             	mov    %ecx,%r8d
    cda6:	89 d1                	mov    %edx,%ecx
    cda8:	48 89 fa             	mov    %rdi,%rdx
    cdab:	48 89 c7             	mov    %rax,%rdi
    cdae:	e8 bd d0 ff ff       	call   9e70 <MPI_Ssend@plt>
    cdb3:	90                   	nop
    cdb4:	48 8b 5d f8          	mov    -0x8(%rbp),%rbx
    cdb8:	c9                   	leave  
    cdb9:	c3                   	ret    

000000000000cdba <_ZNK3MPI4Comm5RsendEPKviRKNS_8DatatypeEii>:
    cdba:	f3 0f 1e fa          	endbr64 
    cdbe:	55                   	push   %rbp
    cdbf:	48 89 e5             	mov    %rsp,%rbp
    cdc2:	53                   	push   %rbx
    cdc3:	48 83 ec 38          	sub    $0x38,%rsp
    cdc7:	48 89 7d e8          	mov    %rdi,-0x18(%rbp)
    cdcb:	48 89 75 e0          	mov    %rsi,-0x20(%rbp)
    cdcf:	89 55 dc             	mov    %edx,-0x24(%rbp)
    cdd2:	48 89 4d d0          	mov    %rcx,-0x30(%rbp)
    cdd6:	44 89 45 d8          	mov    %r8d,-0x28(%rbp)
    cdda:	44 89 4d cc          	mov    %r9d,-0x34(%rbp)
    cdde:	48 8b 45 e8          	mov    -0x18(%rbp),%rax
    cde2:	48 8b 58 08          	mov    0x8(%rax),%rbx
    cde6:	48 8b 45 d0          	mov    -0x30(%rbp),%rax
    cdea:	48 89 c7             	mov    %rax,%rdi
    cded:	e8 ae ea ff ff       	call   b8a0 <_ZNK3MPI8DatatypecvP15ompi_datatype_tEv>
    cdf2:	48 89 c7             	mov    %rax,%rdi
    cdf5:	8b 4d cc             	mov    -0x34(%rbp),%ecx
    cdf8:	8b 55 d8             	mov    -0x28(%rbp),%edx
    cdfb:	8b 75 dc             	mov    -0x24(%rbp),%esi
    cdfe:	48 8b 45 e0          	mov    -0x20(%rbp),%rax
    ce02:	49 89 d9             	mov    %rbx,%r9
    ce05:	41 89 c8             	mov    %ecx,%r8d
    ce08:	89 d1                	mov    %edx,%ecx
    ce0a:	48 89 fa             	mov    %rdi,%rdx
    ce0d:	48 89 c7             	mov    %rax,%rdi
    ce10:	e8 ab d4 ff ff       	call   a2c0 <MPI_Rsend@plt>
    ce15:	90                   	nop
    ce16:	48 8b 5d f8          	mov    -0x8(%rbp),%rbx
    ce1a:	c9                   	leave  
    ce1b:	c3                   	ret    

000000000000ce1c <_ZNK3MPI4Comm5IsendEPKviRKNS_8DatatypeEii>:
    ce1c:	f3 0f 1e fa          	endbr64 
    ce20:	55                   	push   %rbp
    ce21:	48 89 e5             	mov    %rsp,%rbp
    ce24:	53                   	push   %rbx
    ce25:	48 83 ec 48          	sub    $0x48,%rsp
    ce29:	48 89 7d d8          	mov    %rdi,-0x28(%rbp)
    ce2d:	48 89 75 d0          	mov    %rsi,-0x30(%rbp)
    ce31:	48 89 55 c8          	mov    %rdx,-0x38(%rbp)
    ce35:	89 4d c4             	mov    %ecx,-0x3c(%rbp)
    ce38:	4c 89 45 b8          	mov    %r8,-0x48(%rbp)
    ce3c:	44 89 4d c0          	mov    %r9d,-0x40(%rbp)
    ce40:	64 48 8b 04 25 28 00 	mov    %fs:0x28,%rax
    ce47:	00 00 
    ce49:	48 89 45 e8          	mov    %rax,-0x18(%rbp)
    ce4d:	31 c0                	xor    %eax,%eax
    ce4f:	48 8b 45 d0          	mov    -0x30(%rbp),%rax
    ce53:	48 8b 58 08          	mov    0x8(%rax),%rbx
    ce57:	48 8b 45 b8          	mov    -0x48(%rbp),%rax
    ce5b:	48 89 c7             	mov    %rax,%rdi
    ce5e:	e8 3d ea ff ff       	call   b8a0 <_ZNK3MPI8DatatypecvP15ompi_datatype_tEv>
    ce63:	48 89 c7             	mov    %rax,%rdi
    ce66:	8b 55 c0             	mov    -0x40(%rbp),%edx
    ce69:	8b 75 c4             	mov    -0x3c(%rbp),%esi
    ce6c:	48 8b 45 c8          	mov    -0x38(%rbp),%rax
    ce70:	48 83 ec 08          	sub    $0x8,%rsp
    ce74:	48 8d 4d e0          	lea    -0x20(%rbp),%rcx
    ce78:	51                   	push   %rcx
    ce79:	49 89 d9             	mov    %rbx,%r9
    ce7c:	44 8b 45 10          	mov    0x10(%rbp),%r8d
    ce80:	89 d1                	mov    %edx,%ecx
    ce82:	48 89 fa             	mov    %rdi,%rdx
    ce85:	48 89 c7             	mov    %rax,%rdi
    ce88:	e8 63 d1 ff ff       	call   9ff0 <MPI_Isend@plt>
    ce8d:	48 83 c4 10          	add    $0x10,%rsp
    ce91:	48 8b 55 e0          	mov    -0x20(%rbp),%rdx
    ce95:	48 8b 45 d8          	mov    -0x28(%rbp),%rax
    ce99:	48 89 d6             	mov    %rdx,%rsi
    ce9c:	48 89 c7             	mov    %rax,%rdi
    ce9f:	e8 e4 ea ff ff       	call   b988 <_ZN3MPI7RequestC1EP14ompi_request_t>
    cea4:	48 8b 45 e8          	mov    -0x18(%rbp),%rax
    cea8:	64 48 2b 04 25 28 00 	sub    %fs:0x28,%rax
    ceaf:	00 00 
    ceb1:	74 05                	je     ceb8 <_ZNK3MPI4Comm5IsendEPKviRKNS_8DatatypeEii+0x9c>
    ceb3:	e8 18 d6 ff ff       	call   a4d0 <__stack_chk_fail@plt>
    ceb8:	48 8b 45 d8          	mov    -0x28(%rbp),%rax
    cebc:	48 8b 5d f8          	mov    -0x8(%rbp),%rbx
    cec0:	c9                   	leave  
    cec1:	c3                   	ret    

000000000000cec2 <_ZNK3MPI4Comm6IbsendEPKviRKNS_8DatatypeEii>:
    cec2:	f3 0f 1e fa          	endbr64 
    cec6:	55                   	push   %rbp
    cec7:	48 89 e5             	mov    %rsp,%rbp
    ceca:	53                   	push   %rbx
    cecb:	48 83 ec 48          	sub    $0x48,%rsp
    cecf:	48 89 7d d8          	mov    %rdi,-0x28(%rbp)
    ced3:	48 89 75 d0          	mov    %rsi,-0x30(%rbp)
    ced7:	48 89 55 c8          	mov    %rdx,-0x38(%rbp)
    cedb:	89 4d c4             	mov    %ecx,-0x3c(%rbp)
    cede:	4c 89 45 b8          	mov    %r8,-0x48(%rbp)
    cee2:	44 89 4d c0          	mov    %r9d,-0x40(%rbp)
    cee6:	64 48 8b 04 25 28 00 	mov    %fs:0x28,%rax
    ceed:	00 00 
    ceef:	48 89 45 e8          	mov    %rax,-0x18(%rbp)
    cef3:	31 c0                	xor    %eax,%eax
    cef5:	48 8b 45 d0          	mov    -0x30(%rbp),%rax
    cef9:	48 8b 58 08          	mov    0x8(%rax),%rbx
    cefd:	48 8b 45 b8          	mov    -0x48(%rbp),%rax
    cf01:	48 89 c7             	mov    %rax,%rdi
    cf04:	e8 97 e9 ff ff       	call   b8a0 <_ZNK3MPI8DatatypecvP15ompi_datatype_tEv>
    cf09:	48 89 c7             	mov    %rax,%rdi
    cf0c:	8b 55 c0             	mov    -0x40(%rbp),%edx
    cf0f:	8b 75 c4             	mov    -0x3c(%rbp),%esi
    cf12:	48 8b 45 c8          	mov    -0x38(%rbp),%rax
    cf16:	48 83 ec 08          	sub    $0x8,%rsp
    cf1a:	48 8d 4d e0          	lea    -0x20(%rbp),%rcx
    cf1e:	51                   	push   %rcx
    cf1f:	49 89 d9             	mov    %rbx,%r9
    cf22:	44 8b 45 10          	mov    0x10(%rbp),%r8d
    cf26:	89 d1                	mov    %edx,%ecx
    cf28:	48 89 fa             	mov    %rdi,%rdx
    cf2b:	48 89 c7             	mov    %rax,%rdi
    cf2e:	e8 ad d8 ff ff       	call   a7e0 <MPI_Ibsend@plt>
    cf33:	48 83 c4 10          	add    $0x10,%rsp
    cf37:	48 8b 55 e0          	mov    -0x20(%rbp),%rdx
    cf3b:	48 8b 45 d8          	mov    -0x28(%rbp),%rax
    cf3f:	48 89 d6             	mov    %rdx,%rsi
    cf42:	48 89 c7             	mov    %rax,%rdi
    cf45:	e8 3e ea ff ff       	call   b988 <_ZN3MPI7RequestC1EP14ompi_request_t>
    cf4a:	48 8b 45 e8          	mov    -0x18(%rbp),%rax
    cf4e:	64 48 2b 04 25 28 00 	sub    %fs:0x28,%rax
    cf55:	00 00 
    cf57:	74 05                	je     cf5e <_ZNK3MPI4Comm6IbsendEPKviRKNS_8DatatypeEii+0x9c>
    cf59:	e8 72 d5 ff ff       	call   a4d0 <__stack_chk_fail@plt>
    cf5e:	48 8b 45 d8          	mov    -0x28(%rbp),%rax
    cf62:	48 8b 5d f8          	mov    -0x8(%rbp),%rbx
    cf66:	c9                   	leave  
    cf67:	c3                   	ret    

000000000000cf68 <_ZNK3MPI4Comm6IssendEPKviRKNS_8DatatypeEii>:
    cf68:	f3 0f 1e fa          	endbr64 
    cf6c:	55                   	push   %rbp
    cf6d:	48 89 e5             	mov    %rsp,%rbp
    cf70:	53                   	push   %rbx
    cf71:	48 83 ec 48          	sub    $0x48,%rsp
    cf75:	48 89 7d d8          	mov    %rdi,-0x28(%rbp)
    cf79:	48 89 75 d0          	mov    %rsi,-0x30(%rbp)
    cf7d:	48 89 55 c8          	mov    %rdx,-0x38(%rbp)
    cf81:	89 4d c4             	mov    %ecx,-0x3c(%rbp)
    cf84:	4c 89 45 b8          	mov    %r8,-0x48(%rbp)
    cf88:	44 89 4d c0          	mov    %r9d,-0x40(%rbp)
    cf8c:	64 48 8b 04 25 28 00 	mov    %fs:0x28,%rax
    cf93:	00 00 
    cf95:	48 89 45 e8          	mov    %rax,-0x18(%rbp)
    cf99:	31 c0                	xor    %eax,%eax
    cf9b:	48 8b 45 d0          	mov    -0x30(%rbp),%rax
    cf9f:	48 8b 58 08          	mov    0x8(%rax),%rbx
    cfa3:	48 8b 45 b8          	mov    -0x48(%rbp),%rax
    cfa7:	48 89 c7             	mov    %rax,%rdi
    cfaa:	e8 f1 e8 ff ff       	call   b8a0 <_ZNK3MPI8DatatypecvP15ompi_datatype_tEv>
    cfaf:	48 89 c7             	mov    %rax,%rdi
    cfb2:	8b 55 c0             	mov    -0x40(%rbp),%edx
    cfb5:	8b 75 c4             	mov    -0x3c(%rbp),%esi
    cfb8:	48 8b 45 c8          	mov    -0x38(%rbp),%rax
    cfbc:	48 83 ec 08          	sub    $0x8,%rsp
    cfc0:	48 8d 4d e0          	lea    -0x20(%rbp),%rcx
    cfc4:	51                   	push   %rcx
    cfc5:	49 89 d9             	mov    %rbx,%r9
    cfc8:	44 8b 45 10          	mov    0x10(%rbp),%r8d
    cfcc:	89 d1                	mov    %edx,%ecx
    cfce:	48 89 fa             	mov    %rdi,%rdx
    cfd1:	48 89 c7             	mov    %rax,%rdi
    cfd4:	e8 a7 d0 ff ff       	call   a080 <MPI_Issend@plt>
    cfd9:	48 83 c4 10          	add    $0x10,%rsp
    cfdd:	48 8b 55 e0          	mov    -0x20(%rbp),%rdx
    cfe1:	48 8b 45 d8          	mov    -0x28(%rbp),%rax
    cfe5:	48 89 d6             	mov    %rdx,%rsi
    cfe8:	48 89 c7             	mov    %rax,%rdi
    cfeb:	e8 98 e9 ff ff       	call   b988 <_ZN3MPI7RequestC1EP14ompi_request_t>
    cff0:	48 8b 45 e8          	mov    -0x18(%rbp),%rax
    cff4:	64 48 2b 04 25 28 00 	sub    %fs:0x28,%rax
    cffb:	00 00 
    cffd:	74 05                	je     d004 <_ZNK3MPI4Comm6IssendEPKviRKNS_8DatatypeEii+0x9c>
    cfff:	e8 cc d4 ff ff       	call   a4d0 <__stack_chk_fail@plt>
    d004:	48 8b 45 d8          	mov    -0x28(%rbp),%rax
    d008:	48 8b 5d f8          	mov    -0x8(%rbp),%rbx
    d00c:	c9                   	leave  
    d00d:	c3                   	ret    

000000000000d00e <_ZNK3MPI4Comm6IrsendEPKviRKNS_8DatatypeEii>:
    d00e:	f3 0f 1e fa          	endbr64 
    d012:	55                   	push   %rbp
    d013:	48 89 e5             	mov    %rsp,%rbp
    d016:	53                   	push   %rbx
    d017:	48 83 ec 48          	sub    $0x48,%rsp
    d01b:	48 89 7d d8          	mov    %rdi,-0x28(%rbp)
    d01f:	48 89 75 d0          	mov    %rsi,-0x30(%rbp)
    d023:	48 89 55 c8          	mov    %rdx,-0x38(%rbp)
    d027:	89 4d c4             	mov    %ecx,-0x3c(%rbp)
    d02a:	4c 89 45 b8          	mov    %r8,-0x48(%rbp)
    d02e:	44 89 4d c0          	mov    %r9d,-0x40(%rbp)
    d032:	64 48 8b 04 25 28 00 	mov    %fs:0x28,%rax
    d039:	00 00 
    d03b:	48 89 45 e8          	mov    %rax,-0x18(%rbp)
    d03f:	31 c0                	xor    %eax,%eax
    d041:	48 8b 45 d0          	mov    -0x30(%rbp),%rax
    d045:	48 8b 58 08          	mov    0x8(%rax),%rbx
    d049:	48 8b 45 b8          	mov    -0x48(%rbp),%rax
    d04d:	48 89 c7             	mov    %rax,%rdi
    d050:	e8 4b e8 ff ff       	call   b8a0 <_ZNK3MPI8DatatypecvP15ompi_datatype_tEv>
    d055:	48 89 c7             	mov    %rax,%rdi
    d058:	8b 55 c0             	mov    -0x40(%rbp),%edx
    d05b:	8b 75 c4             	mov    -0x3c(%rbp),%esi
    d05e:	48 8b 45 c8          	mov    -0x38(%rbp),%rax
    d062:	48 83 ec 08          	sub    $0x8,%rsp
    d066:	48 8d 4d e0          	lea    -0x20(%rbp),%rcx
    d06a:	51                   	push   %rcx
    d06b:	49 89 d9             	mov    %rbx,%r9
    d06e:	44 8b 45 10          	mov    0x10(%rbp),%r8d
    d072:	89 d1                	mov    %edx,%ecx
    d074:	48 89 fa             	mov    %rdi,%rdx
    d077:	48 89 c7             	mov    %rax,%rdi
    d07a:	e8 c1 cd ff ff       	call   9e40 <MPI_Irsend@plt>
    d07f:	48 83 c4 10          	add    $0x10,%rsp
    d083:	48 8b 55 e0          	mov    -0x20(%rbp),%rdx
    d087:	48 8b 45 d8          	mov    -0x28(%rbp),%rax
    d08b:	48 89 d6             	mov    %rdx,%rsi
    d08e:	48 89 c7             	mov    %rax,%rdi
    d091:	e8 f2 e8 ff ff       	call   b988 <_ZN3MPI7RequestC1EP14ompi_request_t>
    d096:	48 8b 45 e8          	mov    -0x18(%rbp),%rax
    d09a:	64 48 2b 04 25 28 00 	sub    %fs:0x28,%rax
    d0a1:	00 00 
    d0a3:	74 05                	je     d0aa <_ZNK3MPI4Comm6IrsendEPKviRKNS_8DatatypeEii+0x9c>
    d0a5:	e8 26 d4 ff ff       	call   a4d0 <__stack_chk_fail@plt>
    d0aa:	48 8b 45 d8          	mov    -0x28(%rbp),%rax
    d0ae:	48 8b 5d f8          	mov    -0x8(%rbp),%rbx
    d0b2:	c9                   	leave  
    d0b3:	c3                   	ret    

000000000000d0b4 <_ZNK3MPI4Comm5IrecvEPviRKNS_8DatatypeEii>:
    d0b4:	f3 0f 1e fa          	endbr64 
    d0b8:	55                   	push   %rbp
    d0b9:	48 89 e5             	mov    %rsp,%rbp
    d0bc:	53                   	push   %rbx
    d0bd:	48 83 ec 48          	sub    $0x48,%rsp
    d0c1:	48 89 7d d8          	mov    %rdi,-0x28(%rbp)
    d0c5:	48 89 75 d0          	mov    %rsi,-0x30(%rbp)
    d0c9:	48 89 55 c8          	mov    %rdx,-0x38(%rbp)
    d0cd:	89 4d c4             	mov    %ecx,-0x3c(%rbp)
    d0d0:	4c 89 45 b8          	mov    %r8,-0x48(%rbp)
    d0d4:	44 89 4d c0          	mov    %r9d,-0x40(%rbp)
    d0d8:	64 48 8b 04 25 28 00 	mov    %fs:0x28,%rax
    d0df:	00 00 
    d0e1:	48 89 45 e8          	mov    %rax,-0x18(%rbp)
    d0e5:	31 c0                	xor    %eax,%eax
    d0e7:	48 8b 45 d0          	mov    -0x30(%rbp),%rax
    d0eb:	48 8b 58 08          	mov    0x8(%rax),%rbx
    d0ef:	48 8b 45 b8          	mov    -0x48(%rbp),%rax
    d0f3:	48 89 c7             	mov    %rax,%rdi
    d0f6:	e8 a5 e7 ff ff       	call   b8a0 <_ZNK3MPI8DatatypecvP15ompi_datatype_tEv>
    d0fb:	48 89 c7             	mov    %rax,%rdi
    d0fe:	8b 55 c0             	mov    -0x40(%rbp),%edx
    d101:	8b 75 c4             	mov    -0x3c(%rbp),%esi
    d104:	48 8b 45 c8          	mov    -0x38(%rbp),%rax
    d108:	48 83 ec 08          	sub    $0x8,%rsp
    d10c:	48 8d 4d e0          	lea    -0x20(%rbp),%rcx
    d110:	51                   	push   %rcx
    d111:	49 89 d9             	mov    %rbx,%r9
    d114:	44 8b 45 10          	mov    0x10(%rbp),%r8d
    d118:	89 d1                	mov    %edx,%ecx
    d11a:	48 89 fa             	mov    %rdi,%rdx
    d11d:	48 89 c7             	mov    %rax,%rdi
    d120:	e8 4b d5 ff ff       	call   a670 <MPI_Irecv@plt>
    d125:	48 83 c4 10          	add    $0x10,%rsp
    d129:	48 8b 55 e0          	mov    -0x20(%rbp),%rdx
    d12d:	48 8b 45 d8          	mov    -0x28(%rbp),%rax
    d131:	48 89 d6             	mov    %rdx,%rsi
    d134:	48 89 c7             	mov    %rax,%rdi
    d137:	e8 4c e8 ff ff       	call   b988 <_ZN3MPI7RequestC1EP14ompi_request_t>
    d13c:	48 8b 45 e8          	mov    -0x18(%rbp),%rax
    d140:	64 48 2b 04 25 28 00 	sub    %fs:0x28,%rax
    d147:	00 00 
    d149:	74 05                	je     d150 <_ZNK3MPI4Comm5IrecvEPviRKNS_8DatatypeEii+0x9c>
    d14b:	e8 80 d3 ff ff       	call   a4d0 <__stack_chk_fail@plt>
    d150:	48 8b 45 d8          	mov    -0x28(%rbp),%rax
    d154:	48 8b 5d f8          	mov    -0x8(%rbp),%rbx
    d158:	c9                   	leave  
    d159:	c3                   	ret    

000000000000d15a <_ZNK3MPI4Comm6IprobeEiiRNS_6StatusE>:
    d15a:	f3 0f 1e fa          	endbr64 
    d15e:	55                   	push   %rbp
    d15f:	48 89 e5             	mov    %rsp,%rbp
    d162:	48 83 ec 30          	sub    $0x30,%rsp
    d166:	48 89 7d e8          	mov    %rdi,-0x18(%rbp)
    d16a:	89 75 e4             	mov    %esi,-0x1c(%rbp)
    d16d:	89 55 e0             	mov    %edx,-0x20(%rbp)
    d170:	48 89 4d d8          	mov    %rcx,-0x28(%rbp)
    d174:	64 48 8b 04 25 28 00 	mov    %fs:0x28,%rax
    d17b:	00 00 
    d17d:	48 89 45 f8          	mov    %rax,-0x8(%rbp)
    d181:	31 c0                	xor    %eax,%eax
    d183:	48 8b 45 d8          	mov    -0x28(%rbp),%rax
    d187:	48 8d 78 08          	lea    0x8(%rax),%rdi
    d18b:	48 8b 45 e8          	mov    -0x18(%rbp),%rax
    d18f:	48 8b 50 08          	mov    0x8(%rax),%rdx
    d193:	48 8d 4d f4          	lea    -0xc(%rbp),%rcx
    d197:	8b 75 e0             	mov    -0x20(%rbp),%esi
    d19a:	8b 45 e4             	mov    -0x1c(%rbp),%eax
    d19d:	49 89 f8             	mov    %rdi,%r8
    d1a0:	89 c7                	mov    %eax,%edi
    d1a2:	e8 69 ce ff ff       	call   a010 <MPI_Iprobe@plt>
    d1a7:	8b 45 f4             	mov    -0xc(%rbp),%eax
    d1aa:	85 c0                	test   %eax,%eax
    d1ac:	0f 95 c0             	setne  %al
    d1af:	48 8b 55 f8          	mov    -0x8(%rbp),%rdx
    d1b3:	64 48 2b 14 25 28 00 	sub    %fs:0x28,%rdx
    d1ba:	00 00 
    d1bc:	74 05                	je     d1c3 <_ZNK3MPI4Comm6IprobeEiiRNS_6StatusE+0x69>
    d1be:	e8 0d d3 ff ff       	call   a4d0 <__stack_chk_fail@plt>
    d1c3:	c9                   	leave  
    d1c4:	c3                   	ret    
    d1c5:	90                   	nop

000000000000d1c6 <_ZNK3MPI4Comm6IprobeEii>:
    d1c6:	f3 0f 1e fa          	endbr64 
    d1ca:	55                   	push   %rbp
    d1cb:	48 89 e5             	mov    %rsp,%rbp
    d1ce:	48 83 ec 20          	sub    $0x20,%rsp
    d1d2:	48 89 7d e8          	mov    %rdi,-0x18(%rbp)
    d1d6:	89 75 e4             	mov    %esi,-0x1c(%rbp)
    d1d9:	89 55 e0             	mov    %edx,-0x20(%rbp)
    d1dc:	64 48 8b 04 25 28 00 	mov    %fs:0x28,%rax
    d1e3:	00 00 
    d1e5:	48 89 45 f8          	mov    %rax,-0x8(%rbp)
    d1e9:	31 c0                	xor    %eax,%eax
    d1eb:	48 8b 45 e8          	mov    -0x18(%rbp),%rax
    d1ef:	48 8b 50 08          	mov    0x8(%rax),%rdx
    d1f3:	48 8d 4d f4          	lea    -0xc(%rbp),%rcx
