
build/test/TEST_gather_scatter:     file format elf64-x86-64


Disassembly of section .init:

0000000000009000 <_init>:
    9000:	f3 0f 1e fa          	endbr64 
    9004:	48 83 ec 08          	sub    $0x8,%rsp
    9008:	48 8b 05 d9 3f 01 00 	mov    0x13fd9(%rip),%rax        # 1cfe8 <__gmon_start__@Base>
    900f:	48 85 c0             	test   %rax,%rax
    9012:	74 02                	je     9016 <_init+0x16>
    9014:	ff d0                	call   *%rax
    9016:	48 83 c4 08          	add    $0x8,%rsp
    901a:	c3                   	ret    

Disassembly of section .plt:

0000000000009020 <.plt>:
    9020:	ff 35 ca 38 01 00    	push   0x138ca(%rip)        # 1c8f0 <_GLOBAL_OFFSET_TABLE_+0x8>
    9026:	f2 ff 25 cb 38 01 00 	bnd jmp *0x138cb(%rip)        # 1c8f8 <_GLOBAL_OFFSET_TABLE_+0x10>
    902d:	0f 1f 00             	nopl   (%rax)
    9030:	f3 0f 1e fa          	endbr64 
    9034:	68 00 00 00 00       	push   $0x0
    9039:	f2 e9 e1 ff ff ff    	bnd jmp 9020 <_init+0x20>
    903f:	90                   	nop
    9040:	f3 0f 1e fa          	endbr64 
    9044:	68 01 00 00 00       	push   $0x1
    9049:	f2 e9 d1 ff ff ff    	bnd jmp 9020 <_init+0x20>
    904f:	90                   	nop
    9050:	f3 0f 1e fa          	endbr64 
    9054:	68 02 00 00 00       	push   $0x2
    9059:	f2 e9 c1 ff ff ff    	bnd jmp 9020 <_init+0x20>
    905f:	90                   	nop
    9060:	f3 0f 1e fa          	endbr64 
    9064:	68 03 00 00 00       	push   $0x3
    9069:	f2 e9 b1 ff ff ff    	bnd jmp 9020 <_init+0x20>
    906f:	90                   	nop
    9070:	f3 0f 1e fa          	endbr64 
    9074:	68 04 00 00 00       	push   $0x4
    9079:	f2 e9 a1 ff ff ff    	bnd jmp 9020 <_init+0x20>
    907f:	90                   	nop
    9080:	f3 0f 1e fa          	endbr64 
    9084:	68 05 00 00 00       	push   $0x5
    9089:	f2 e9 91 ff ff ff    	bnd jmp 9020 <_init+0x20>
    908f:	90                   	nop
    9090:	f3 0f 1e fa          	endbr64 
    9094:	68 06 00 00 00       	push   $0x6
    9099:	f2 e9 81 ff ff ff    	bnd jmp 9020 <_init+0x20>
    909f:	90                   	nop
    90a0:	f3 0f 1e fa          	endbr64 
    90a4:	68 07 00 00 00       	push   $0x7
    90a9:	f2 e9 71 ff ff ff    	bnd jmp 9020 <_init+0x20>
    90af:	90                   	nop
    90b0:	f3 0f 1e fa          	endbr64 
    90b4:	68 08 00 00 00       	push   $0x8
    90b9:	f2 e9 61 ff ff ff    	bnd jmp 9020 <_init+0x20>
    90bf:	90                   	nop
    90c0:	f3 0f 1e fa          	endbr64 
    90c4:	68 09 00 00 00       	push   $0x9
    90c9:	f2 e9 51 ff ff ff    	bnd jmp 9020 <_init+0x20>
    90cf:	90                   	nop
    90d0:	f3 0f 1e fa          	endbr64 
    90d4:	68 0a 00 00 00       	push   $0xa
    90d9:	f2 e9 41 ff ff ff    	bnd jmp 9020 <_init+0x20>
    90df:	90                   	nop
    90e0:	f3 0f 1e fa          	endbr64 
    90e4:	68 0b 00 00 00       	push   $0xb
    90e9:	f2 e9 31 ff ff ff    	bnd jmp 9020 <_init+0x20>
    90ef:	90                   	nop
    90f0:	f3 0f 1e fa          	endbr64 
    90f4:	68 0c 00 00 00       	push   $0xc
    90f9:	f2 e9 21 ff ff ff    	bnd jmp 9020 <_init+0x20>
    90ff:	90                   	nop
    9100:	f3 0f 1e fa          	endbr64 
    9104:	68 0d 00 00 00       	push   $0xd
    9109:	f2 e9 11 ff ff ff    	bnd jmp 9020 <_init+0x20>
    910f:	90                   	nop
    9110:	f3 0f 1e fa          	endbr64 
    9114:	68 0e 00 00 00       	push   $0xe
    9119:	f2 e9 01 ff ff ff    	bnd jmp 9020 <_init+0x20>
    911f:	90                   	nop
    9120:	f3 0f 1e fa          	endbr64 
    9124:	68 0f 00 00 00       	push   $0xf
    9129:	f2 e9 f1 fe ff ff    	bnd jmp 9020 <_init+0x20>
    912f:	90                   	nop
    9130:	f3 0f 1e fa          	endbr64 
    9134:	68 10 00 00 00       	push   $0x10
    9139:	f2 e9 e1 fe ff ff    	bnd jmp 9020 <_init+0x20>
    913f:	90                   	nop
    9140:	f3 0f 1e fa          	endbr64 
    9144:	68 11 00 00 00       	push   $0x11
    9149:	f2 e9 d1 fe ff ff    	bnd jmp 9020 <_init+0x20>
    914f:	90                   	nop
    9150:	f3 0f 1e fa          	endbr64 
    9154:	68 12 00 00 00       	push   $0x12
    9159:	f2 e9 c1 fe ff ff    	bnd jmp 9020 <_init+0x20>
    915f:	90                   	nop
    9160:	f3 0f 1e fa          	endbr64 
    9164:	68 13 00 00 00       	push   $0x13
    9169:	f2 e9 b1 fe ff ff    	bnd jmp 9020 <_init+0x20>
    916f:	90                   	nop
    9170:	f3 0f 1e fa          	endbr64 
    9174:	68 14 00 00 00       	push   $0x14
    9179:	f2 e9 a1 fe ff ff    	bnd jmp 9020 <_init+0x20>
    917f:	90                   	nop
    9180:	f3 0f 1e fa          	endbr64 
    9184:	68 15 00 00 00       	push   $0x15
    9189:	f2 e9 91 fe ff ff    	bnd jmp 9020 <_init+0x20>
    918f:	90                   	nop
    9190:	f3 0f 1e fa          	endbr64 
    9194:	68 16 00 00 00       	push   $0x16
    9199:	f2 e9 81 fe ff ff    	bnd jmp 9020 <_init+0x20>
    919f:	90                   	nop
    91a0:	f3 0f 1e fa          	endbr64 
    91a4:	68 17 00 00 00       	push   $0x17
    91a9:	f2 e9 71 fe ff ff    	bnd jmp 9020 <_init+0x20>
    91af:	90                   	nop
    91b0:	f3 0f 1e fa          	endbr64 
    91b4:	68 18 00 00 00       	push   $0x18
    91b9:	f2 e9 61 fe ff ff    	bnd jmp 9020 <_init+0x20>
    91bf:	90                   	nop
    91c0:	f3 0f 1e fa          	endbr64 
    91c4:	68 19 00 00 00       	push   $0x19
    91c9:	f2 e9 51 fe ff ff    	bnd jmp 9020 <_init+0x20>
    91cf:	90                   	nop
    91d0:	f3 0f 1e fa          	endbr64 
    91d4:	68 1a 00 00 00       	push   $0x1a
    91d9:	f2 e9 41 fe ff ff    	bnd jmp 9020 <_init+0x20>
    91df:	90                   	nop
    91e0:	f3 0f 1e fa          	endbr64 
    91e4:	68 1b 00 00 00       	push   $0x1b
    91e9:	f2 e9 31 fe ff ff    	bnd jmp 9020 <_init+0x20>
    91ef:	90                   	nop
    91f0:	f3 0f 1e fa          	endbr64 
    91f4:	68 1c 00 00 00       	push   $0x1c
    91f9:	f2 e9 21 fe ff ff    	bnd jmp 9020 <_init+0x20>
    91ff:	90                   	nop
    9200:	f3 0f 1e fa          	endbr64 
    9204:	68 1d 00 00 00       	push   $0x1d
    9209:	f2 e9 11 fe ff ff    	bnd jmp 9020 <_init+0x20>
    920f:	90                   	nop
    9210:	f3 0f 1e fa          	endbr64 
    9214:	68 1e 00 00 00       	push   $0x1e
    9219:	f2 e9 01 fe ff ff    	bnd jmp 9020 <_init+0x20>
    921f:	90                   	nop
    9220:	f3 0f 1e fa          	endbr64 
    9224:	68 1f 00 00 00       	push   $0x1f
    9229:	f2 e9 f1 fd ff ff    	bnd jmp 9020 <_init+0x20>
    922f:	90                   	nop
    9230:	f3 0f 1e fa          	endbr64 
    9234:	68 20 00 00 00       	push   $0x20
    9239:	f2 e9 e1 fd ff ff    	bnd jmp 9020 <_init+0x20>
    923f:	90                   	nop
    9240:	f3 0f 1e fa          	endbr64 
    9244:	68 21 00 00 00       	push   $0x21
    9249:	f2 e9 d1 fd ff ff    	bnd jmp 9020 <_init+0x20>
    924f:	90                   	nop
    9250:	f3 0f 1e fa          	endbr64 
    9254:	68 22 00 00 00       	push   $0x22
    9259:	f2 e9 c1 fd ff ff    	bnd jmp 9020 <_init+0x20>
    925f:	90                   	nop
    9260:	f3 0f 1e fa          	endbr64 
    9264:	68 23 00 00 00       	push   $0x23
    9269:	f2 e9 b1 fd ff ff    	bnd jmp 9020 <_init+0x20>
    926f:	90                   	nop
    9270:	f3 0f 1e fa          	endbr64 
    9274:	68 24 00 00 00       	push   $0x24
    9279:	f2 e9 a1 fd ff ff    	bnd jmp 9020 <_init+0x20>
    927f:	90                   	nop
    9280:	f3 0f 1e fa          	endbr64 
    9284:	68 25 00 00 00       	push   $0x25
    9289:	f2 e9 91 fd ff ff    	bnd jmp 9020 <_init+0x20>
    928f:	90                   	nop
    9290:	f3 0f 1e fa          	endbr64 
    9294:	68 26 00 00 00       	push   $0x26
    9299:	f2 e9 81 fd ff ff    	bnd jmp 9020 <_init+0x20>
    929f:	90                   	nop
    92a0:	f3 0f 1e fa          	endbr64 
    92a4:	68 27 00 00 00       	push   $0x27
    92a9:	f2 e9 71 fd ff ff    	bnd jmp 9020 <_init+0x20>
    92af:	90                   	nop
    92b0:	f3 0f 1e fa          	endbr64 
    92b4:	68 28 00 00 00       	push   $0x28
    92b9:	f2 e9 61 fd ff ff    	bnd jmp 9020 <_init+0x20>
    92bf:	90                   	nop
    92c0:	f3 0f 1e fa          	endbr64 
    92c4:	68 29 00 00 00       	push   $0x29
    92c9:	f2 e9 51 fd ff ff    	bnd jmp 9020 <_init+0x20>
    92cf:	90                   	nop
    92d0:	f3 0f 1e fa          	endbr64 
    92d4:	68 2a 00 00 00       	push   $0x2a
    92d9:	f2 e9 41 fd ff ff    	bnd jmp 9020 <_init+0x20>
    92df:	90                   	nop
    92e0:	f3 0f 1e fa          	endbr64 
    92e4:	68 2b 00 00 00       	push   $0x2b
    92e9:	f2 e9 31 fd ff ff    	bnd jmp 9020 <_init+0x20>
    92ef:	90                   	nop
    92f0:	f3 0f 1e fa          	endbr64 
    92f4:	68 2c 00 00 00       	push   $0x2c
    92f9:	f2 e9 21 fd ff ff    	bnd jmp 9020 <_init+0x20>
    92ff:	90                   	nop
    9300:	f3 0f 1e fa          	endbr64 
    9304:	68 2d 00 00 00       	push   $0x2d
    9309:	f2 e9 11 fd ff ff    	bnd jmp 9020 <_init+0x20>
    930f:	90                   	nop
    9310:	f3 0f 1e fa          	endbr64 
    9314:	68 2e 00 00 00       	push   $0x2e
    9319:	f2 e9 01 fd ff ff    	bnd jmp 9020 <_init+0x20>
    931f:	90                   	nop
    9320:	f3 0f 1e fa          	endbr64 
    9324:	68 2f 00 00 00       	push   $0x2f
    9329:	f2 e9 f1 fc ff ff    	bnd jmp 9020 <_init+0x20>
    932f:	90                   	nop
    9330:	f3 0f 1e fa          	endbr64 
    9334:	68 30 00 00 00       	push   $0x30
    9339:	f2 e9 e1 fc ff ff    	bnd jmp 9020 <_init+0x20>
    933f:	90                   	nop
    9340:	f3 0f 1e fa          	endbr64 
    9344:	68 31 00 00 00       	push   $0x31
    9349:	f2 e9 d1 fc ff ff    	bnd jmp 9020 <_init+0x20>
    934f:	90                   	nop
    9350:	f3 0f 1e fa          	endbr64 
    9354:	68 32 00 00 00       	push   $0x32
    9359:	f2 e9 c1 fc ff ff    	bnd jmp 9020 <_init+0x20>
    935f:	90                   	nop
    9360:	f3 0f 1e fa          	endbr64 
    9364:	68 33 00 00 00       	push   $0x33
    9369:	f2 e9 b1 fc ff ff    	bnd jmp 9020 <_init+0x20>
    936f:	90                   	nop
    9370:	f3 0f 1e fa          	endbr64 
    9374:	68 34 00 00 00       	push   $0x34
    9379:	f2 e9 a1 fc ff ff    	bnd jmp 9020 <_init+0x20>
    937f:	90                   	nop
    9380:	f3 0f 1e fa          	endbr64 
    9384:	68 35 00 00 00       	push   $0x35
    9389:	f2 e9 91 fc ff ff    	bnd jmp 9020 <_init+0x20>
    938f:	90                   	nop
    9390:	f3 0f 1e fa          	endbr64 
    9394:	68 36 00 00 00       	push   $0x36
    9399:	f2 e9 81 fc ff ff    	bnd jmp 9020 <_init+0x20>
    939f:	90                   	nop
    93a0:	f3 0f 1e fa          	endbr64 
    93a4:	68 37 00 00 00       	push   $0x37
    93a9:	f2 e9 71 fc ff ff    	bnd jmp 9020 <_init+0x20>
    93af:	90                   	nop
    93b0:	f3 0f 1e fa          	endbr64 
    93b4:	68 38 00 00 00       	push   $0x38
    93b9:	f2 e9 61 fc ff ff    	bnd jmp 9020 <_init+0x20>
    93bf:	90                   	nop
    93c0:	f3 0f 1e fa          	endbr64 
    93c4:	68 39 00 00 00       	push   $0x39
    93c9:	f2 e9 51 fc ff ff    	bnd jmp 9020 <_init+0x20>
    93cf:	90                   	nop
    93d0:	f3 0f 1e fa          	endbr64 
    93d4:	68 3a 00 00 00       	push   $0x3a
    93d9:	f2 e9 41 fc ff ff    	bnd jmp 9020 <_init+0x20>
    93df:	90                   	nop
    93e0:	f3 0f 1e fa          	endbr64 
    93e4:	68 3b 00 00 00       	push   $0x3b
    93e9:	f2 e9 31 fc ff ff    	bnd jmp 9020 <_init+0x20>
    93ef:	90                   	nop
    93f0:	f3 0f 1e fa          	endbr64 
    93f4:	68 3c 00 00 00       	push   $0x3c
    93f9:	f2 e9 21 fc ff ff    	bnd jmp 9020 <_init+0x20>
    93ff:	90                   	nop
    9400:	f3 0f 1e fa          	endbr64 
    9404:	68 3d 00 00 00       	push   $0x3d
    9409:	f2 e9 11 fc ff ff    	bnd jmp 9020 <_init+0x20>
    940f:	90                   	nop
    9410:	f3 0f 1e fa          	endbr64 
    9414:	68 3e 00 00 00       	push   $0x3e
    9419:	f2 e9 01 fc ff ff    	bnd jmp 9020 <_init+0x20>
    941f:	90                   	nop
    9420:	f3 0f 1e fa          	endbr64 
    9424:	68 3f 00 00 00       	push   $0x3f
    9429:	f2 e9 f1 fb ff ff    	bnd jmp 9020 <_init+0x20>
    942f:	90                   	nop
    9430:	f3 0f 1e fa          	endbr64 
    9434:	68 40 00 00 00       	push   $0x40
    9439:	f2 e9 e1 fb ff ff    	bnd jmp 9020 <_init+0x20>
    943f:	90                   	nop
    9440:	f3 0f 1e fa          	endbr64 
    9444:	68 41 00 00 00       	push   $0x41
    9449:	f2 e9 d1 fb ff ff    	bnd jmp 9020 <_init+0x20>
    944f:	90                   	nop
    9450:	f3 0f 1e fa          	endbr64 
    9454:	68 42 00 00 00       	push   $0x42
    9459:	f2 e9 c1 fb ff ff    	bnd jmp 9020 <_init+0x20>
    945f:	90                   	nop
    9460:	f3 0f 1e fa          	endbr64 
    9464:	68 43 00 00 00       	push   $0x43
    9469:	f2 e9 b1 fb ff ff    	bnd jmp 9020 <_init+0x20>
    946f:	90                   	nop
    9470:	f3 0f 1e fa          	endbr64 
    9474:	68 44 00 00 00       	push   $0x44
    9479:	f2 e9 a1 fb ff ff    	bnd jmp 9020 <_init+0x20>
    947f:	90                   	nop
    9480:	f3 0f 1e fa          	endbr64 
    9484:	68 45 00 00 00       	push   $0x45
    9489:	f2 e9 91 fb ff ff    	bnd jmp 9020 <_init+0x20>
    948f:	90                   	nop
    9490:	f3 0f 1e fa          	endbr64 
    9494:	68 46 00 00 00       	push   $0x46
    9499:	f2 e9 81 fb ff ff    	bnd jmp 9020 <_init+0x20>
    949f:	90                   	nop
    94a0:	f3 0f 1e fa          	endbr64 
    94a4:	68 47 00 00 00       	push   $0x47
    94a9:	f2 e9 71 fb ff ff    	bnd jmp 9020 <_init+0x20>
    94af:	90                   	nop
    94b0:	f3 0f 1e fa          	endbr64 
    94b4:	68 48 00 00 00       	push   $0x48
    94b9:	f2 e9 61 fb ff ff    	bnd jmp 9020 <_init+0x20>
    94bf:	90                   	nop
    94c0:	f3 0f 1e fa          	endbr64 
    94c4:	68 49 00 00 00       	push   $0x49
    94c9:	f2 e9 51 fb ff ff    	bnd jmp 9020 <_init+0x20>
    94cf:	90                   	nop
    94d0:	f3 0f 1e fa          	endbr64 
    94d4:	68 4a 00 00 00       	push   $0x4a
    94d9:	f2 e9 41 fb ff ff    	bnd jmp 9020 <_init+0x20>
    94df:	90                   	nop
    94e0:	f3 0f 1e fa          	endbr64 
    94e4:	68 4b 00 00 00       	push   $0x4b
    94e9:	f2 e9 31 fb ff ff    	bnd jmp 9020 <_init+0x20>
    94ef:	90                   	nop
    94f0:	f3 0f 1e fa          	endbr64 
    94f4:	68 4c 00 00 00       	push   $0x4c
    94f9:	f2 e9 21 fb ff ff    	bnd jmp 9020 <_init+0x20>
    94ff:	90                   	nop
    9500:	f3 0f 1e fa          	endbr64 
    9504:	68 4d 00 00 00       	push   $0x4d
    9509:	f2 e9 11 fb ff ff    	bnd jmp 9020 <_init+0x20>
    950f:	90                   	nop
    9510:	f3 0f 1e fa          	endbr64 
    9514:	68 4e 00 00 00       	push   $0x4e
    9519:	f2 e9 01 fb ff ff    	bnd jmp 9020 <_init+0x20>
    951f:	90                   	nop
    9520:	f3 0f 1e fa          	endbr64 
    9524:	68 4f 00 00 00       	push   $0x4f
    9529:	f2 e9 f1 fa ff ff    	bnd jmp 9020 <_init+0x20>
    952f:	90                   	nop
    9530:	f3 0f 1e fa          	endbr64 
    9534:	68 50 00 00 00       	push   $0x50
    9539:	f2 e9 e1 fa ff ff    	bnd jmp 9020 <_init+0x20>
    953f:	90                   	nop
    9540:	f3 0f 1e fa          	endbr64 
    9544:	68 51 00 00 00       	push   $0x51
    9549:	f2 e9 d1 fa ff ff    	bnd jmp 9020 <_init+0x20>
    954f:	90                   	nop
    9550:	f3 0f 1e fa          	endbr64 
    9554:	68 52 00 00 00       	push   $0x52
    9559:	f2 e9 c1 fa ff ff    	bnd jmp 9020 <_init+0x20>
    955f:	90                   	nop
    9560:	f3 0f 1e fa          	endbr64 
    9564:	68 53 00 00 00       	push   $0x53
    9569:	f2 e9 b1 fa ff ff    	bnd jmp 9020 <_init+0x20>
    956f:	90                   	nop
    9570:	f3 0f 1e fa          	endbr64 
    9574:	68 54 00 00 00       	push   $0x54
    9579:	f2 e9 a1 fa ff ff    	bnd jmp 9020 <_init+0x20>
    957f:	90                   	nop
    9580:	f3 0f 1e fa          	endbr64 
    9584:	68 55 00 00 00       	push   $0x55
    9589:	f2 e9 91 fa ff ff    	bnd jmp 9020 <_init+0x20>
    958f:	90                   	nop
    9590:	f3 0f 1e fa          	endbr64 
    9594:	68 56 00 00 00       	push   $0x56
    9599:	f2 e9 81 fa ff ff    	bnd jmp 9020 <_init+0x20>
    959f:	90                   	nop
    95a0:	f3 0f 1e fa          	endbr64 
    95a4:	68 57 00 00 00       	push   $0x57
    95a9:	f2 e9 71 fa ff ff    	bnd jmp 9020 <_init+0x20>
    95af:	90                   	nop
    95b0:	f3 0f 1e fa          	endbr64 
    95b4:	68 58 00 00 00       	push   $0x58
    95b9:	f2 e9 61 fa ff ff    	bnd jmp 9020 <_init+0x20>
    95bf:	90                   	nop
    95c0:	f3 0f 1e fa          	endbr64 
    95c4:	68 59 00 00 00       	push   $0x59
    95c9:	f2 e9 51 fa ff ff    	bnd jmp 9020 <_init+0x20>
    95cf:	90                   	nop
    95d0:	f3 0f 1e fa          	endbr64 
    95d4:	68 5a 00 00 00       	push   $0x5a
    95d9:	f2 e9 41 fa ff ff    	bnd jmp 9020 <_init+0x20>
    95df:	90                   	nop
    95e0:	f3 0f 1e fa          	endbr64 
    95e4:	68 5b 00 00 00       	push   $0x5b
    95e9:	f2 e9 31 fa ff ff    	bnd jmp 9020 <_init+0x20>
    95ef:	90                   	nop
    95f0:	f3 0f 1e fa          	endbr64 
    95f4:	68 5c 00 00 00       	push   $0x5c
    95f9:	f2 e9 21 fa ff ff    	bnd jmp 9020 <_init+0x20>
    95ff:	90                   	nop
    9600:	f3 0f 1e fa          	endbr64 
    9604:	68 5d 00 00 00       	push   $0x5d
    9609:	f2 e9 11 fa ff ff    	bnd jmp 9020 <_init+0x20>
    960f:	90                   	nop
    9610:	f3 0f 1e fa          	endbr64 
    9614:	68 5e 00 00 00       	push   $0x5e
    9619:	f2 e9 01 fa ff ff    	bnd jmp 9020 <_init+0x20>
    961f:	90                   	nop
    9620:	f3 0f 1e fa          	endbr64 
    9624:	68 5f 00 00 00       	push   $0x5f
    9629:	f2 e9 f1 f9 ff ff    	bnd jmp 9020 <_init+0x20>
    962f:	90                   	nop
    9630:	f3 0f 1e fa          	endbr64 
    9634:	68 60 00 00 00       	push   $0x60
    9639:	f2 e9 e1 f9 ff ff    	bnd jmp 9020 <_init+0x20>
    963f:	90                   	nop
    9640:	f3 0f 1e fa          	endbr64 
    9644:	68 61 00 00 00       	push   $0x61
    9649:	f2 e9 d1 f9 ff ff    	bnd jmp 9020 <_init+0x20>
    964f:	90                   	nop
    9650:	f3 0f 1e fa          	endbr64 
    9654:	68 62 00 00 00       	push   $0x62
    9659:	f2 e9 c1 f9 ff ff    	bnd jmp 9020 <_init+0x20>
    965f:	90                   	nop
    9660:	f3 0f 1e fa          	endbr64 
    9664:	68 63 00 00 00       	push   $0x63
    9669:	f2 e9 b1 f9 ff ff    	bnd jmp 9020 <_init+0x20>
    966f:	90                   	nop
    9670:	f3 0f 1e fa          	endbr64 
    9674:	68 64 00 00 00       	push   $0x64
    9679:	f2 e9 a1 f9 ff ff    	bnd jmp 9020 <_init+0x20>
    967f:	90                   	nop
    9680:	f3 0f 1e fa          	endbr64 
    9684:	68 65 00 00 00       	push   $0x65
    9689:	f2 e9 91 f9 ff ff    	bnd jmp 9020 <_init+0x20>
    968f:	90                   	nop
    9690:	f3 0f 1e fa          	endbr64 
    9694:	68 66 00 00 00       	push   $0x66
    9699:	f2 e9 81 f9 ff ff    	bnd jmp 9020 <_init+0x20>
    969f:	90                   	nop
    96a0:	f3 0f 1e fa          	endbr64 
    96a4:	68 67 00 00 00       	push   $0x67
    96a9:	f2 e9 71 f9 ff ff    	bnd jmp 9020 <_init+0x20>
    96af:	90                   	nop
    96b0:	f3 0f 1e fa          	endbr64 
    96b4:	68 68 00 00 00       	push   $0x68
    96b9:	f2 e9 61 f9 ff ff    	bnd jmp 9020 <_init+0x20>
    96bf:	90                   	nop
    96c0:	f3 0f 1e fa          	endbr64 
    96c4:	68 69 00 00 00       	push   $0x69
    96c9:	f2 e9 51 f9 ff ff    	bnd jmp 9020 <_init+0x20>
    96cf:	90                   	nop
    96d0:	f3 0f 1e fa          	endbr64 
    96d4:	68 6a 00 00 00       	push   $0x6a
    96d9:	f2 e9 41 f9 ff ff    	bnd jmp 9020 <_init+0x20>
    96df:	90                   	nop
    96e0:	f3 0f 1e fa          	endbr64 
    96e4:	68 6b 00 00 00       	push   $0x6b
    96e9:	f2 e9 31 f9 ff ff    	bnd jmp 9020 <_init+0x20>
    96ef:	90                   	nop
    96f0:	f3 0f 1e fa          	endbr64 
    96f4:	68 6c 00 00 00       	push   $0x6c
    96f9:	f2 e9 21 f9 ff ff    	bnd jmp 9020 <_init+0x20>
    96ff:	90                   	nop
    9700:	f3 0f 1e fa          	endbr64 
    9704:	68 6d 00 00 00       	push   $0x6d
    9709:	f2 e9 11 f9 ff ff    	bnd jmp 9020 <_init+0x20>
    970f:	90                   	nop
    9710:	f3 0f 1e fa          	endbr64 
    9714:	68 6e 00 00 00       	push   $0x6e
    9719:	f2 e9 01 f9 ff ff    	bnd jmp 9020 <_init+0x20>
    971f:	90                   	nop
    9720:	f3 0f 1e fa          	endbr64 
    9724:	68 6f 00 00 00       	push   $0x6f
    9729:	f2 e9 f1 f8 ff ff    	bnd jmp 9020 <_init+0x20>
    972f:	90                   	nop
    9730:	f3 0f 1e fa          	endbr64 
    9734:	68 70 00 00 00       	push   $0x70
    9739:	f2 e9 e1 f8 ff ff    	bnd jmp 9020 <_init+0x20>
    973f:	90                   	nop
    9740:	f3 0f 1e fa          	endbr64 
    9744:	68 71 00 00 00       	push   $0x71
    9749:	f2 e9 d1 f8 ff ff    	bnd jmp 9020 <_init+0x20>
    974f:	90                   	nop
    9750:	f3 0f 1e fa          	endbr64 
    9754:	68 72 00 00 00       	push   $0x72
    9759:	f2 e9 c1 f8 ff ff    	bnd jmp 9020 <_init+0x20>
    975f:	90                   	nop
    9760:	f3 0f 1e fa          	endbr64 
    9764:	68 73 00 00 00       	push   $0x73
    9769:	f2 e9 b1 f8 ff ff    	bnd jmp 9020 <_init+0x20>
    976f:	90                   	nop
    9770:	f3 0f 1e fa          	endbr64 
    9774:	68 74 00 00 00       	push   $0x74
    9779:	f2 e9 a1 f8 ff ff    	bnd jmp 9020 <_init+0x20>
    977f:	90                   	nop
    9780:	f3 0f 1e fa          	endbr64 
    9784:	68 75 00 00 00       	push   $0x75
    9789:	f2 e9 91 f8 ff ff    	bnd jmp 9020 <_init+0x20>
    978f:	90                   	nop
    9790:	f3 0f 1e fa          	endbr64 
    9794:	68 76 00 00 00       	push   $0x76
    9799:	f2 e9 81 f8 ff ff    	bnd jmp 9020 <_init+0x20>
    979f:	90                   	nop
    97a0:	f3 0f 1e fa          	endbr64 
    97a4:	68 77 00 00 00       	push   $0x77
    97a9:	f2 e9 71 f8 ff ff    	bnd jmp 9020 <_init+0x20>
    97af:	90                   	nop
    97b0:	f3 0f 1e fa          	endbr64 
    97b4:	68 78 00 00 00       	push   $0x78
    97b9:	f2 e9 61 f8 ff ff    	bnd jmp 9020 <_init+0x20>
    97bf:	90                   	nop
    97c0:	f3 0f 1e fa          	endbr64 
    97c4:	68 79 00 00 00       	push   $0x79
    97c9:	f2 e9 51 f8 ff ff    	bnd jmp 9020 <_init+0x20>
    97cf:	90                   	nop
    97d0:	f3 0f 1e fa          	endbr64 
    97d4:	68 7a 00 00 00       	push   $0x7a
    97d9:	f2 e9 41 f8 ff ff    	bnd jmp 9020 <_init+0x20>
    97df:	90                   	nop
    97e0:	f3 0f 1e fa          	endbr64 
    97e4:	68 7b 00 00 00       	push   $0x7b
    97e9:	f2 e9 31 f8 ff ff    	bnd jmp 9020 <_init+0x20>
    97ef:	90                   	nop
    97f0:	f3 0f 1e fa          	endbr64 
    97f4:	68 7c 00 00 00       	push   $0x7c
    97f9:	f2 e9 21 f8 ff ff    	bnd jmp 9020 <_init+0x20>
    97ff:	90                   	nop
    9800:	f3 0f 1e fa          	endbr64 
    9804:	68 7d 00 00 00       	push   $0x7d
    9809:	f2 e9 11 f8 ff ff    	bnd jmp 9020 <_init+0x20>
    980f:	90                   	nop
    9810:	f3 0f 1e fa          	endbr64 
    9814:	68 7e 00 00 00       	push   $0x7e
    9819:	f2 e9 01 f8 ff ff    	bnd jmp 9020 <_init+0x20>
    981f:	90                   	nop
    9820:	f3 0f 1e fa          	endbr64 
    9824:	68 7f 00 00 00       	push   $0x7f
    9829:	f2 e9 f1 f7 ff ff    	bnd jmp 9020 <_init+0x20>
    982f:	90                   	nop
    9830:	f3 0f 1e fa          	endbr64 
    9834:	68 80 00 00 00       	push   $0x80
    9839:	f2 e9 e1 f7 ff ff    	bnd jmp 9020 <_init+0x20>
    983f:	90                   	nop
    9840:	f3 0f 1e fa          	endbr64 
    9844:	68 81 00 00 00       	push   $0x81
    9849:	f2 e9 d1 f7 ff ff    	bnd jmp 9020 <_init+0x20>
    984f:	90                   	nop
    9850:	f3 0f 1e fa          	endbr64 
    9854:	68 82 00 00 00       	push   $0x82
    9859:	f2 e9 c1 f7 ff ff    	bnd jmp 9020 <_init+0x20>
    985f:	90                   	nop
    9860:	f3 0f 1e fa          	endbr64 
    9864:	68 83 00 00 00       	push   $0x83
    9869:	f2 e9 b1 f7 ff ff    	bnd jmp 9020 <_init+0x20>
    986f:	90                   	nop
    9870:	f3 0f 1e fa          	endbr64 
    9874:	68 84 00 00 00       	push   $0x84
    9879:	f2 e9 a1 f7 ff ff    	bnd jmp 9020 <_init+0x20>
    987f:	90                   	nop
    9880:	f3 0f 1e fa          	endbr64 
    9884:	68 85 00 00 00       	push   $0x85
    9889:	f2 e9 91 f7 ff ff    	bnd jmp 9020 <_init+0x20>
    988f:	90                   	nop
    9890:	f3 0f 1e fa          	endbr64 
    9894:	68 86 00 00 00       	push   $0x86
    9899:	f2 e9 81 f7 ff ff    	bnd jmp 9020 <_init+0x20>
    989f:	90                   	nop
    98a0:	f3 0f 1e fa          	endbr64 
    98a4:	68 87 00 00 00       	push   $0x87
    98a9:	f2 e9 71 f7 ff ff    	bnd jmp 9020 <_init+0x20>
    98af:	90                   	nop
    98b0:	f3 0f 1e fa          	endbr64 
    98b4:	68 88 00 00 00       	push   $0x88
    98b9:	f2 e9 61 f7 ff ff    	bnd jmp 9020 <_init+0x20>
    98bf:	90                   	nop
    98c0:	f3 0f 1e fa          	endbr64 
    98c4:	68 89 00 00 00       	push   $0x89
    98c9:	f2 e9 51 f7 ff ff    	bnd jmp 9020 <_init+0x20>
    98cf:	90                   	nop
    98d0:	f3 0f 1e fa          	endbr64 
    98d4:	68 8a 00 00 00       	push   $0x8a
    98d9:	f2 e9 41 f7 ff ff    	bnd jmp 9020 <_init+0x20>
    98df:	90                   	nop
    98e0:	f3 0f 1e fa          	endbr64 
    98e4:	68 8b 00 00 00       	push   $0x8b
    98e9:	f2 e9 31 f7 ff ff    	bnd jmp 9020 <_init+0x20>
    98ef:	90                   	nop
    98f0:	f3 0f 1e fa          	endbr64 
    98f4:	68 8c 00 00 00       	push   $0x8c
    98f9:	f2 e9 21 f7 ff ff    	bnd jmp 9020 <_init+0x20>
    98ff:	90                   	nop
    9900:	f3 0f 1e fa          	endbr64 
    9904:	68 8d 00 00 00       	push   $0x8d
    9909:	f2 e9 11 f7 ff ff    	bnd jmp 9020 <_init+0x20>
    990f:	90                   	nop
    9910:	f3 0f 1e fa          	endbr64 
    9914:	68 8e 00 00 00       	push   $0x8e
    9919:	f2 e9 01 f7 ff ff    	bnd jmp 9020 <_init+0x20>
    991f:	90                   	nop
    9920:	f3 0f 1e fa          	endbr64 
    9924:	68 8f 00 00 00       	push   $0x8f
    9929:	f2 e9 f1 f6 ff ff    	bnd jmp 9020 <_init+0x20>
    992f:	90                   	nop
    9930:	f3 0f 1e fa          	endbr64 
    9934:	68 90 00 00 00       	push   $0x90
    9939:	f2 e9 e1 f6 ff ff    	bnd jmp 9020 <_init+0x20>
    993f:	90                   	nop
    9940:	f3 0f 1e fa          	endbr64 
    9944:	68 91 00 00 00       	push   $0x91
    9949:	f2 e9 d1 f6 ff ff    	bnd jmp 9020 <_init+0x20>
    994f:	90                   	nop
    9950:	f3 0f 1e fa          	endbr64 
    9954:	68 92 00 00 00       	push   $0x92
    9959:	f2 e9 c1 f6 ff ff    	bnd jmp 9020 <_init+0x20>
    995f:	90                   	nop
    9960:	f3 0f 1e fa          	endbr64 
    9964:	68 93 00 00 00       	push   $0x93
    9969:	f2 e9 b1 f6 ff ff    	bnd jmp 9020 <_init+0x20>
    996f:	90                   	nop
    9970:	f3 0f 1e fa          	endbr64 
    9974:	68 94 00 00 00       	push   $0x94
    9979:	f2 e9 a1 f6 ff ff    	bnd jmp 9020 <_init+0x20>
    997f:	90                   	nop
    9980:	f3 0f 1e fa          	endbr64 
    9984:	68 95 00 00 00       	push   $0x95
    9989:	f2 e9 91 f6 ff ff    	bnd jmp 9020 <_init+0x20>
    998f:	90                   	nop
    9990:	f3 0f 1e fa          	endbr64 
    9994:	68 96 00 00 00       	push   $0x96
    9999:	f2 e9 81 f6 ff ff    	bnd jmp 9020 <_init+0x20>
    999f:	90                   	nop
    99a0:	f3 0f 1e fa          	endbr64 
    99a4:	68 97 00 00 00       	push   $0x97
    99a9:	f2 e9 71 f6 ff ff    	bnd jmp 9020 <_init+0x20>
    99af:	90                   	nop
    99b0:	f3 0f 1e fa          	endbr64 
    99b4:	68 98 00 00 00       	push   $0x98
    99b9:	f2 e9 61 f6 ff ff    	bnd jmp 9020 <_init+0x20>
    99bf:	90                   	nop
    99c0:	f3 0f 1e fa          	endbr64 
    99c4:	68 99 00 00 00       	push   $0x99
    99c9:	f2 e9 51 f6 ff ff    	bnd jmp 9020 <_init+0x20>
    99cf:	90                   	nop
    99d0:	f3 0f 1e fa          	endbr64 
    99d4:	68 9a 00 00 00       	push   $0x9a
    99d9:	f2 e9 41 f6 ff ff    	bnd jmp 9020 <_init+0x20>
    99df:	90                   	nop
    99e0:	f3 0f 1e fa          	endbr64 
    99e4:	68 9b 00 00 00       	push   $0x9b
    99e9:	f2 e9 31 f6 ff ff    	bnd jmp 9020 <_init+0x20>
    99ef:	90                   	nop
    99f0:	f3 0f 1e fa          	endbr64 
    99f4:	68 9c 00 00 00       	push   $0x9c
    99f9:	f2 e9 21 f6 ff ff    	bnd jmp 9020 <_init+0x20>
    99ff:	90                   	nop
    9a00:	f3 0f 1e fa          	endbr64 
    9a04:	68 9d 00 00 00       	push   $0x9d
    9a09:	f2 e9 11 f6 ff ff    	bnd jmp 9020 <_init+0x20>
    9a0f:	90                   	nop
    9a10:	f3 0f 1e fa          	endbr64 
    9a14:	68 9e 00 00 00       	push   $0x9e
    9a19:	f2 e9 01 f6 ff ff    	bnd jmp 9020 <_init+0x20>
    9a1f:	90                   	nop
    9a20:	f3 0f 1e fa          	endbr64 
    9a24:	68 9f 00 00 00       	push   $0x9f
    9a29:	f2 e9 f1 f5 ff ff    	bnd jmp 9020 <_init+0x20>
    9a2f:	90                   	nop
    9a30:	f3 0f 1e fa          	endbr64 
    9a34:	68 a0 00 00 00       	push   $0xa0
    9a39:	f2 e9 e1 f5 ff ff    	bnd jmp 9020 <_init+0x20>
    9a3f:	90                   	nop
    9a40:	f3 0f 1e fa          	endbr64 
    9a44:	68 a1 00 00 00       	push   $0xa1
    9a49:	f2 e9 d1 f5 ff ff    	bnd jmp 9020 <_init+0x20>
    9a4f:	90                   	nop
    9a50:	f3 0f 1e fa          	endbr64 
    9a54:	68 a2 00 00 00       	push   $0xa2
    9a59:	f2 e9 c1 f5 ff ff    	bnd jmp 9020 <_init+0x20>
    9a5f:	90                   	nop
    9a60:	f3 0f 1e fa          	endbr64 
    9a64:	68 a3 00 00 00       	push   $0xa3
    9a69:	f2 e9 b1 f5 ff ff    	bnd jmp 9020 <_init+0x20>
    9a6f:	90                   	nop
    9a70:	f3 0f 1e fa          	endbr64 
    9a74:	68 a4 00 00 00       	push   $0xa4
    9a79:	f2 e9 a1 f5 ff ff    	bnd jmp 9020 <_init+0x20>
    9a7f:	90                   	nop
    9a80:	f3 0f 1e fa          	endbr64 
    9a84:	68 a5 00 00 00       	push   $0xa5
    9a89:	f2 e9 91 f5 ff ff    	bnd jmp 9020 <_init+0x20>
    9a8f:	90                   	nop
    9a90:	f3 0f 1e fa          	endbr64 
    9a94:	68 a6 00 00 00       	push   $0xa6
    9a99:	f2 e9 81 f5 ff ff    	bnd jmp 9020 <_init+0x20>
    9a9f:	90                   	nop
    9aa0:	f3 0f 1e fa          	endbr64 
    9aa4:	68 a7 00 00 00       	push   $0xa7
    9aa9:	f2 e9 71 f5 ff ff    	bnd jmp 9020 <_init+0x20>
    9aaf:	90                   	nop
    9ab0:	f3 0f 1e fa          	endbr64 
    9ab4:	68 a8 00 00 00       	push   $0xa8
    9ab9:	f2 e9 61 f5 ff ff    	bnd jmp 9020 <_init+0x20>
    9abf:	90                   	nop
    9ac0:	f3 0f 1e fa          	endbr64 
    9ac4:	68 a9 00 00 00       	push   $0xa9
    9ac9:	f2 e9 51 f5 ff ff    	bnd jmp 9020 <_init+0x20>
    9acf:	90                   	nop
    9ad0:	f3 0f 1e fa          	endbr64 
    9ad4:	68 aa 00 00 00       	push   $0xaa
    9ad9:	f2 e9 41 f5 ff ff    	bnd jmp 9020 <_init+0x20>
    9adf:	90                   	nop
    9ae0:	f3 0f 1e fa          	endbr64 
    9ae4:	68 ab 00 00 00       	push   $0xab
    9ae9:	f2 e9 31 f5 ff ff    	bnd jmp 9020 <_init+0x20>
    9aef:	90                   	nop
    9af0:	f3 0f 1e fa          	endbr64 
    9af4:	68 ac 00 00 00       	push   $0xac
    9af9:	f2 e9 21 f5 ff ff    	bnd jmp 9020 <_init+0x20>
    9aff:	90                   	nop
    9b00:	f3 0f 1e fa          	endbr64 
    9b04:	68 ad 00 00 00       	push   $0xad
    9b09:	f2 e9 11 f5 ff ff    	bnd jmp 9020 <_init+0x20>
    9b0f:	90                   	nop
    9b10:	f3 0f 1e fa          	endbr64 
    9b14:	68 ae 00 00 00       	push   $0xae
    9b19:	f2 e9 01 f5 ff ff    	bnd jmp 9020 <_init+0x20>
    9b1f:	90                   	nop
    9b20:	f3 0f 1e fa          	endbr64 
    9b24:	68 af 00 00 00       	push   $0xaf
    9b29:	f2 e9 f1 f4 ff ff    	bnd jmp 9020 <_init+0x20>
    9b2f:	90                   	nop
    9b30:	f3 0f 1e fa          	endbr64 
    9b34:	68 b0 00 00 00       	push   $0xb0
    9b39:	f2 e9 e1 f4 ff ff    	bnd jmp 9020 <_init+0x20>
    9b3f:	90                   	nop
    9b40:	f3 0f 1e fa          	endbr64 
    9b44:	68 b1 00 00 00       	push   $0xb1
    9b49:	f2 e9 d1 f4 ff ff    	bnd jmp 9020 <_init+0x20>
    9b4f:	90                   	nop
    9b50:	f3 0f 1e fa          	endbr64 
    9b54:	68 b2 00 00 00       	push   $0xb2
    9b59:	f2 e9 c1 f4 ff ff    	bnd jmp 9020 <_init+0x20>
    9b5f:	90                   	nop
    9b60:	f3 0f 1e fa          	endbr64 
    9b64:	68 b3 00 00 00       	push   $0xb3
    9b69:	f2 e9 b1 f4 ff ff    	bnd jmp 9020 <_init+0x20>
    9b6f:	90                   	nop
    9b70:	f3 0f 1e fa          	endbr64 
    9b74:	68 b4 00 00 00       	push   $0xb4
    9b79:	f2 e9 a1 f4 ff ff    	bnd jmp 9020 <_init+0x20>
    9b7f:	90                   	nop
    9b80:	f3 0f 1e fa          	endbr64 
    9b84:	68 b5 00 00 00       	push   $0xb5
    9b89:	f2 e9 91 f4 ff ff    	bnd jmp 9020 <_init+0x20>
    9b8f:	90                   	nop
    9b90:	f3 0f 1e fa          	endbr64 
    9b94:	68 b6 00 00 00       	push   $0xb6
    9b99:	f2 e9 81 f4 ff ff    	bnd jmp 9020 <_init+0x20>
    9b9f:	90                   	nop
    9ba0:	f3 0f 1e fa          	endbr64 
    9ba4:	68 b7 00 00 00       	push   $0xb7
    9ba9:	f2 e9 71 f4 ff ff    	bnd jmp 9020 <_init+0x20>
    9baf:	90                   	nop
    9bb0:	f3 0f 1e fa          	endbr64 
    9bb4:	68 b8 00 00 00       	push   $0xb8
    9bb9:	f2 e9 61 f4 ff ff    	bnd jmp 9020 <_init+0x20>
    9bbf:	90                   	nop
    9bc0:	f3 0f 1e fa          	endbr64 
    9bc4:	68 b9 00 00 00       	push   $0xb9
    9bc9:	f2 e9 51 f4 ff ff    	bnd jmp 9020 <_init+0x20>
    9bcf:	90                   	nop
    9bd0:	f3 0f 1e fa          	endbr64 
    9bd4:	68 ba 00 00 00       	push   $0xba
    9bd9:	f2 e9 41 f4 ff ff    	bnd jmp 9020 <_init+0x20>
    9bdf:	90                   	nop
    9be0:	f3 0f 1e fa          	endbr64 
    9be4:	68 bb 00 00 00       	push   $0xbb
    9be9:	f2 e9 31 f4 ff ff    	bnd jmp 9020 <_init+0x20>
    9bef:	90                   	nop
    9bf0:	f3 0f 1e fa          	endbr64 
    9bf4:	68 bc 00 00 00       	push   $0xbc
    9bf9:	f2 e9 21 f4 ff ff    	bnd jmp 9020 <_init+0x20>
    9bff:	90                   	nop
    9c00:	f3 0f 1e fa          	endbr64 
    9c04:	68 bd 00 00 00       	push   $0xbd
    9c09:	f2 e9 11 f4 ff ff    	bnd jmp 9020 <_init+0x20>
    9c0f:	90                   	nop
    9c10:	f3 0f 1e fa          	endbr64 
    9c14:	68 be 00 00 00       	push   $0xbe
    9c19:	f2 e9 01 f4 ff ff    	bnd jmp 9020 <_init+0x20>
    9c1f:	90                   	nop
    9c20:	f3 0f 1e fa          	endbr64 
    9c24:	68 bf 00 00 00       	push   $0xbf
    9c29:	f2 e9 f1 f3 ff ff    	bnd jmp 9020 <_init+0x20>
    9c2f:	90                   	nop
    9c30:	f3 0f 1e fa          	endbr64 
    9c34:	68 c0 00 00 00       	push   $0xc0
    9c39:	f2 e9 e1 f3 ff ff    	bnd jmp 9020 <_init+0x20>
    9c3f:	90                   	nop
    9c40:	f3 0f 1e fa          	endbr64 
    9c44:	68 c1 00 00 00       	push   $0xc1
    9c49:	f2 e9 d1 f3 ff ff    	bnd jmp 9020 <_init+0x20>
    9c4f:	90                   	nop
    9c50:	f3 0f 1e fa          	endbr64 
    9c54:	68 c2 00 00 00       	push   $0xc2
    9c59:	f2 e9 c1 f3 ff ff    	bnd jmp 9020 <_init+0x20>
    9c5f:	90                   	nop
    9c60:	f3 0f 1e fa          	endbr64 
    9c64:	68 c3 00 00 00       	push   $0xc3
    9c69:	f2 e9 b1 f3 ff ff    	bnd jmp 9020 <_init+0x20>
    9c6f:	90                   	nop
    9c70:	f3 0f 1e fa          	endbr64 
    9c74:	68 c4 00 00 00       	push   $0xc4
    9c79:	f2 e9 a1 f3 ff ff    	bnd jmp 9020 <_init+0x20>
    9c7f:	90                   	nop
    9c80:	f3 0f 1e fa          	endbr64 
    9c84:	68 c5 00 00 00       	push   $0xc5
    9c89:	f2 e9 91 f3 ff ff    	bnd jmp 9020 <_init+0x20>
    9c8f:	90                   	nop
    9c90:	f3 0f 1e fa          	endbr64 
    9c94:	68 c6 00 00 00       	push   $0xc6
    9c99:	f2 e9 81 f3 ff ff    	bnd jmp 9020 <_init+0x20>
    9c9f:	90                   	nop
    9ca0:	f3 0f 1e fa          	endbr64 
    9ca4:	68 c7 00 00 00       	push   $0xc7
    9ca9:	f2 e9 71 f3 ff ff    	bnd jmp 9020 <_init+0x20>
    9caf:	90                   	nop
    9cb0:	f3 0f 1e fa          	endbr64 
    9cb4:	68 c8 00 00 00       	push   $0xc8
    9cb9:	f2 e9 61 f3 ff ff    	bnd jmp 9020 <_init+0x20>
    9cbf:	90                   	nop
    9cc0:	f3 0f 1e fa          	endbr64 
    9cc4:	68 c9 00 00 00       	push   $0xc9
    9cc9:	f2 e9 51 f3 ff ff    	bnd jmp 9020 <_init+0x20>
    9ccf:	90                   	nop
    9cd0:	f3 0f 1e fa          	endbr64 
    9cd4:	68 ca 00 00 00       	push   $0xca
    9cd9:	f2 e9 41 f3 ff ff    	bnd jmp 9020 <_init+0x20>
    9cdf:	90                   	nop
    9ce0:	f3 0f 1e fa          	endbr64 
    9ce4:	68 cb 00 00 00       	push   $0xcb
    9ce9:	f2 e9 31 f3 ff ff    	bnd jmp 9020 <_init+0x20>
    9cef:	90                   	nop
    9cf0:	f3 0f 1e fa          	endbr64 
    9cf4:	68 cc 00 00 00       	push   $0xcc
    9cf9:	f2 e9 21 f3 ff ff    	bnd jmp 9020 <_init+0x20>
    9cff:	90                   	nop
    9d00:	f3 0f 1e fa          	endbr64 
    9d04:	68 cd 00 00 00       	push   $0xcd
    9d09:	f2 e9 11 f3 ff ff    	bnd jmp 9020 <_init+0x20>
    9d0f:	90                   	nop
    9d10:	f3 0f 1e fa          	endbr64 
    9d14:	68 ce 00 00 00       	push   $0xce
    9d19:	f2 e9 01 f3 ff ff    	bnd jmp 9020 <_init+0x20>
    9d1f:	90                   	nop
    9d20:	f3 0f 1e fa          	endbr64 
    9d24:	68 cf 00 00 00       	push   $0xcf
    9d29:	f2 e9 f1 f2 ff ff    	bnd jmp 9020 <_init+0x20>
    9d2f:	90                   	nop
    9d30:	f3 0f 1e fa          	endbr64 
    9d34:	68 d0 00 00 00       	push   $0xd0
    9d39:	f2 e9 e1 f2 ff ff    	bnd jmp 9020 <_init+0x20>
    9d3f:	90                   	nop
    9d40:	f3 0f 1e fa          	endbr64 
    9d44:	68 d1 00 00 00       	push   $0xd1
    9d49:	f2 e9 d1 f2 ff ff    	bnd jmp 9020 <_init+0x20>
    9d4f:	90                   	nop
    9d50:	f3 0f 1e fa          	endbr64 
    9d54:	68 d2 00 00 00       	push   $0xd2
    9d59:	f2 e9 c1 f2 ff ff    	bnd jmp 9020 <_init+0x20>
    9d5f:	90                   	nop
    9d60:	f3 0f 1e fa          	endbr64 
    9d64:	68 d3 00 00 00       	push   $0xd3
    9d69:	f2 e9 b1 f2 ff ff    	bnd jmp 9020 <_init+0x20>
    9d6f:	90                   	nop
    9d70:	f3 0f 1e fa          	endbr64 
    9d74:	68 d4 00 00 00       	push   $0xd4
    9d79:	f2 e9 a1 f2 ff ff    	bnd jmp 9020 <_init+0x20>
    9d7f:	90                   	nop
    9d80:	f3 0f 1e fa          	endbr64 
    9d84:	68 d5 00 00 00       	push   $0xd5
    9d89:	f2 e9 91 f2 ff ff    	bnd jmp 9020 <_init+0x20>
    9d8f:	90                   	nop
    9d90:	f3 0f 1e fa          	endbr64 
    9d94:	68 d6 00 00 00       	push   $0xd6
    9d99:	f2 e9 81 f2 ff ff    	bnd jmp 9020 <_init+0x20>
    9d9f:	90                   	nop
    9da0:	f3 0f 1e fa          	endbr64 
    9da4:	68 d7 00 00 00       	push   $0xd7
    9da9:	f2 e9 71 f2 ff ff    	bnd jmp 9020 <_init+0x20>
    9daf:	90                   	nop

Disassembly of section .plt.got:

0000000000009db0 <__cxa_finalize@plt>:
    9db0:	f3 0f 1e fa          	endbr64 
    9db4:	f2 ff 25 0d 32 01 00 	bnd jmp *0x1320d(%rip)        # 1cfc8 <__cxa_finalize@GLIBC_2.2.5>
    9dbb:	0f 1f 44 00 00       	nopl   0x0(%rax,%rax,1)

Disassembly of section .plt.sec:

0000000000009dc0 <_Znam@plt>:
    9dc0:	f3 0f 1e fa          	endbr64 
    9dc4:	f2 ff 25 35 2b 01 00 	bnd jmp *0x12b35(%rip)        # 1c900 <_Znam@GLIBCXX_3.4>
    9dcb:	0f 1f 44 00 00       	nopl   0x0(%rax,%rax,1)

0000000000009dd0 <_ZNKSt7__cxx1112basic_stringIcSt11char_traitsIcESaIcEE8capacityEv@plt>:
    9dd0:	f3 0f 1e fa          	endbr64 
    9dd4:	f2 ff 25 2d 2b 01 00 	bnd jmp *0x12b2d(%rip)        # 1c908 <_ZNKSt7__cxx1112basic_stringIcSt11char_traitsIcESaIcEE8capacityEv@GLIBCXX_3.4.21>
    9ddb:	0f 1f 44 00 00       	nopl   0x0(%rax,%rax,1)

0000000000009de0 <printf@plt>:
    9de0:	f3 0f 1e fa          	endbr64 
    9de4:	f2 ff 25 25 2b 01 00 	bnd jmp *0x12b25(%rip)        # 1c910 <printf@GLIBC_2.2.5>
    9deb:	0f 1f 44 00 00       	nopl   0x0(%rax,%rax,1)

0000000000009df0 <MPI_Win_unlock@plt>:
    9df0:	f3 0f 1e fa          	endbr64 
    9df4:	f2 ff 25 1d 2b 01 00 	bnd jmp *0x12b1d(%rip)        # 1c918 <MPI_Win_unlock@Base>
    9dfb:	0f 1f 44 00 00       	nopl   0x0(%rax,%rax,1)

0000000000009e00 <MPI_Group_excl@plt>:
    9e00:	f3 0f 1e fa          	endbr64 
    9e04:	f2 ff 25 15 2b 01 00 	bnd jmp *0x12b15(%rip)        # 1c920 <MPI_Group_excl@Base>
    9e0b:	0f 1f 44 00 00       	nopl   0x0(%rax,%rax,1)

0000000000009e10 <MPI_Allgather@plt>:
    9e10:	f3 0f 1e fa          	endbr64 
    9e14:	f2 ff 25 0d 2b 01 00 	bnd jmp *0x12b0d(%rip)        # 1c928 <MPI_Allgather@Base>
    9e1b:	0f 1f 44 00 00       	nopl   0x0(%rax,%rax,1)

0000000000009e20 <MPI_Recv_init@plt>:
    9e20:	f3 0f 1e fa          	endbr64 
    9e24:	f2 ff 25 05 2b 01 00 	bnd jmp *0x12b05(%rip)        # 1c930 <MPI_Recv_init@Base>
    9e2b:	0f 1f 44 00 00       	nopl   0x0(%rax,%rax,1)

0000000000009e30 <MPI_Cart_create@plt>:
    9e30:	f3 0f 1e fa          	endbr64 
    9e34:	f2 ff 25 fd 2a 01 00 	bnd jmp *0x12afd(%rip)        # 1c938 <MPI_Cart_create@Base>
    9e3b:	0f 1f 44 00 00       	nopl   0x0(%rax,%rax,1)

0000000000009e40 <MPI_Comm_get_name@plt>:
    9e40:	f3 0f 1e fa          	endbr64 
    9e44:	f2 ff 25 f5 2a 01 00 	bnd jmp *0x12af5(%rip)        # 1c940 <MPI_Comm_get_name@Base>
    9e4b:	0f 1f 44 00 00       	nopl   0x0(%rax,%rax,1)

0000000000009e50 <MPI_Info_dup@plt>:
    9e50:	f3 0f 1e fa          	endbr64 
    9e54:	f2 ff 25 ed 2a 01 00 	bnd jmp *0x12aed(%rip)        # 1c948 <MPI_Info_dup@Base>
    9e5b:	0f 1f 44 00 00       	nopl   0x0(%rax,%rax,1)

0000000000009e60 <MPI_Irsend@plt>:
    9e60:	f3 0f 1e fa          	endbr64 
    9e64:	f2 ff 25 e5 2a 01 00 	bnd jmp *0x12ae5(%rip)        # 1c950 <MPI_Irsend@Base>
    9e6b:	0f 1f 44 00 00       	nopl   0x0(%rax,%rax,1)

0000000000009e70 <MPI_Bcast@plt>:
    9e70:	f3 0f 1e fa          	endbr64 
    9e74:	f2 ff 25 dd 2a 01 00 	bnd jmp *0x12add(%rip)        # 1c958 <MPI_Bcast@Base>
    9e7b:	0f 1f 44 00 00       	nopl   0x0(%rax,%rax,1)

0000000000009e80 <_ZSt7getlineIcSt11char_traitsIcESaIcEERSt13basic_istreamIT_T0_ES7_RNSt7__cxx1112basic_stringIS4_S5_T1_EE@plt>:
    9e80:	f3 0f 1e fa          	endbr64 
    9e84:	f2 ff 25 d5 2a 01 00 	bnd jmp *0x12ad5(%rip)        # 1c960 <_ZSt7getlineIcSt11char_traitsIcESaIcEERSt13basic_istreamIT_T0_ES7_RNSt7__cxx1112basic_stringIS4_S5_T1_EE@GLIBCXX_3.4.21>
    9e8b:	0f 1f 44 00 00       	nopl   0x0(%rax,%rax,1)

0000000000009e90 <MPI_Ssend@plt>:
    9e90:	f3 0f 1e fa          	endbr64 
    9e94:	f2 ff 25 cd 2a 01 00 	bnd jmp *0x12acd(%rip)        # 1c968 <MPI_Ssend@Base>
    9e9b:	0f 1f 44 00 00       	nopl   0x0(%rax,%rax,1)

0000000000009ea0 <MPI_Group_range_incl@plt>:
    9ea0:	f3 0f 1e fa          	endbr64 
    9ea4:	f2 ff 25 c5 2a 01 00 	bnd jmp *0x12ac5(%rip)        # 1c970 <MPI_Group_range_incl@Base>
    9eab:	0f 1f 44 00 00       	nopl   0x0(%rax,%rax,1)

0000000000009eb0 <_ZNSt14basic_ifstreamIcSt11char_traitsIcEE5closeEv@plt>:
    9eb0:	f3 0f 1e fa          	endbr64 
    9eb4:	f2 ff 25 bd 2a 01 00 	bnd jmp *0x12abd(%rip)        # 1c978 <_ZNSt14basic_ifstreamIcSt11char_traitsIcEE5closeEv@GLIBCXX_3.4>
    9ebb:	0f 1f 44 00 00       	nopl   0x0(%rax,%rax,1)

0000000000009ec0 <MPI_Op_create@plt>:
    9ec0:	f3 0f 1e fa          	endbr64 
    9ec4:	f2 ff 25 b5 2a 01 00 	bnd jmp *0x12ab5(%rip)        # 1c980 <MPI_Op_create@Base>
    9ecb:	0f 1f 44 00 00       	nopl   0x0(%rax,%rax,1)

0000000000009ed0 <MPI_Group_size@plt>:
    9ed0:	f3 0f 1e fa          	endbr64 
    9ed4:	f2 ff 25 ad 2a 01 00 	bnd jmp *0x12aad(%rip)        # 1c988 <MPI_Group_size@Base>
    9edb:	0f 1f 44 00 00       	nopl   0x0(%rax,%rax,1)

0000000000009ee0 <MPI_Comm_disconnect@plt>:
    9ee0:	f3 0f 1e fa          	endbr64 
    9ee4:	f2 ff 25 a5 2a 01 00 	bnd jmp *0x12aa5(%rip)        # 1c990 <MPI_Comm_disconnect@Base>
    9eeb:	0f 1f 44 00 00       	nopl   0x0(%rax,%rax,1)

0000000000009ef0 <_ZNSolsEm@plt>:
    9ef0:	f3 0f 1e fa          	endbr64 
    9ef4:	f2 ff 25 9d 2a 01 00 	bnd jmp *0x12a9d(%rip)        # 1c998 <_ZNSolsEm@GLIBCXX_3.4>
    9efb:	0f 1f 44 00 00       	nopl   0x0(%rax,%rax,1)

0000000000009f00 <_ZNSt7__cxx1112basic_stringIcSt11char_traitsIcESaIcEE6insertEmPKc@plt>:
    9f00:	f3 0f 1e fa          	endbr64 
    9f04:	f2 ff 25 95 2a 01 00 	bnd jmp *0x12a95(%rip)        # 1c9a0 <_ZNSt7__cxx1112basic_stringIcSt11char_traitsIcESaIcEE6insertEmPKc@GLIBCXX_3.4.21>
    9f0b:	0f 1f 44 00 00       	nopl   0x0(%rax,%rax,1)

0000000000009f10 <MPI_Win_get_name@plt>:
    9f10:	f3 0f 1e fa          	endbr64 
    9f14:	f2 ff 25 8d 2a 01 00 	bnd jmp *0x12a8d(%rip)        # 1c9a8 <MPI_Win_get_name@Base>
    9f1b:	0f 1f 44 00 00       	nopl   0x0(%rax,%rax,1)

0000000000009f20 <_ZNSt14basic_ifstreamIcSt11char_traitsIcEED1Ev@plt>:
    9f20:	f3 0f 1e fa          	endbr64 
    9f24:	f2 ff 25 85 2a 01 00 	bnd jmp *0x12a85(%rip)        # 1c9b0 <_ZNSt14basic_ifstreamIcSt11char_traitsIcEED1Ev@GLIBCXX_3.4>
    9f2b:	0f 1f 44 00 00       	nopl   0x0(%rax,%rax,1)

0000000000009f30 <MPI_Pack_size@plt>:
    9f30:	f3 0f 1e fa          	endbr64 
    9f34:	f2 ff 25 7d 2a 01 00 	bnd jmp *0x12a7d(%rip)        # 1c9b8 <MPI_Pack_size@Base>
    9f3b:	0f 1f 44 00 00       	nopl   0x0(%rax,%rax,1)

0000000000009f40 <MPI_Request_get_status@plt>:
    9f40:	f3 0f 1e fa          	endbr64 
    9f44:	f2 ff 25 75 2a 01 00 	bnd jmp *0x12a75(%rip)        # 1c9c0 <MPI_Request_get_status@Base>
    9f4b:	0f 1f 44 00 00       	nopl   0x0(%rax,%rax,1)

0000000000009f50 <MPI_Graph_neighbors@plt>:
    9f50:	f3 0f 1e fa          	endbr64 
    9f54:	f2 ff 25 6d 2a 01 00 	bnd jmp *0x12a6d(%rip)        # 1c9c8 <MPI_Graph_neighbors@Base>
    9f5b:	0f 1f 44 00 00       	nopl   0x0(%rax,%rax,1)

0000000000009f60 <MPI_Type_create_hvector@plt>:
    9f60:	f3 0f 1e fa          	endbr64 
    9f64:	f2 ff 25 65 2a 01 00 	bnd jmp *0x12a65(%rip)        # 1c9d0 <MPI_Type_create_hvector@Base>
    9f6b:	0f 1f 44 00 00       	nopl   0x0(%rax,%rax,1)

0000000000009f70 <MPI_Unpack_external@plt>:
    9f70:	f3 0f 1e fa          	endbr64 
    9f74:	f2 ff 25 5d 2a 01 00 	bnd jmp *0x12a5d(%rip)        # 1c9d8 <MPI_Unpack_external@Base>
    9f7b:	0f 1f 44 00 00       	nopl   0x0(%rax,%rax,1)

0000000000009f80 <MPI_Probe@plt>:
    9f80:	f3 0f 1e fa          	endbr64 
    9f84:	f2 ff 25 55 2a 01 00 	bnd jmp *0x12a55(%rip)        # 1c9e0 <MPI_Probe@Base>
    9f8b:	0f 1f 44 00 00       	nopl   0x0(%rax,%rax,1)

0000000000009f90 <_ZNSolsEPFRSt8ios_baseS0_E@plt>:
    9f90:	f3 0f 1e fa          	endbr64 
    9f94:	f2 ff 25 4d 2a 01 00 	bnd jmp *0x12a4d(%rip)        # 1c9e8 <_ZNSolsEPFRSt8ios_baseS0_E@GLIBCXX_3.4>
    9f9b:	0f 1f 44 00 00       	nopl   0x0(%rax,%rax,1)

0000000000009fa0 <MPI_Send@plt>:
    9fa0:	f3 0f 1e fa          	endbr64 
    9fa4:	f2 ff 25 45 2a 01 00 	bnd jmp *0x12a45(%rip)        # 1c9f0 <MPI_Send@Base>
    9fab:	0f 1f 44 00 00       	nopl   0x0(%rax,%rax,1)

0000000000009fb0 <_ZNKSt7__cxx1112basic_stringIcSt11char_traitsIcESaIcEE13get_allocatorEv@plt>:
    9fb0:	f3 0f 1e fa          	endbr64 
    9fb4:	f2 ff 25 3d 2a 01 00 	bnd jmp *0x12a3d(%rip)        # 1c9f8 <_ZNKSt7__cxx1112basic_stringIcSt11char_traitsIcESaIcEE13get_allocatorEv@GLIBCXX_3.4.21>
    9fbb:	0f 1f 44 00 00       	nopl   0x0(%rax,%rax,1)

0000000000009fc0 <_ZNKSt7__cxx1112basic_stringIcSt11char_traitsIcESaIcEE5c_strEv@plt>:
    9fc0:	f3 0f 1e fa          	endbr64 
    9fc4:	f2 ff 25 35 2a 01 00 	bnd jmp *0x12a35(%rip)        # 1ca00 <_ZNKSt7__cxx1112basic_stringIcSt11char_traitsIcESaIcEE5c_strEv@GLIBCXX_3.4.21>
    9fcb:	0f 1f 44 00 00       	nopl   0x0(%rax,%rax,1)

0000000000009fd0 <MPI_Info_set@plt>:
    9fd0:	f3 0f 1e fa          	endbr64 
    9fd4:	f2 ff 25 2d 2a 01 00 	bnd jmp *0x12a2d(%rip)        # 1ca08 <MPI_Info_set@Base>
    9fdb:	0f 1f 44 00 00       	nopl   0x0(%rax,%rax,1)

0000000000009fe0 <_ZNSt7__cxx1112basic_stringIcSt11char_traitsIcESaIcEEC1ERKS4_@plt>:
    9fe0:	f3 0f 1e fa          	endbr64 
    9fe4:	f2 ff 25 25 2a 01 00 	bnd jmp *0x12a25(%rip)        # 1ca10 <_ZNSt7__cxx1112basic_stringIcSt11char_traitsIcESaIcEEC1ERKS4_@GLIBCXX_3.4.21>
    9feb:	0f 1f 44 00 00       	nopl   0x0(%rax,%rax,1)

0000000000009ff0 <MPI_Type_get_extent@plt>:
    9ff0:	f3 0f 1e fa          	endbr64 
    9ff4:	f2 ff 25 1d 2a 01 00 	bnd jmp *0x12a1d(%rip)        # 1ca18 <MPI_Type_get_extent@Base>
    9ffb:	0f 1f 44 00 00       	nopl   0x0(%rax,%rax,1)

000000000000a000 <MPI_Win_post@plt>:
    a000:	f3 0f 1e fa          	endbr64 
    a004:	f2 ff 25 15 2a 01 00 	bnd jmp *0x12a15(%rip)        # 1ca20 <MPI_Win_post@Base>
    a00b:	0f 1f 44 00 00       	nopl   0x0(%rax,%rax,1)

000000000000a010 <MPI_Isend@plt>:
    a010:	f3 0f 1e fa          	endbr64 
    a014:	f2 ff 25 0d 2a 01 00 	bnd jmp *0x12a0d(%rip)        # 1ca28 <MPI_Isend@Base>
    a01b:	0f 1f 44 00 00       	nopl   0x0(%rax,%rax,1)

000000000000a020 <MPI_Unpack@plt>:
    a020:	f3 0f 1e fa          	endbr64 
    a024:	f2 ff 25 05 2a 01 00 	bnd jmp *0x12a05(%rip)        # 1ca30 <MPI_Unpack@Base>
    a02b:	0f 1f 44 00 00       	nopl   0x0(%rax,%rax,1)

000000000000a030 <MPI_Iprobe@plt>:
    a030:	f3 0f 1e fa          	endbr64 
    a034:	f2 ff 25 fd 29 01 00 	bnd jmp *0x129fd(%rip)        # 1ca38 <MPI_Iprobe@Base>
    a03b:	0f 1f 44 00 00       	nopl   0x0(%rax,%rax,1)

000000000000a040 <MPI_Comm_set_attr@plt>:
    a040:	f3 0f 1e fa          	endbr64 
    a044:	f2 ff 25 f5 29 01 00 	bnd jmp *0x129f5(%rip)        # 1ca40 <MPI_Comm_set_attr@Base>
    a04b:	0f 1f 44 00 00       	nopl   0x0(%rax,%rax,1)

000000000000a050 <MPI_Type_get_envelope@plt>:
    a050:	f3 0f 1e fa          	endbr64 
    a054:	f2 ff 25 ed 29 01 00 	bnd jmp *0x129ed(%rip)        # 1ca48 <MPI_Type_get_envelope@Base>
    a05b:	0f 1f 44 00 00       	nopl   0x0(%rax,%rax,1)

000000000000a060 <MPI_Alltoall@plt>:
    a060:	f3 0f 1e fa          	endbr64 
    a064:	f2 ff 25 e5 29 01 00 	bnd jmp *0x129e5(%rip)        # 1ca50 <MPI_Alltoall@Base>
    a06b:	0f 1f 44 00 00       	nopl   0x0(%rax,%rax,1)

000000000000a070 <MPI_Cancel@plt>:
    a070:	f3 0f 1e fa          	endbr64 
    a074:	f2 ff 25 dd 29 01 00 	bnd jmp *0x129dd(%rip)        # 1ca58 <MPI_Cancel@Base>
    a07b:	0f 1f 44 00 00       	nopl   0x0(%rax,%rax,1)

000000000000a080 <MPI_Initialized@plt>:
    a080:	f3 0f 1e fa          	endbr64 
    a084:	f2 ff 25 d5 29 01 00 	bnd jmp *0x129d5(%rip)        # 1ca60 <MPI_Initialized@Base>
    a08b:	0f 1f 44 00 00       	nopl   0x0(%rax,%rax,1)

000000000000a090 <MPI_Scatterv@plt>:
    a090:	f3 0f 1e fa          	endbr64 
    a094:	f2 ff 25 cd 29 01 00 	bnd jmp *0x129cd(%rip)        # 1ca68 <MPI_Scatterv@Base>
    a09b:	0f 1f 44 00 00       	nopl   0x0(%rax,%rax,1)

000000000000a0a0 <MPI_Issend@plt>:
    a0a0:	f3 0f 1e fa          	endbr64 
    a0a4:	f2 ff 25 c5 29 01 00 	bnd jmp *0x129c5(%rip)        # 1ca70 <MPI_Issend@Base>
    a0ab:	0f 1f 44 00 00       	nopl   0x0(%rax,%rax,1)

000000000000a0b0 <_ZN3MPI4CommC2Ev@plt>:
    a0b0:	f3 0f 1e fa          	endbr64 
    a0b4:	f2 ff 25 bd 29 01 00 	bnd jmp *0x129bd(%rip)        # 1ca78 <_ZN3MPI4CommC2Ev@Base>
    a0bb:	0f 1f 44 00 00       	nopl   0x0(%rax,%rax,1)

000000000000a0c0 <MPI_Graphdims_get@plt>:
    a0c0:	f3 0f 1e fa          	endbr64 
    a0c4:	f2 ff 25 b5 29 01 00 	bnd jmp *0x129b5(%rip)        # 1ca80 <MPI_Graphdims_get@Base>
    a0cb:	0f 1f 44 00 00       	nopl   0x0(%rax,%rax,1)

000000000000a0d0 <MPI_Info_get@plt>:
    a0d0:	f3 0f 1e fa          	endbr64 
    a0d4:	f2 ff 25 ad 29 01 00 	bnd jmp *0x129ad(%rip)        # 1ca88 <MPI_Info_get@Base>
    a0db:	0f 1f 44 00 00       	nopl   0x0(%rax,%rax,1)

000000000000a0e0 <MPI_Cart_shift@plt>:
    a0e0:	f3 0f 1e fa          	endbr64 
    a0e4:	f2 ff 25 a5 29 01 00 	bnd jmp *0x129a5(%rip)        # 1ca90 <MPI_Cart_shift@Base>
    a0eb:	0f 1f 44 00 00       	nopl   0x0(%rax,%rax,1)

000000000000a0f0 <_ZNSt7__cxx1112basic_stringIcSt11char_traitsIcESaIcEEC1EOS4_@plt>:
    a0f0:	f3 0f 1e fa          	endbr64 
    a0f4:	f2 ff 25 9d 29 01 00 	bnd jmp *0x1299d(%rip)        # 1ca98 <_ZNSt7__cxx1112basic_stringIcSt11char_traitsIcESaIcEEC1EOS4_@GLIBCXX_3.4.21>
    a0fb:	0f 1f 44 00 00       	nopl   0x0(%rax,%rax,1)

000000000000a100 <MPI_Type_get_true_extent@plt>:
    a100:	f3 0f 1e fa          	endbr64 
    a104:	f2 ff 25 95 29 01 00 	bnd jmp *0x12995(%rip)        # 1caa0 <MPI_Type_get_true_extent@Base>
    a10b:	0f 1f 44 00 00       	nopl   0x0(%rax,%rax,1)

000000000000a110 <MPI_Get@plt>:
    a110:	f3 0f 1e fa          	endbr64 
    a114:	f2 ff 25 8d 29 01 00 	bnd jmp *0x1298d(%rip)        # 1caa8 <MPI_Get@Base>
    a11b:	0f 1f 44 00 00       	nopl   0x0(%rax,%rax,1)

000000000000a120 <_ZNSt7__cxx1112basic_stringIcSt11char_traitsIcESaIcEED1Ev@plt>:
    a120:	f3 0f 1e fa          	endbr64 
    a124:	f2 ff 25 85 29 01 00 	bnd jmp *0x12985(%rip)        # 1cab0 <_ZNSt7__cxx1112basic_stringIcSt11char_traitsIcESaIcEED1Ev@GLIBCXX_3.4.21>
    a12b:	0f 1f 44 00 00       	nopl   0x0(%rax,%rax,1)

000000000000a130 <MPI_Type_contiguous@plt>:
    a130:	f3 0f 1e fa          	endbr64 
    a134:	f2 ff 25 7d 29 01 00 	bnd jmp *0x1297d(%rip)        # 1cab8 <MPI_Type_contiguous@Base>
    a13b:	0f 1f 44 00 00       	nopl   0x0(%rax,%rax,1)

000000000000a140 <MPI_Cart_sub@plt>:
    a140:	f3 0f 1e fa          	endbr64 
    a144:	f2 ff 25 75 29 01 00 	bnd jmp *0x12975(%rip)        # 1cac0 <MPI_Cart_sub@Base>
    a14b:	0f 1f 44 00 00       	nopl   0x0(%rax,%rax,1)

000000000000a150 <__assert_fail@plt>:
    a150:	f3 0f 1e fa          	endbr64 
    a154:	f2 ff 25 6d 29 01 00 	bnd jmp *0x1296d(%rip)        # 1cac8 <__assert_fail@GLIBC_2.2.5>
    a15b:	0f 1f 44 00 00       	nopl   0x0(%rax,%rax,1)

000000000000a160 <_ZNSt7__cxx1112basic_stringIcSt11char_traitsIcESaIcEEC1EmcRKS3_@plt>:
    a160:	f3 0f 1e fa          	endbr64 
    a164:	f2 ff 25 65 29 01 00 	bnd jmp *0x12965(%rip)        # 1cad0 <_ZNSt7__cxx1112basic_stringIcSt11char_traitsIcESaIcEEC1EmcRKS3_@GLIBCXX_3.4.21>
    a16b:	0f 1f 44 00 00       	nopl   0x0(%rax,%rax,1)

000000000000a170 <MPI_Scatter@plt>:
    a170:	f3 0f 1e fa          	endbr64 
    a174:	f2 ff 25 5d 29 01 00 	bnd jmp *0x1295d(%rip)        # 1cad8 <MPI_Scatter@Base>
    a17b:	0f 1f 44 00 00       	nopl   0x0(%rax,%rax,1)

000000000000a180 <MPI_Win_get_group@plt>:
    a180:	f3 0f 1e fa          	endbr64 
    a184:	f2 ff 25 55 29 01 00 	bnd jmp *0x12955(%rip)        # 1cae0 <MPI_Win_get_group@Base>
    a18b:	0f 1f 44 00 00       	nopl   0x0(%rax,%rax,1)

000000000000a190 <_ZNSo5flushEv@plt>:
    a190:	f3 0f 1e fa          	endbr64 
    a194:	f2 ff 25 4d 29 01 00 	bnd jmp *0x1294d(%rip)        # 1cae8 <_ZNSo5flushEv@GLIBCXX_3.4>
    a19b:	0f 1f 44 00 00       	nopl   0x0(%rax,%rax,1)

000000000000a1a0 <MPI_Ssend_init@plt>:
    a1a0:	f3 0f 1e fa          	endbr64 
    a1a4:	f2 ff 25 45 29 01 00 	bnd jmp *0x12945(%rip)        # 1caf0 <MPI_Ssend_init@Base>
    a1ab:	0f 1f 44 00 00       	nopl   0x0(%rax,%rax,1)

000000000000a1b0 <_ZNKSt7__cxx1112basic_stringIcSt11char_traitsIcESaIcEE4sizeEv@plt>:
    a1b0:	f3 0f 1e fa          	endbr64 
    a1b4:	f2 ff 25 3d 29 01 00 	bnd jmp *0x1293d(%rip)        # 1caf8 <_ZNKSt7__cxx1112basic_stringIcSt11char_traitsIcESaIcEE4sizeEv@GLIBCXX_3.4.21>
    a1bb:	0f 1f 44 00 00       	nopl   0x0(%rax,%rax,1)

000000000000a1c0 <MPI_Comm_spawn@plt>:
    a1c0:	f3 0f 1e fa          	endbr64 
    a1c4:	f2 ff 25 35 29 01 00 	bnd jmp *0x12935(%rip)        # 1cb00 <MPI_Comm_spawn@Base>
    a1cb:	0f 1f 44 00 00       	nopl   0x0(%rax,%rax,1)

000000000000a1d0 <_ZNSt7__cxx1118basic_stringstreamIcSt11char_traitsIcESaIcEEC1Ev@plt>:
    a1d0:	f3 0f 1e fa          	endbr64 
    a1d4:	f2 ff 25 2d 29 01 00 	bnd jmp *0x1292d(%rip)        # 1cb08 <_ZNSt7__cxx1118basic_stringstreamIcSt11char_traitsIcESaIcEEC1Ev@GLIBCXX_3.4.26>
    a1db:	0f 1f 44 00 00       	nopl   0x0(%rax,%rax,1)

000000000000a1e0 <MPI_Barrier@plt>:
    a1e0:	f3 0f 1e fa          	endbr64 
    a1e4:	f2 ff 25 25 29 01 00 	bnd jmp *0x12925(%rip)        # 1cb10 <MPI_Barrier@Base>
    a1eb:	0f 1f 44 00 00       	nopl   0x0(%rax,%rax,1)

000000000000a1f0 <MPI_Win_start@plt>:
    a1f0:	f3 0f 1e fa          	endbr64 
    a1f4:	f2 ff 25 1d 29 01 00 	bnd jmp *0x1291d(%rip)        # 1cb18 <MPI_Win_start@Base>
    a1fb:	0f 1f 44 00 00       	nopl   0x0(%rax,%rax,1)

000000000000a200 <MPI_Pack_external@plt>:
    a200:	f3 0f 1e fa          	endbr64 
    a204:	f2 ff 25 15 29 01 00 	bnd jmp *0x12915(%rip)        # 1cb20 <MPI_Pack_external@Base>
    a20b:	0f 1f 44 00 00       	nopl   0x0(%rax,%rax,1)

000000000000a210 <_ZNSt7__cxx1118basic_stringstreamIcSt11char_traitsIcESaIcEED1Ev@plt>:
    a210:	f3 0f 1e fa          	endbr64 
    a214:	f2 ff 25 0d 29 01 00 	bnd jmp *0x1290d(%rip)        # 1cb28 <_ZNSt7__cxx1118basic_stringstreamIcSt11char_traitsIcESaIcEED1Ev@GLIBCXX_3.4.21>
    a21b:	0f 1f 44 00 00       	nopl   0x0(%rax,%rax,1)

000000000000a220 <MPI_Rsend_init@plt>:
    a220:	f3 0f 1e fa          	endbr64 
    a224:	f2 ff 25 05 29 01 00 	bnd jmp *0x12905(%rip)        # 1cb30 <MPI_Rsend_init@Base>
    a22b:	0f 1f 44 00 00       	nopl   0x0(%rax,%rax,1)

000000000000a230 <MPI_Group_incl@plt>:
    a230:	f3 0f 1e fa          	endbr64 
    a234:	f2 ff 25 fd 28 01 00 	bnd jmp *0x128fd(%rip)        # 1cb38 <MPI_Group_incl@Base>
    a23b:	0f 1f 44 00 00       	nopl   0x0(%rax,%rax,1)

000000000000a240 <MPI_Bsend_init@plt>:
    a240:	f3 0f 1e fa          	endbr64 
    a244:	f2 ff 25 f5 28 01 00 	bnd jmp *0x128f5(%rip)        # 1cb40 <MPI_Bsend_init@Base>
    a24b:	0f 1f 44 00 00       	nopl   0x0(%rax,%rax,1)

000000000000a250 <_ZNSt14basic_ofstreamIcSt11char_traitsIcEE7is_openEv@plt>:
    a250:	f3 0f 1e fa          	endbr64 
    a254:	f2 ff 25 ed 28 01 00 	bnd jmp *0x128ed(%rip)        # 1cb48 <_ZNSt14basic_ofstreamIcSt11char_traitsIcEE7is_openEv@GLIBCXX_3.4>
    a25b:	0f 1f 44 00 00       	nopl   0x0(%rax,%rax,1)

000000000000a260 <MPI_Sendrecv@plt>:
    a260:	f3 0f 1e fa          	endbr64 
    a264:	f2 ff 25 e5 28 01 00 	bnd jmp *0x128e5(%rip)        # 1cb50 <MPI_Sendrecv@Base>
    a26b:	0f 1f 44 00 00       	nopl   0x0(%rax,%rax,1)

000000000000a270 <MPI_Finalize@plt>:
    a270:	f3 0f 1e fa          	endbr64 
    a274:	f2 ff 25 dd 28 01 00 	bnd jmp *0x128dd(%rip)        # 1cb58 <MPI_Finalize@Base>
    a27b:	0f 1f 44 00 00       	nopl   0x0(%rax,%rax,1)

000000000000a280 <MPI_Request_free@plt>:
    a280:	f3 0f 1e fa          	endbr64 
    a284:	f2 ff 25 d5 28 01 00 	bnd jmp *0x128d5(%rip)        # 1cb60 <MPI_Request_free@Base>
    a28b:	0f 1f 44 00 00       	nopl   0x0(%rax,%rax,1)

000000000000a290 <MPI_Gather@plt>:
    a290:	f3 0f 1e fa          	endbr64 
    a294:	f2 ff 25 cd 28 01 00 	bnd jmp *0x128cd(%rip)        # 1cb68 <MPI_Gather@Base>
    a29b:	0f 1f 44 00 00       	nopl   0x0(%rax,%rax,1)

000000000000a2a0 <MPI_Grequest_complete@plt>:
    a2a0:	f3 0f 1e fa          	endbr64 
    a2a4:	f2 ff 25 c5 28 01 00 	bnd jmp *0x128c5(%rip)        # 1cb70 <MPI_Grequest_complete@Base>
    a2ab:	0f 1f 44 00 00       	nopl   0x0(%rax,%rax,1)

000000000000a2b0 <MPI_Type_create_darray@plt>:
    a2b0:	f3 0f 1e fa          	endbr64 
    a2b4:	f2 ff 25 bd 28 01 00 	bnd jmp *0x128bd(%rip)        # 1cb78 <MPI_Type_create_darray@Base>
    a2bb:	0f 1f 44 00 00       	nopl   0x0(%rax,%rax,1)

000000000000a2c0 <MPI_Win_wait@plt>:
    a2c0:	f3 0f 1e fa          	endbr64 
    a2c4:	f2 ff 25 b5 28 01 00 	bnd jmp *0x128b5(%rip)        # 1cb80 <MPI_Win_wait@Base>
    a2cb:	0f 1f 44 00 00       	nopl   0x0(%rax,%rax,1)

000000000000a2d0 <MPI_Rsend@plt>:
    a2d0:	f3 0f 1e fa          	endbr64 
    a2d4:	f2 ff 25 ad 28 01 00 	bnd jmp *0x128ad(%rip)        # 1cb88 <MPI_Rsend@Base>
    a2db:	0f 1f 44 00 00       	nopl   0x0(%rax,%rax,1)

000000000000a2e0 <MPI_Recv@plt>:
    a2e0:	f3 0f 1e fa          	endbr64 
    a2e4:	f2 ff 25 a5 28 01 00 	bnd jmp *0x128a5(%rip)        # 1cb90 <MPI_Recv@Base>
    a2eb:	0f 1f 44 00 00       	nopl   0x0(%rax,%rax,1)

000000000000a2f0 <MPI_Graph_get@plt>:
    a2f0:	f3 0f 1e fa          	endbr64 
    a2f4:	f2 ff 25 9d 28 01 00 	bnd jmp *0x1289d(%rip)        # 1cb98 <MPI_Graph_get@Base>
    a2fb:	0f 1f 44 00 00       	nopl   0x0(%rax,%rax,1)

000000000000a300 <MPI_Comm_group@plt>:
    a300:	f3 0f 1e fa          	endbr64 
    a304:	f2 ff 25 95 28 01 00 	bnd jmp *0x12895(%rip)        # 1cba0 <MPI_Comm_group@Base>
    a30b:	0f 1f 44 00 00       	nopl   0x0(%rax,%rax,1)

000000000000a310 <MPI_Comm_create@plt>:
    a310:	f3 0f 1e fa          	endbr64 
    a314:	f2 ff 25 8d 28 01 00 	bnd jmp *0x1288d(%rip)        # 1cba8 <MPI_Comm_create@Base>
    a31b:	0f 1f 44 00 00       	nopl   0x0(%rax,%rax,1)

000000000000a320 <MPI_Cart_get@plt>:
    a320:	f3 0f 1e fa          	endbr64 
    a324:	f2 ff 25 85 28 01 00 	bnd jmp *0x12885(%rip)        # 1cbb0 <MPI_Cart_get@Base>
    a32b:	0f 1f 44 00 00       	nopl   0x0(%rax,%rax,1)

000000000000a330 <__cxa_atexit@plt>:
    a330:	f3 0f 1e fa          	endbr64 
    a334:	f2 ff 25 7d 28 01 00 	bnd jmp *0x1287d(%rip)        # 1cbb8 <__cxa_atexit@GLIBC_2.2.5>
    a33b:	0f 1f 44 00 00       	nopl   0x0(%rax,%rax,1)

000000000000a340 <MPI_Type_get_attr@plt>:
    a340:	f3 0f 1e fa          	endbr64 
    a344:	f2 ff 25 75 28 01 00 	bnd jmp *0x12875(%rip)        # 1cbc0 <MPI_Type_get_attr@Base>
    a34b:	0f 1f 44 00 00       	nopl   0x0(%rax,%rax,1)

000000000000a350 <MPI_Op_commutative@plt>:
    a350:	f3 0f 1e fa          	endbr64 
    a354:	f2 ff 25 6d 28 01 00 	bnd jmp *0x1286d(%rip)        # 1cbc8 <MPI_Op_commutative@Base>
    a35b:	0f 1f 44 00 00       	nopl   0x0(%rax,%rax,1)

000000000000a360 <MPI_Graph_map@plt>:
    a360:	f3 0f 1e fa          	endbr64 
    a364:	f2 ff 25 65 28 01 00 	bnd jmp *0x12865(%rip)        # 1cbd0 <MPI_Graph_map@Base>
    a36b:	0f 1f 44 00 00       	nopl   0x0(%rax,%rax,1)

000000000000a370 <MPI_Win_set_name@plt>:
    a370:	f3 0f 1e fa          	endbr64 
    a374:	f2 ff 25 5d 28 01 00 	bnd jmp *0x1285d(%rip)        # 1cbd8 <MPI_Win_set_name@Base>
    a37b:	0f 1f 44 00 00       	nopl   0x0(%rax,%rax,1)

000000000000a380 <MPI_Test_cancelled@plt>:
    a380:	f3 0f 1e fa          	endbr64 
    a384:	f2 ff 25 55 28 01 00 	bnd jmp *0x12855(%rip)        # 1cbe0 <MPI_Test_cancelled@Base>
    a38b:	0f 1f 44 00 00       	nopl   0x0(%rax,%rax,1)

000000000000a390 <MPI_Cart_map@plt>:
    a390:	f3 0f 1e fa          	endbr64 
    a394:	f2 ff 25 4d 28 01 00 	bnd jmp *0x1284d(%rip)        # 1cbe8 <MPI_Cart_map@Base>
    a39b:	0f 1f 44 00 00       	nopl   0x0(%rax,%rax,1)

000000000000a3a0 <MPI_Exscan@plt>:
    a3a0:	f3 0f 1e fa          	endbr64 
    a3a4:	f2 ff 25 45 28 01 00 	bnd jmp *0x12845(%rip)        # 1cbf0 <MPI_Exscan@Base>
    a3ab:	0f 1f 44 00 00       	nopl   0x0(%rax,%rax,1)

000000000000a3b0 <MPI_Pack@plt>:
    a3b0:	f3 0f 1e fa          	endbr64 
    a3b4:	f2 ff 25 3d 28 01 00 	bnd jmp *0x1283d(%rip)        # 1cbf8 <MPI_Pack@Base>
    a3bb:	0f 1f 44 00 00       	nopl   0x0(%rax,%rax,1)

000000000000a3c0 <__isoc99_sscanf@plt>:
    a3c0:	f3 0f 1e fa          	endbr64 
    a3c4:	f2 ff 25 35 28 01 00 	bnd jmp *0x12835(%rip)        # 1cc00 <__isoc99_sscanf@GLIBC_2.7>
    a3cb:	0f 1f 44 00 00       	nopl   0x0(%rax,%rax,1)

000000000000a3d0 <_ZStlsISt11char_traitsIcEERSt13basic_ostreamIcT_ES5_PKc@plt>:
    a3d0:	f3 0f 1e fa          	endbr64 
    a3d4:	f2 ff 25 2d 28 01 00 	bnd jmp *0x1282d(%rip)        # 1cc08 <_ZStlsISt11char_traitsIcEERSt13basic_ostreamIcT_ES5_PKc@GLIBCXX_3.4>
    a3db:	0f 1f 44 00 00       	nopl   0x0(%rax,%rax,1)

000000000000a3e0 <_Znwm@plt>:
    a3e0:	f3 0f 1e fa          	endbr64 
    a3e4:	f2 ff 25 25 28 01 00 	bnd jmp *0x12825(%rip)        # 1cc10 <_Znwm@GLIBCXX_3.4>
    a3eb:	0f 1f 44 00 00       	nopl   0x0(%rax,%rax,1)

000000000000a3f0 <MPI_Errhandler_free@plt>:
    a3f0:	f3 0f 1e fa          	endbr64 
    a3f4:	f2 ff 25 1d 28 01 00 	bnd jmp *0x1281d(%rip)        # 1cc18 <MPI_Errhandler_free@Base>
    a3fb:	0f 1f 44 00 00       	nopl   0x0(%rax,%rax,1)

000000000000a400 <_ZdlPvm@plt>:
    a400:	f3 0f 1e fa          	endbr64 
    a404:	f2 ff 25 15 28 01 00 	bnd jmp *0x12815(%rip)        # 1cc20 <_ZdlPvm@CXXABI_1.3.9>
    a40b:	0f 1f 44 00 00       	nopl   0x0(%rax,%rax,1)

000000000000a410 <_ZNSolsEPFRSoS_E@plt>:
    a410:	f3 0f 1e fa          	endbr64 
    a414:	f2 ff 25 0d 28 01 00 	bnd jmp *0x1280d(%rip)        # 1cc28 <_ZNSolsEPFRSoS_E@GLIBCXX_3.4>
    a41b:	0f 1f 44 00 00       	nopl   0x0(%rax,%rax,1)

000000000000a420 <MPI_Abort@plt>:
    a420:	f3 0f 1e fa          	endbr64 
    a424:	f2 ff 25 05 28 01 00 	bnd jmp *0x12805(%rip)        # 1cc30 <MPI_Abort@Base>
    a42b:	0f 1f 44 00 00       	nopl   0x0(%rax,%rax,1)

000000000000a430 <MPI_Intercomm_create@plt>:
    a430:	f3 0f 1e fa          	endbr64 
    a434:	f2 ff 25 fd 27 01 00 	bnd jmp *0x127fd(%rip)        # 1cc38 <MPI_Intercomm_create@Base>
    a43b:	0f 1f 44 00 00       	nopl   0x0(%rax,%rax,1)

000000000000a440 <MPI_Cartdim_get@plt>:
    a440:	f3 0f 1e fa          	endbr64 
    a444:	f2 ff 25 f5 27 01 00 	bnd jmp *0x127f5(%rip)        # 1cc40 <MPI_Cartdim_get@Base>
    a44b:	0f 1f 44 00 00       	nopl   0x0(%rax,%rax,1)

000000000000a450 <MPI_Cart_coords@plt>:
    a450:	f3 0f 1e fa          	endbr64 
    a454:	f2 ff 25 ed 27 01 00 	bnd jmp *0x127ed(%rip)        # 1cc48 <MPI_Cart_coords@Base>
    a45b:	0f 1f 44 00 00       	nopl   0x0(%rax,%rax,1)

000000000000a460 <ompi_op_set_cxx_callback@plt>:
    a460:	f3 0f 1e fa          	endbr64 
    a464:	f2 ff 25 e5 27 01 00 	bnd jmp *0x127e5(%rip)        # 1cc50 <ompi_op_set_cxx_callback@Base>
    a46b:	0f 1f 44 00 00       	nopl   0x0(%rax,%rax,1)

000000000000a470 <_ZNSaIcED1Ev@plt>:
    a470:	f3 0f 1e fa          	endbr64 
    a474:	f2 ff 25 dd 27 01 00 	bnd jmp *0x127dd(%rip)        # 1cc58 <_ZNSaIcED1Ev@GLIBCXX_3.4>
    a47b:	0f 1f 44 00 00       	nopl   0x0(%rax,%rax,1)

000000000000a480 <MPI_Get_elements@plt>:
    a480:	f3 0f 1e fa          	endbr64 
    a484:	f2 ff 25 d5 27 01 00 	bnd jmp *0x127d5(%rip)        # 1cc60 <MPI_Get_elements@Base>
    a48b:	0f 1f 44 00 00       	nopl   0x0(%rax,%rax,1)

000000000000a490 <MPI_Comm_delete_attr@plt>:
    a490:	f3 0f 1e fa          	endbr64 
    a494:	f2 ff 25 cd 27 01 00 	bnd jmp *0x127cd(%rip)        # 1cc68 <MPI_Comm_delete_attr@Base>
    a49b:	0f 1f 44 00 00       	nopl   0x0(%rax,%rax,1)

000000000000a4a0 <MPI_Send_init@plt>:
    a4a0:	f3 0f 1e fa          	endbr64 
    a4a4:	f2 ff 25 c5 27 01 00 	bnd jmp *0x127c5(%rip)        # 1cc70 <MPI_Send_init@Base>
    a4ab:	0f 1f 44 00 00       	nopl   0x0(%rax,%rax,1)

000000000000a4b0 <MPI_Info_get_nkeys@plt>:
    a4b0:	f3 0f 1e fa          	endbr64 
    a4b4:	f2 ff 25 bd 27 01 00 	bnd jmp *0x127bd(%rip)        # 1cc78 <MPI_Info_get_nkeys@Base>
    a4bb:	0f 1f 44 00 00       	nopl   0x0(%rax,%rax,1)

000000000000a4c0 <MPI_Bsend@plt>:
    a4c0:	f3 0f 1e fa          	endbr64 
    a4c4:	f2 ff 25 b5 27 01 00 	bnd jmp *0x127b5(%rip)        # 1cc80 <MPI_Bsend@Base>
    a4cb:	0f 1f 44 00 00       	nopl   0x0(%rax,%rax,1)

000000000000a4d0 <MPI_Scan@plt>:
    a4d0:	f3 0f 1e fa          	endbr64 
    a4d4:	f2 ff 25 ad 27 01 00 	bnd jmp *0x127ad(%rip)        # 1cc88 <MPI_Scan@Base>
    a4db:	0f 1f 44 00 00       	nopl   0x0(%rax,%rax,1)

000000000000a4e0 <__stack_chk_fail@plt>:
    a4e0:	f3 0f 1e fa          	endbr64 
    a4e4:	f2 ff 25 a5 27 01 00 	bnd jmp *0x127a5(%rip)        # 1cc90 <__stack_chk_fail@GLIBC_2.4>
    a4eb:	0f 1f 44 00 00       	nopl   0x0(%rax,%rax,1)

000000000000a4f0 <MPI_Comm_size@plt>:
    a4f0:	f3 0f 1e fa          	endbr64 
    a4f4:	f2 ff 25 9d 27 01 00 	bnd jmp *0x1279d(%rip)        # 1cc98 <MPI_Comm_size@Base>
    a4fb:	0f 1f 44 00 00       	nopl   0x0(%rax,%rax,1)

000000000000a500 <free@plt>:
    a500:	f3 0f 1e fa          	endbr64 
    a504:	f2 ff 25 95 27 01 00 	bnd jmp *0x12795(%rip)        # 1cca0 <free@GLIBC_2.2.5>
    a50b:	0f 1f 44 00 00       	nopl   0x0(%rax,%rax,1)

000000000000a510 <MPI_Type_create_hindexed@plt>:
    a510:	f3 0f 1e fa          	endbr64 
    a514:	f2 ff 25 8d 27 01 00 	bnd jmp *0x1278d(%rip)        # 1cca8 <MPI_Type_create_hindexed@Base>
    a51b:	0f 1f 44 00 00       	nopl   0x0(%rax,%rax,1)

000000000000a520 <MPI_Reduce_local@plt>:
    a520:	f3 0f 1e fa          	endbr64 
    a524:	f2 ff 25 85 27 01 00 	bnd jmp *0x12785(%rip)        # 1ccb0 <MPI_Reduce_local@Base>
    a52b:	0f 1f 44 00 00       	nopl   0x0(%rax,%rax,1)

000000000000a530 <MPI_Reduce_scatter@plt>:
    a530:	f3 0f 1e fa          	endbr64 
    a534:	f2 ff 25 7d 27 01 00 	bnd jmp *0x1277d(%rip)        # 1ccb8 <MPI_Reduce_scatter@Base>
    a53b:	0f 1f 44 00 00       	nopl   0x0(%rax,%rax,1)

000000000000a540 <exit@plt>:
    a540:	f3 0f 1e fa          	endbr64 
    a544:	f2 ff 25 75 27 01 00 	bnd jmp *0x12775(%rip)        # 1ccc0 <exit@GLIBC_2.2.5>
    a54b:	0f 1f 44 00 00       	nopl   0x0(%rax,%rax,1)

000000000000a550 <MPI_Win_lock@plt>:
    a550:	f3 0f 1e fa          	endbr64 
    a554:	f2 ff 25 6d 27 01 00 	bnd jmp *0x1276d(%rip)        # 1ccc8 <MPI_Win_lock@Base>
    a55b:	0f 1f 44 00 00       	nopl   0x0(%rax,%rax,1)

000000000000a560 <MPI_Allreduce@plt>:
    a560:	f3 0f 1e fa          	endbr64 
    a564:	f2 ff 25 65 27 01 00 	bnd jmp *0x12765(%rip)        # 1ccd0 <MPI_Allreduce@Base>
    a56b:	0f 1f 44 00 00       	nopl   0x0(%rax,%rax,1)

000000000000a570 <MPI_Allgatherv@plt>:
    a570:	f3 0f 1e fa          	endbr64 
    a574:	f2 ff 25 5d 27 01 00 	bnd jmp *0x1275d(%rip)        # 1ccd8 <MPI_Allgatherv@Base>
    a57b:	0f 1f 44 00 00       	nopl   0x0(%rax,%rax,1)

000000000000a580 <atof@plt>:
    a580:	f3 0f 1e fa          	endbr64 
    a584:	f2 ff 25 55 27 01 00 	bnd jmp *0x12755(%rip)        # 1cce0 <atof@GLIBC_2.2.5>
    a58b:	0f 1f 44 00 00       	nopl   0x0(%rax,%rax,1)

000000000000a590 <MPI_Group_range_excl@plt>:
    a590:	f3 0f 1e fa          	endbr64 
    a594:	f2 ff 25 4d 27 01 00 	bnd jmp *0x1274d(%rip)        # 1cce8 <MPI_Group_range_excl@Base>
    a59b:	0f 1f 44 00 00       	nopl   0x0(%rax,%rax,1)

000000000000a5a0 <_ZNKSt9basic_iosIcSt11char_traitsIcEEcvbEv@plt>:
    a5a0:	f3 0f 1e fa          	endbr64 
    a5a4:	f2 ff 25 45 27 01 00 	bnd jmp *0x12745(%rip)        # 1ccf0 <_ZNKSt9basic_iosIcSt11char_traitsIcEEcvbEv@GLIBCXX_3.4.21>
    a5ab:	0f 1f 44 00 00       	nopl   0x0(%rax,%rax,1)

000000000000a5b0 <MPI_Type_commit@plt>:
    a5b0:	f3 0f 1e fa          	endbr64 
    a5b4:	f2 ff 25 3d 27 01 00 	bnd jmp *0x1273d(%rip)        # 1ccf8 <MPI_Type_commit@Base>
    a5bb:	0f 1f 44 00 00       	nopl   0x0(%rax,%rax,1)

000000000000a5c0 <MPI_Put@plt>:
    a5c0:	f3 0f 1e fa          	endbr64 
    a5c4:	f2 ff 25 35 27 01 00 	bnd jmp *0x12735(%rip)        # 1cd00 <MPI_Put@Base>
    a5cb:	0f 1f 44 00 00       	nopl   0x0(%rax,%rax,1)

000000000000a5d0 <_ZdaPv@plt>:
    a5d0:	f3 0f 1e fa          	endbr64 
    a5d4:	f2 ff 25 2d 27 01 00 	bnd jmp *0x1272d(%rip)        # 1cd08 <_ZdaPv@GLIBCXX_3.4>
    a5db:	0f 1f 44 00 00       	nopl   0x0(%rax,%rax,1)

000000000000a5e0 <MPI_Type_size@plt>:
    a5e0:	f3 0f 1e fa          	endbr64 
    a5e4:	f2 ff 25 25 27 01 00 	bnd jmp *0x12725(%rip)        # 1cd10 <MPI_Type_size@Base>
    a5eb:	0f 1f 44 00 00       	nopl   0x0(%rax,%rax,1)

000000000000a5f0 <MPI_Status_set_elements@plt>:
    a5f0:	f3 0f 1e fa          	endbr64 
    a5f4:	f2 ff 25 1d 27 01 00 	bnd jmp *0x1271d(%rip)        # 1cd18 <MPI_Status_set_elements@Base>
    a5fb:	0f 1f 44 00 00       	nopl   0x0(%rax,%rax,1)

000000000000a600 <MPI_Comm_get_errhandler@plt>:
    a600:	f3 0f 1e fa          	endbr64 
    a604:	f2 ff 25 15 27 01 00 	bnd jmp *0x12715(%rip)        # 1cd20 <MPI_Comm_get_errhandler@Base>
    a60b:	0f 1f 44 00 00       	nopl   0x0(%rax,%rax,1)

000000000000a610 <MPI_Reduce@plt>:
    a610:	f3 0f 1e fa          	endbr64 
    a614:	f2 ff 25 0d 27 01 00 	bnd jmp *0x1270d(%rip)        # 1cd28 <MPI_Reduce@Base>
    a61b:	0f 1f 44 00 00       	nopl   0x0(%rax,%rax,1)

000000000000a620 <MPI_Comm_remote_group@plt>:
    a620:	f3 0f 1e fa          	endbr64 
    a624:	f2 ff 25 05 27 01 00 	bnd jmp *0x12705(%rip)        # 1cd30 <MPI_Comm_remote_group@Base>
    a62b:	0f 1f 44 00 00       	nopl   0x0(%rax,%rax,1)

000000000000a630 <malloc@plt>:
    a630:	f3 0f 1e fa          	endbr64 
    a634:	f2 ff 25 fd 26 01 00 	bnd jmp *0x126fd(%rip)        # 1cd38 <malloc@GLIBC_2.2.5>
    a63b:	0f 1f 44 00 00       	nopl   0x0(%rax,%rax,1)

000000000000a640 <MPI_Wait@plt>:
    a640:	f3 0f 1e fa          	endbr64 
    a644:	f2 ff 25 f5 26 01 00 	bnd jmp *0x126f5(%rip)        # 1cd40 <MPI_Wait@Base>
    a64b:	0f 1f 44 00 00       	nopl   0x0(%rax,%rax,1)

000000000000a650 <MPI_Comm_dup@plt>:
    a650:	f3 0f 1e fa          	endbr64 
    a654:	f2 ff 25 ed 26 01 00 	bnd jmp *0x126ed(%rip)        # 1cd48 <MPI_Comm_dup@Base>
    a65b:	0f 1f 44 00 00       	nopl   0x0(%rax,%rax,1)

000000000000a660 <MPI_Sendrecv_replace@plt>:
    a660:	f3 0f 1e fa          	endbr64 
    a664:	f2 ff 25 e5 26 01 00 	bnd jmp *0x126e5(%rip)        # 1cd50 <MPI_Sendrecv_replace@Base>
    a66b:	0f 1f 44 00 00       	nopl   0x0(%rax,%rax,1)

000000000000a670 <_ZNSt7__cxx1112basic_stringIcSt11char_traitsIcESaIcEEC1EPKcRKS3_@plt>:
    a670:	f3 0f 1e fa          	endbr64 
    a674:	f2 ff 25 dd 26 01 00 	bnd jmp *0x126dd(%rip)        # 1cd58 <_ZNSt7__cxx1112basic_stringIcSt11char_traitsIcESaIcEEC1EPKcRKS3_@GLIBCXX_3.4.21>
    a67b:	0f 1f 44 00 00       	nopl   0x0(%rax,%rax,1)

000000000000a680 <MPI_Irecv@plt>:
    a680:	f3 0f 1e fa          	endbr64 
    a684:	f2 ff 25 d5 26 01 00 	bnd jmp *0x126d5(%rip)        # 1cd60 <MPI_Irecv@Base>
    a68b:	0f 1f 44 00 00       	nopl   0x0(%rax,%rax,1)

000000000000a690 <MPI_Alltoallw@plt>:
    a690:	f3 0f 1e fa          	endbr64 
    a694:	f2 ff 25 cd 26 01 00 	bnd jmp *0x126cd(%rip)        # 1cd68 <MPI_Alltoallw@Base>
    a69b:	0f 1f 44 00 00       	nopl   0x0(%rax,%rax,1)

000000000000a6a0 <_ZNSt7__cxx1112basic_stringIcSt11char_traitsIcESaIcEEC1Ev@plt>:
    a6a0:	f3 0f 1e fa          	endbr64 
    a6a4:	f2 ff 25 c5 26 01 00 	bnd jmp *0x126c5(%rip)        # 1cd70 <_ZNSt7__cxx1112basic_stringIcSt11char_traitsIcESaIcEEC1Ev@GLIBCXX_3.4.21>
    a6ab:	0f 1f 44 00 00       	nopl   0x0(%rax,%rax,1)

000000000000a6b0 <MPI_Type_get_name@plt>:
    a6b0:	f3 0f 1e fa          	endbr64 
    a6b4:	f2 ff 25 bd 26 01 00 	bnd jmp *0x126bd(%rip)        # 1cd78 <MPI_Type_get_name@Base>
    a6bb:	0f 1f 44 00 00       	nopl   0x0(%rax,%rax,1)

000000000000a6c0 <MPI_Type_create_indexed_block@plt>:
    a6c0:	f3 0f 1e fa          	endbr64 
    a6c4:	f2 ff 25 b5 26 01 00 	bnd jmp *0x126b5(%rip)        # 1cd80 <MPI_Type_create_indexed_block@Base>
    a6cb:	0f 1f 44 00 00       	nopl   0x0(%rax,%rax,1)

000000000000a6d0 <MPI_Type_get_contents@plt>:
    a6d0:	f3 0f 1e fa          	endbr64 
    a6d4:	f2 ff 25 ad 26 01 00 	bnd jmp *0x126ad(%rip)        # 1cd88 <MPI_Type_get_contents@Base>
    a6db:	0f 1f 44 00 00       	nopl   0x0(%rax,%rax,1)

000000000000a6e0 <MPI_Comm_get_attr@plt>:
    a6e0:	f3 0f 1e fa          	endbr64 
    a6e4:	f2 ff 25 a5 26 01 00 	bnd jmp *0x126a5(%rip)        # 1cd90 <MPI_Comm_get_attr@Base>
    a6eb:	0f 1f 44 00 00       	nopl   0x0(%rax,%rax,1)

000000000000a6f0 <__cxa_throw_bad_array_new_length@plt>:
    a6f0:	f3 0f 1e fa          	endbr64 
    a6f4:	f2 ff 25 9d 26 01 00 	bnd jmp *0x1269d(%rip)        # 1cd98 <__cxa_throw_bad_array_new_length@CXXABI_1.3.8>
    a6fb:	0f 1f 44 00 00       	nopl   0x0(%rax,%rax,1)

000000000000a700 <MPI_Comm_rank@plt>:
    a700:	f3 0f 1e fa          	endbr64 
    a704:	f2 ff 25 95 26 01 00 	bnd jmp *0x12695(%rip)        # 1cda0 <MPI_Comm_rank@Base>
    a70b:	0f 1f 44 00 00       	nopl   0x0(%rax,%rax,1)

000000000000a710 <MPI_Init@plt>:
    a710:	f3 0f 1e fa          	endbr64 
    a714:	f2 ff 25 8d 26 01 00 	bnd jmp *0x1268d(%rip)        # 1cda8 <MPI_Init@Base>
    a71b:	0f 1f 44 00 00       	nopl   0x0(%rax,%rax,1)

000000000000a720 <_ZNSt14basic_ofstreamIcSt11char_traitsIcEE5closeEv@plt>:
    a720:	f3 0f 1e fa          	endbr64 
    a724:	f2 ff 25 85 26 01 00 	bnd jmp *0x12685(%rip)        # 1cdb0 <_ZNSt14basic_ofstreamIcSt11char_traitsIcEE5closeEv@GLIBCXX_3.4>
    a72b:	0f 1f 44 00 00       	nopl   0x0(%rax,%rax,1)

000000000000a730 <MPI_Info_delete@plt>:
    a730:	f3 0f 1e fa          	endbr64 
    a734:	f2 ff 25 7d 26 01 00 	bnd jmp *0x1267d(%rip)        # 1cdb8 <MPI_Info_delete@Base>
    a73b:	0f 1f 44 00 00       	nopl   0x0(%rax,%rax,1)

000000000000a740 <MPI_Topo_test@plt>:
    a740:	f3 0f 1e fa          	endbr64 
    a744:	f2 ff 25 75 26 01 00 	bnd jmp *0x12675(%rip)        # 1cdc0 <MPI_Topo_test@Base>
    a74b:	0f 1f 44 00 00       	nopl   0x0(%rax,%rax,1)

000000000000a750 <MPI_Get_count@plt>:
    a750:	f3 0f 1e fa          	endbr64 
    a754:	f2 ff 25 6d 26 01 00 	bnd jmp *0x1266d(%rip)        # 1cdc8 <MPI_Get_count@Base>
    a75b:	0f 1f 44 00 00       	nopl   0x0(%rax,%rax,1)

000000000000a760 <fprintf@plt>:
    a760:	f3 0f 1e fa          	endbr64 
    a764:	f2 ff 25 65 26 01 00 	bnd jmp *0x12665(%rip)        # 1cdd0 <fprintf@GLIBC_2.2.5>
    a76b:	0f 1f 44 00 00       	nopl   0x0(%rax,%rax,1)

000000000000a770 <MPI_Info_get_nthkey@plt>:
    a770:	f3 0f 1e fa          	endbr64 
    a774:	f2 ff 25 5d 26 01 00 	bnd jmp *0x1265d(%rip)        # 1cdd8 <MPI_Info_get_nthkey@Base>
    a77b:	0f 1f 44 00 00       	nopl   0x0(%rax,%rax,1)

000000000000a780 <_ZNSt14basic_ofstreamIcSt11char_traitsIcEED1Ev@plt>:
    a780:	f3 0f 1e fa          	endbr64 
    a784:	f2 ff 25 55 26 01 00 	bnd jmp *0x12655(%rip)        # 1cde0 <_ZNSt14basic_ofstreamIcSt11char_traitsIcEED1Ev@GLIBCXX_3.4>
    a78b:	0f 1f 44 00 00       	nopl   0x0(%rax,%rax,1)

000000000000a790 <MPI_Win_set_errhandler@plt>:
    a790:	f3 0f 1e fa          	endbr64 
    a794:	f2 ff 25 4d 26 01 00 	bnd jmp *0x1264d(%rip)        # 1cde8 <MPI_Win_set_errhandler@Base>
    a79b:	0f 1f 44 00 00       	nopl   0x0(%rax,%rax,1)

000000000000a7a0 <MPI_Comm_remote_size@plt>:
    a7a0:	f3 0f 1e fa          	endbr64 
    a7a4:	f2 ff 25 45 26 01 00 	bnd jmp *0x12645(%rip)        # 1cdf0 <MPI_Comm_remote_size@Base>
    a7ab:	0f 1f 44 00 00       	nopl   0x0(%rax,%rax,1)

000000000000a7b0 <GOMP_parallel@plt>:
    a7b0:	f3 0f 1e fa          	endbr64 
    a7b4:	f2 ff 25 3d 26 01 00 	bnd jmp *0x1263d(%rip)        # 1cdf8 <GOMP_parallel@GOMP_4.0>
    a7bb:	0f 1f 44 00 00       	nopl   0x0(%rax,%rax,1)

000000000000a7c0 <MPI_Type_dup@plt>:
    a7c0:	f3 0f 1e fa          	endbr64 
    a7c4:	f2 ff 25 35 26 01 00 	bnd jmp *0x12635(%rip)        # 1ce00 <MPI_Type_dup@Base>
    a7cb:	0f 1f 44 00 00       	nopl   0x0(%rax,%rax,1)

000000000000a7d0 <_ZNSt8ios_base4InitC1Ev@plt>:
    a7d0:	f3 0f 1e fa          	endbr64 
    a7d4:	f2 ff 25 2d 26 01 00 	bnd jmp *0x1262d(%rip)        # 1ce08 <_ZNSt8ios_base4InitC1Ev@GLIBCXX_3.4>
    a7db:	0f 1f 44 00 00       	nopl   0x0(%rax,%rax,1)

000000000000a7e0 <puts@plt>:
    a7e0:	f3 0f 1e fa          	endbr64 
    a7e4:	f2 ff 25 25 26 01 00 	bnd jmp *0x12625(%rip)        # 1ce10 <puts@GLIBC_2.2.5>
    a7eb:	0f 1f 44 00 00       	nopl   0x0(%rax,%rax,1)

000000000000a7f0 <MPI_Comm_set_errhandler@plt>:
    a7f0:	f3 0f 1e fa          	endbr64 
    a7f4:	f2 ff 25 1d 26 01 00 	bnd jmp *0x1261d(%rip)        # 1ce18 <MPI_Comm_set_errhandler@Base>
    a7fb:	0f 1f 44 00 00       	nopl   0x0(%rax,%rax,1)

000000000000a800 <MPI_Ibsend@plt>:
    a800:	f3 0f 1e fa          	endbr64 
    a804:	f2 ff 25 15 26 01 00 	bnd jmp *0x12615(%rip)        # 1ce20 <MPI_Ibsend@Base>
    a80b:	0f 1f 44 00 00       	nopl   0x0(%rax,%rax,1)

000000000000a810 <MPI_Alltoallv@plt>:
    a810:	f3 0f 1e fa          	endbr64 
    a814:	f2 ff 25 0d 26 01 00 	bnd jmp *0x1260d(%rip)        # 1ce28 <MPI_Alltoallv@Base>
    a81b:	0f 1f 44 00 00       	nopl   0x0(%rax,%rax,1)

000000000000a820 <MPI_Op_free@plt>:
    a820:	f3 0f 1e fa          	endbr64 
    a824:	f2 ff 25 05 26 01 00 	bnd jmp *0x12605(%rip)        # 1ce30 <MPI_Op_free@Base>
    a82b:	0f 1f 44 00 00       	nopl   0x0(%rax,%rax,1)

000000000000a830 <strtok@plt>:
    a830:	f3 0f 1e fa          	endbr64 
    a834:	f2 ff 25 fd 25 01 00 	bnd jmp *0x125fd(%rip)        # 1ce38 <strtok@GLIBC_2.2.5>
    a83b:	0f 1f 44 00 00       	nopl   0x0(%rax,%rax,1)

000000000000a840 <MPI_Comm_connect@plt>:
    a840:	f3 0f 1e fa          	endbr64 
    a844:	f2 ff 25 f5 25 01 00 	bnd jmp *0x125f5(%rip)        # 1ce40 <MPI_Comm_connect@Base>
    a84b:	0f 1f 44 00 00       	nopl   0x0(%rax,%rax,1)

000000000000a850 <_ZNSt7__cxx1112basic_stringIcSt11char_traitsIcESaIcEE6insertEmRKS4_@plt>:
    a850:	f3 0f 1e fa          	endbr64 
    a854:	f2 ff 25 ed 25 01 00 	bnd jmp *0x125ed(%rip)        # 1ce48 <_ZNSt7__cxx1112basic_stringIcSt11char_traitsIcESaIcEE6insertEmRKS4_@GLIBCXX_3.4.21>
    a85b:	0f 1f 44 00 00       	nopl   0x0(%rax,%rax,1)

000000000000a860 <MPI_Comm_free@plt>:
    a860:	f3 0f 1e fa          	endbr64 
    a864:	f2 ff 25 e5 25 01 00 	bnd jmp *0x125e5(%rip)        # 1ce50 <MPI_Comm_free@Base>
    a86b:	0f 1f 44 00 00       	nopl   0x0(%rax,%rax,1)

000000000000a870 <_ZNSt14basic_ifstreamIcSt11char_traitsIcEE7is_openEv@plt>:
    a870:	f3 0f 1e fa          	endbr64 
    a874:	f2 ff 25 dd 25 01 00 	bnd jmp *0x125dd(%rip)        # 1ce58 <_ZNSt14basic_ifstreamIcSt11char_traitsIcEE7is_openEv@GLIBCXX_3.4>
    a87b:	0f 1f 44 00 00       	nopl   0x0(%rax,%rax,1)

000000000000a880 <omp_get_thread_num@plt>:
    a880:	f3 0f 1e fa          	endbr64 
    a884:	f2 ff 25 d5 25 01 00 	bnd jmp *0x125d5(%rip)        # 1ce60 <omp_get_thread_num@OMP_1.0>
    a88b:	0f 1f 44 00 00       	nopl   0x0(%rax,%rax,1)

000000000000a890 <MPI_Comm_split@plt>:
    a890:	f3 0f 1e fa          	endbr64 
    a894:	f2 ff 25 cd 25 01 00 	bnd jmp *0x125cd(%rip)        # 1ce68 <MPI_Comm_split@Base>
    a89b:	0f 1f 44 00 00       	nopl   0x0(%rax,%rax,1)

000000000000a8a0 <_ZNSt14basic_ifstreamIcSt11char_traitsIcEEC1ERKNSt7__cxx1112basic_stringIcS1_SaIcEEESt13_Ios_Openmode@plt>:
    a8a0:	f3 0f 1e fa          	endbr64 
    a8a4:	f2 ff 25 c5 25 01 00 	bnd jmp *0x125c5(%rip)        # 1ce70 <_ZNSt14basic_ifstreamIcSt11char_traitsIcEEC1ERKNSt7__cxx1112basic_stringIcS1_SaIcEEESt13_Ios_Openmode@GLIBCXX_3.4.21>
    a8ab:	0f 1f 44 00 00       	nopl   0x0(%rax,%rax,1)

000000000000a8b0 <MPI_Type_create_subarray@plt>:
    a8b0:	f3 0f 1e fa          	endbr64 
    a8b4:	f2 ff 25 bd 25 01 00 	bnd jmp *0x125bd(%rip)        # 1ce78 <MPI_Type_create_subarray@Base>
    a8bb:	0f 1f 44 00 00       	nopl   0x0(%rax,%rax,1)

000000000000a8c0 <MPI_Comm_spawn_multiple@plt>:
    a8c0:	f3 0f 1e fa          	endbr64 
    a8c4:	f2 ff 25 b5 25 01 00 	bnd jmp *0x125b5(%rip)        # 1ce80 <MPI_Comm_spawn_multiple@Base>
    a8cb:	0f 1f 44 00 00       	nopl   0x0(%rax,%rax,1)

000000000000a8d0 <realloc@plt>:
    a8d0:	f3 0f 1e fa          	endbr64 
    a8d4:	f2 ff 25 ad 25 01 00 	bnd jmp *0x125ad(%rip)        # 1ce88 <realloc@GLIBC_2.2.5>
    a8db:	0f 1f 44 00 00       	nopl   0x0(%rax,%rax,1)

000000000000a8e0 <MPI_Test@plt>:
    a8e0:	f3 0f 1e fa          	endbr64 
    a8e4:	f2 ff 25 a5 25 01 00 	bnd jmp *0x125a5(%rip)        # 1ce90 <MPI_Test@Base>
    a8eb:	0f 1f 44 00 00       	nopl   0x0(%rax,%rax,1)

000000000000a8f0 <MPI_Info_get_valuelen@plt>:
    a8f0:	f3 0f 1e fa          	endbr64 
    a8f4:	f2 ff 25 9d 25 01 00 	bnd jmp *0x1259d(%rip)        # 1ce98 <MPI_Info_get_valuelen@Base>
    a8fb:	0f 1f 44 00 00       	nopl   0x0(%rax,%rax,1)

000000000000a900 <MPI_Win_test@plt>:
    a900:	f3 0f 1e fa          	endbr64 
    a904:	f2 ff 25 95 25 01 00 	bnd jmp *0x12595(%rip)        # 1cea0 <MPI_Win_test@Base>
    a90b:	0f 1f 44 00 00       	nopl   0x0(%rax,%rax,1)

000000000000a910 <MPI_Type_vector@plt>:
    a910:	f3 0f 1e fa          	endbr64 
    a914:	f2 ff 25 8d 25 01 00 	bnd jmp *0x1258d(%rip)        # 1cea8 <MPI_Type_vector@Base>
    a91b:	0f 1f 44 00 00       	nopl   0x0(%rax,%rax,1)

000000000000a920 <MPI_Start@plt>:
    a920:	f3 0f 1e fa          	endbr64 
    a924:	f2 ff 25 85 25 01 00 	bnd jmp *0x12585(%rip)        # 1ceb0 <MPI_Start@Base>
    a92b:	0f 1f 44 00 00       	nopl   0x0(%rax,%rax,1)

000000000000a930 <MPI_Win_call_errhandler@plt>:
    a930:	f3 0f 1e fa          	endbr64 
    a934:	f2 ff 25 7d 25 01 00 	bnd jmp *0x1257d(%rip)        # 1ceb8 <MPI_Win_call_errhandler@Base>
    a93b:	0f 1f 44 00 00       	nopl   0x0(%rax,%rax,1)

000000000000a940 <MPI_Type_indexed@plt>:
    a940:	f3 0f 1e fa          	endbr64 
    a944:	f2 ff 25 75 25 01 00 	bnd jmp *0x12575(%rip)        # 1cec0 <MPI_Type_indexed@Base>
    a94b:	0f 1f 44 00 00       	nopl   0x0(%rax,%rax,1)

000000000000a950 <MPI_Comm_set_name@plt>:
    a950:	f3 0f 1e fa          	endbr64 
    a954:	f2 ff 25 6d 25 01 00 	bnd jmp *0x1256d(%rip)        # 1cec8 <MPI_Comm_set_name@Base>
    a95b:	0f 1f 44 00 00       	nopl   0x0(%rax,%rax,1)

000000000000a960 <MPI_Win_fence@plt>:
    a960:	f3 0f 1e fa          	endbr64 
    a964:	f2 ff 25 65 25 01 00 	bnd jmp *0x12565(%rip)        # 1ced0 <MPI_Win_fence@Base>
    a96b:	0f 1f 44 00 00       	nopl   0x0(%rax,%rax,1)

000000000000a970 <MPI_Win_complete@plt>:
    a970:	f3 0f 1e fa          	endbr64 
    a974:	f2 ff 25 5d 25 01 00 	bnd jmp *0x1255d(%rip)        # 1ced8 <MPI_Win_complete@Base>
    a97b:	0f 1f 44 00 00       	nopl   0x0(%rax,%rax,1)

000000000000a980 <_ZNSolsEi@plt>:
    a980:	f3 0f 1e fa          	endbr64 
    a984:	f2 ff 25 55 25 01 00 	bnd jmp *0x12555(%rip)        # 1cee0 <_ZNSolsEi@GLIBCXX_3.4>
    a98b:	0f 1f 44 00 00       	nopl   0x0(%rax,%rax,1)

000000000000a990 <MPI_Group_free@plt>:
    a990:	f3 0f 1e fa          	endbr64 
    a994:	f2 ff 25 4d 25 01 00 	bnd jmp *0x1254d(%rip)        # 1cee8 <MPI_Group_free@Base>
    a99b:	0f 1f 44 00 00       	nopl   0x0(%rax,%rax,1)

000000000000a9a0 <MPI_Type_create_resized@plt>:
    a9a0:	f3 0f 1e fa          	endbr64 
    a9a4:	f2 ff 25 45 25 01 00 	bnd jmp *0x12545(%rip)        # 1cef0 <MPI_Type_create_resized@Base>
    a9ab:	0f 1f 44 00 00       	nopl   0x0(%rax,%rax,1)

000000000000a9b0 <_Unwind_Resume@plt>:
    a9b0:	f3 0f 1e fa          	endbr64 
    a9b4:	f2 ff 25 3d 25 01 00 	bnd jmp *0x1253d(%rip)        # 1cef8 <_Unwind_Resume@GCC_3.0>
    a9bb:	0f 1f 44 00 00       	nopl   0x0(%rax,%rax,1)

000000000000a9c0 <_ZNSaIcEC1Ev@plt>:
    a9c0:	f3 0f 1e fa          	endbr64 
    a9c4:	f2 ff 25 35 25 01 00 	bnd jmp *0x12535(%rip)        # 1cf00 <_ZNSaIcEC1Ev@GLIBCXX_3.4>
    a9cb:	0f 1f 44 00 00       	nopl   0x0(%rax,%rax,1)

000000000000a9d0 <MPI_Cart_rank@plt>:
    a9d0:	f3 0f 1e fa          	endbr64 
    a9d4:	f2 ff 25 2d 25 01 00 	bnd jmp *0x1252d(%rip)        # 1cf08 <MPI_Cart_rank@Base>
    a9db:	0f 1f 44 00 00       	nopl   0x0(%rax,%rax,1)

000000000000a9e0 <MPI_Comm_accept@plt>:
    a9e0:	f3 0f 1e fa          	endbr64 
    a9e4:	f2 ff 25 25 25 01 00 	bnd jmp *0x12525(%rip)        # 1cf10 <MPI_Comm_accept@Base>
    a9eb:	0f 1f 44 00 00       	nopl   0x0(%rax,%rax,1)

000000000000a9f0 <MPI_Win_set_attr@plt>:
    a9f0:	f3 0f 1e fa          	endbr64 
    a9f4:	f2 ff 25 1d 25 01 00 	bnd jmp *0x1251d(%rip)        # 1cf18 <MPI_Win_set_attr@Base>
    a9fb:	0f 1f 44 00 00       	nopl   0x0(%rax,%rax,1)

000000000000aa00 <MPI_Win_delete_attr@plt>:
    aa00:	f3 0f 1e fa          	endbr64 
    aa04:	f2 ff 25 15 25 01 00 	bnd jmp *0x12515(%rip)        # 1cf20 <MPI_Win_delete_attr@Base>
    aa0b:	0f 1f 44 00 00       	nopl   0x0(%rax,%rax,1)

000000000000aa10 <MPI_Type_delete_attr@plt>:
    aa10:	f3 0f 1e fa          	endbr64 
    aa14:	f2 ff 25 0d 25 01 00 	bnd jmp *0x1250d(%rip)        # 1cf28 <MPI_Type_delete_attr@Base>
    aa1b:	0f 1f 44 00 00       	nopl   0x0(%rax,%rax,1)

000000000000aa20 <MPI_Gatherv@plt>:
    aa20:	f3 0f 1e fa          	endbr64 
    aa24:	f2 ff 25 05 25 01 00 	bnd jmp *0x12505(%rip)        # 1cf30 <MPI_Gatherv@Base>
    aa2b:	0f 1f 44 00 00       	nopl   0x0(%rax,%rax,1)

000000000000aa30 <MPI_Group_rank@plt>:
    aa30:	f3 0f 1e fa          	endbr64 
    aa34:	f2 ff 25 fd 24 01 00 	bnd jmp *0x124fd(%rip)        # 1cf38 <MPI_Group_rank@Base>
    aa3b:	0f 1f 44 00 00       	nopl   0x0(%rax,%rax,1)

000000000000aa40 <omp_get_num_threads@plt>:
    aa40:	f3 0f 1e fa          	endbr64 
    aa44:	f2 ff 25 f5 24 01 00 	bnd jmp *0x124f5(%rip)        # 1cf40 <omp_get_num_threads@OMP_1.0>
    aa4b:	0f 1f 44 00 00       	nopl   0x0(%rax,%rax,1)

000000000000aa50 <MPI_Intercomm_merge@plt>:
    aa50:	f3 0f 1e fa          	endbr64 
    aa54:	f2 ff 25 ed 24 01 00 	bnd jmp *0x124ed(%rip)        # 1cf48 <MPI_Intercomm_merge@Base>
    aa5b:	0f 1f 44 00 00       	nopl   0x0(%rax,%rax,1)

000000000000aa60 <MPI_Win_get_errhandler@plt>:
    aa60:	f3 0f 1e fa          	endbr64 
    aa64:	f2 ff 25 e5 24 01 00 	bnd jmp *0x124e5(%rip)        # 1cf50 <MPI_Win_get_errhandler@Base>
    aa6b:	0f 1f 44 00 00       	nopl   0x0(%rax,%rax,1)

000000000000aa70 <MPI_Accumulate@plt>:
    aa70:	f3 0f 1e fa          	endbr64 
    aa74:	f2 ff 25 dd 24 01 00 	bnd jmp *0x124dd(%rip)        # 1cf58 <MPI_Accumulate@Base>
    aa7b:	0f 1f 44 00 00       	nopl   0x0(%rax,%rax,1)

000000000000aa80 <_ZNSolsEd@plt>:
    aa80:	f3 0f 1e fa          	endbr64 
    aa84:	f2 ff 25 d5 24 01 00 	bnd jmp *0x124d5(%rip)        # 1cf60 <_ZNSolsEd@GLIBCXX_3.4>
    aa8b:	0f 1f 44 00 00       	nopl   0x0(%rax,%rax,1)

000000000000aa90 <MPI_Type_set_attr@plt>:
    aa90:	f3 0f 1e fa          	endbr64 
    aa94:	f2 ff 25 cd 24 01 00 	bnd jmp *0x124cd(%rip)        # 1cf68 <MPI_Type_set_attr@Base>
    aa9b:	0f 1f 44 00 00       	nopl   0x0(%rax,%rax,1)

000000000000aaa0 <MPI_Status_set_cancelled@plt>:
    aaa0:	f3 0f 1e fa          	endbr64 
    aaa4:	f2 ff 25 c5 24 01 00 	bnd jmp *0x124c5(%rip)        # 1cf70 <MPI_Status_set_cancelled@Base>
    aaab:	0f 1f 44 00 00       	nopl   0x0(%rax,%rax,1)

000000000000aab0 <MPI_Graph_neighbors_count@plt>:
    aab0:	f3 0f 1e fa          	endbr64 
    aab4:	f2 ff 25 bd 24 01 00 	bnd jmp *0x124bd(%rip)        # 1cf78 <MPI_Graph_neighbors_count@Base>
    aabb:	0f 1f 44 00 00       	nopl   0x0(%rax,%rax,1)

000000000000aac0 <MPI_Info_free@plt>:
    aac0:	f3 0f 1e fa          	endbr64 
    aac4:	f2 ff 25 b5 24 01 00 	bnd jmp *0x124b5(%rip)        # 1cf80 <MPI_Info_free@Base>
    aacb:	0f 1f 44 00 00       	nopl   0x0(%rax,%rax,1)

000000000000aad0 <MPI_Pack_external_size@plt>:
    aad0:	f3 0f 1e fa          	endbr64 
    aad4:	f2 ff 25 ad 24 01 00 	bnd jmp *0x124ad(%rip)        # 1cf88 <MPI_Pack_external_size@Base>
    aadb:	0f 1f 44 00 00       	nopl   0x0(%rax,%rax,1)

000000000000aae0 <MPI_Type_set_name@plt>:
    aae0:	f3 0f 1e fa          	endbr64 
    aae4:	f2 ff 25 a5 24 01 00 	bnd jmp *0x124a5(%rip)        # 1cf90 <MPI_Type_set_name@Base>
    aaeb:	0f 1f 44 00 00       	nopl   0x0(%rax,%rax,1)

000000000000aaf0 <_ZNSt14basic_ofstreamIcSt11char_traitsIcEEC1ERKNSt7__cxx1112basic_stringIcS1_SaIcEEESt13_Ios_Openmode@plt>:
    aaf0:	f3 0f 1e fa          	endbr64 
    aaf4:	f2 ff 25 9d 24 01 00 	bnd jmp *0x1249d(%rip)        # 1cf98 <_ZNSt14basic_ofstreamIcSt11char_traitsIcEEC1ERKNSt7__cxx1112basic_stringIcS1_SaIcEEESt13_Ios_Openmode@GLIBCXX_3.4.21>
    aafb:	0f 1f 44 00 00       	nopl   0x0(%rax,%rax,1)

000000000000ab00 <_ZNSt7__cxx1112basic_stringIcSt11char_traitsIcESaIcEE6appendERKS4_@plt>:
    ab00:	f3 0f 1e fa          	endbr64 
    ab04:	f2 ff 25 95 24 01 00 	bnd jmp *0x12495(%rip)        # 1cfa0 <_ZNSt7__cxx1112basic_stringIcSt11char_traitsIcESaIcEE6appendERKS4_@GLIBCXX_3.4.21>
    ab0b:	0f 1f 44 00 00       	nopl   0x0(%rax,%rax,1)

000000000000ab10 <MPI_Graph_create@plt>:
    ab10:	f3 0f 1e fa          	endbr64 
    ab14:	f2 ff 25 8d 24 01 00 	bnd jmp *0x1248d(%rip)        # 1cfa8 <MPI_Graph_create@Base>
    ab1b:	0f 1f 44 00 00       	nopl   0x0(%rax,%rax,1)

000000000000ab20 <MPI_Comm_test_inter@plt>:
    ab20:	f3 0f 1e fa          	endbr64 
    ab24:	f2 ff 25 85 24 01 00 	bnd jmp *0x12485(%rip)        # 1cfb0 <MPI_Comm_test_inter@Base>
    ab2b:	0f 1f 44 00 00       	nopl   0x0(%rax,%rax,1)

000000000000ab30 <_ZNSt7__cxx1112basic_stringIcSt11char_traitsIcESaIcEEixEm@plt>:
    ab30:	f3 0f 1e fa          	endbr64 
    ab34:	f2 ff 25 7d 24 01 00 	bnd jmp *0x1247d(%rip)        # 1cfb8 <_ZNSt7__cxx1112basic_stringIcSt11char_traitsIcESaIcEEixEm@GLIBCXX_3.4.21>
    ab3b:	0f 1f 44 00 00       	nopl   0x0(%rax,%rax,1)

Disassembly of section .text:

000000000000ab40 <_start>:
    ab40:	f3 0f 1e fa          	endbr64 
    ab44:	31 ed                	xor    %ebp,%ebp
    ab46:	49 89 d1             	mov    %rdx,%r9
    ab49:	5e                   	pop    %rsi
    ab4a:	48 89 e2             	mov    %rsp,%rdx
    ab4d:	48 83 e4 f0          	and    $0xfffffffffffffff0,%rsp
    ab51:	50                   	push   %rax
    ab52:	54                   	push   %rsp
    ab53:	45 31 c0             	xor    %r8d,%r8d
    ab56:	31 c9                	xor    %ecx,%ecx
    ab58:	48 8d 3d ca 00 00 00 	lea    0xca(%rip),%rdi        # ac29 <main>
    ab5f:	ff 15 73 24 01 00    	call   *0x12473(%rip)        # 1cfd8 <__libc_start_main@GLIBC_2.34>
    ab65:	f4                   	hlt    
    ab66:	66 2e 0f 1f 84 00 00 	cs nopw 0x0(%rax,%rax,1)
    ab6d:	00 00 00 

000000000000ab70 <deregister_tm_clones>:
    ab70:	48 8d 3d a1 24 01 00 	lea    0x124a1(%rip),%rdi        # 1d018 <__TMC_END__>
    ab77:	48 8d 05 9a 24 01 00 	lea    0x1249a(%rip),%rax        # 1d018 <__TMC_END__>
    ab7e:	48 39 f8             	cmp    %rdi,%rax
    ab81:	74 15                	je     ab98 <deregister_tm_clones+0x28>
    ab83:	48 8b 05 56 24 01 00 	mov    0x12456(%rip),%rax        # 1cfe0 <_ITM_deregisterTMCloneTable@Base>
    ab8a:	48 85 c0             	test   %rax,%rax
    ab8d:	74 09                	je     ab98 <deregister_tm_clones+0x28>
    ab8f:	ff e0                	jmp    *%rax
    ab91:	0f 1f 80 00 00 00 00 	nopl   0x0(%rax)
    ab98:	c3                   	ret    
    ab99:	0f 1f 80 00 00 00 00 	nopl   0x0(%rax)

000000000000aba0 <register_tm_clones>:
    aba0:	48 8d 3d 71 24 01 00 	lea    0x12471(%rip),%rdi        # 1d018 <__TMC_END__>
    aba7:	48 8d 35 6a 24 01 00 	lea    0x1246a(%rip),%rsi        # 1d018 <__TMC_END__>
    abae:	48 29 fe             	sub    %rdi,%rsi
    abb1:	48 89 f0             	mov    %rsi,%rax
    abb4:	48 c1 ee 3f          	shr    $0x3f,%rsi
    abb8:	48 c1 f8 03          	sar    $0x3,%rax
    abbc:	48 01 c6             	add    %rax,%rsi
    abbf:	48 d1 fe             	sar    %rsi
    abc2:	74 14                	je     abd8 <register_tm_clones+0x38>
    abc4:	48 8b 05 25 24 01 00 	mov    0x12425(%rip),%rax        # 1cff0 <_ITM_registerTMCloneTable@Base>
    abcb:	48 85 c0             	test   %rax,%rax
    abce:	74 08                	je     abd8 <register_tm_clones+0x38>
    abd0:	ff e0                	jmp    *%rax
    abd2:	66 0f 1f 44 00 00    	nopw   0x0(%rax,%rax,1)
    abd8:	c3                   	ret    
    abd9:	0f 1f 80 00 00 00 00 	nopl   0x0(%rax)

000000000000abe0 <__do_global_dtors_aux>:
    abe0:	f3 0f 1e fa          	endbr64 
    abe4:	80 3d 65 37 01 00 00 	cmpb   $0x0,0x13765(%rip)        # 1e350 <completed.0>
    abeb:	75 2b                	jne    ac18 <__do_global_dtors_aux+0x38>
    abed:	55                   	push   %rbp
    abee:	48 83 3d d2 23 01 00 	cmpq   $0x0,0x123d2(%rip)        # 1cfc8 <__cxa_finalize@GLIBC_2.2.5>
    abf5:	00 
    abf6:	48 89 e5             	mov    %rsp,%rbp
    abf9:	74 0c                	je     ac07 <__do_global_dtors_aux+0x27>
    abfb:	48 8b 3d 06 24 01 00 	mov    0x12406(%rip),%rdi        # 1d008 <__dso_handle>
    ac02:	e8 a9 f1 ff ff       	call   9db0 <__cxa_finalize@plt>
    ac07:	e8 64 ff ff ff       	call   ab70 <deregister_tm_clones>
    ac0c:	c6 05 3d 37 01 00 01 	movb   $0x1,0x1373d(%rip)        # 1e350 <completed.0>
    ac13:	5d                   	pop    %rbp
    ac14:	c3                   	ret    
    ac15:	0f 1f 00             	nopl   (%rax)
    ac18:	c3                   	ret    
    ac19:	0f 1f 80 00 00 00 00 	nopl   0x0(%rax)

000000000000ac20 <frame_dummy>:
    ac20:	f3 0f 1e fa          	endbr64 
    ac24:	e9 77 ff ff ff       	jmp    aba0 <register_tm_clones>

000000000000ac29 <main>:
#include "dense_scheduler.h"
#include "user_def/gravity_particle.h"
#include <string>
#include "mpi.h"

int main(int argc, char** argv) {
    ac29:	f3 0f 1e fa          	endbr64 
    ac2d:	55                   	push   %rbp
    ac2e:	48 89 e5             	mov    %rsp,%rbp
    ac31:	41 55                	push   %r13
    ac33:	41 54                	push   %r12
    ac35:	53                   	push   %rbx
    ac36:	48 81 ec 78 01 00 00 	sub    $0x178,%rsp
    ac3d:	89 bd 7c fe ff ff    	mov    %edi,-0x184(%rbp)
    ac43:	48 89 b5 70 fe ff ff 	mov    %rsi,-0x190(%rbp)
    ac4a:	64 48 8b 04 25 28 00 	mov    %fs:0x28,%rax
    ac51:	00 00 
    ac53:	48 89 45 d8          	mov    %rax,-0x28(%rbp)
    ac57:	31 c0                	xor    %eax,%eax
    const int gridX = 3, gridY=3;
    ac59:	c7 85 90 fe ff ff 03 	movl   $0x3,-0x170(%rbp)
    ac60:	00 00 00 
    ac63:	c7 85 94 fe ff ff 03 	movl   $0x3,-0x16c(%rbp)
    ac6a:	00 00 00 
    MPI_Init(&argc, &argv);
    ac6d:	48 8d 95 70 fe ff ff 	lea    -0x190(%rbp),%rdx
    ac74:	48 8d 85 7c fe ff ff 	lea    -0x184(%rbp),%rax
    ac7b:	48 89 d6             	mov    %rdx,%rsi
    ac7e:	48 89 c7             	mov    %rax,%rdi
    ac81:	e8 8a fa ff ff       	call   a710 <MPI_Init@plt>

    topology_t topology;
    setupCommunicators(&topology, gridX, gridY);
    ac86:	48 8d 85 c0 fe ff ff 	lea    -0x140(%rbp),%rax
    ac8d:	ba 03 00 00 00       	mov    $0x3,%edx
    ac92:	be 03 00 00 00       	mov    $0x3,%esi
    ac97:	48 89 c7             	mov    %rax,%rdi
    ac9a:	e8 af 7b 00 00       	call   1284e <_Z18setupCommunicatorsP10topology_tii>
    const int& rankX = topology.rankX;
    ac9f:	48 8d 85 c0 fe ff ff 	lea    -0x140(%rbp),%rax
    aca6:	48 89 85 b0 fe ff ff 	mov    %rax,-0x150(%rbp)
    const int& rankY = topology.rankY;
    acad:	48 8d 85 c0 fe ff ff 	lea    -0x140(%rbp),%rax
    acb4:	48 83 c0 04          	add    $0x4,%rax
    acb8:	48 89 85 b8 fe ff ff 	mov    %rax,-0x148(%rbp)
    const std::string inputFilename = "/home/cman8/Parallel-Framework-for-Particle-Dynamics-Simulation/data/data100.txt";
    acbf:	48 8d 85 a8 fe ff ff 	lea    -0x158(%rbp),%rax
    acc6:	48 89 c7             	mov    %rax,%rdi
    acc9:	e8 f2 fc ff ff       	call   a9c0 <_ZNSaIcEC1Ev@plt>
    acce:	48 8d 95 a8 fe ff ff 	lea    -0x158(%rbp),%rdx
    acd5:	48 8d 85 f0 fe ff ff 	lea    -0x110(%rbp),%rax
    acdc:	48 8d 0d 65 b5 00 00 	lea    0xb565(%rip),%rcx        # 16248 <_ZN3MPIL11LOCK_SHAREDE+0x8>
    ace3:	48 89 ce             	mov    %rcx,%rsi
    ace6:	48 89 c7             	mov    %rax,%rdi
    ace9:	e8 82 f9 ff ff       	call   a670 <_ZNSt7__cxx1112basic_stringIcSt11char_traitsIcESaIcEEC1EPKcRKS3_@plt>
    acee:	48 8d 85 a8 fe ff ff 	lea    -0x158(%rbp),%rax
    acf5:	48 89 c7             	mov    %rax,%rdi
    acf8:	e8 73 f7 ff ff       	call   a470 <_ZNSaIcED1Ev@plt>
    const std::string paddingFilename = "/home/cman8/Parallel-Framework-for-Particle-Dynamics-Simulation/data/padding100.txt";
    acfd:	48 8d 85 a8 fe ff ff 	lea    -0x158(%rbp),%rax
    ad04:	48 89 c7             	mov    %rax,%rdi
    ad07:	e8 b4 fc ff ff       	call   a9c0 <_ZNSaIcEC1Ev@plt>
    ad0c:	48 8d 95 a8 fe ff ff 	lea    -0x158(%rbp),%rdx
    ad13:	48 8d 85 10 ff ff ff 	lea    -0xf0(%rbp),%rax
    ad1a:	48 8d 0d 7f b5 00 00 	lea    0xb57f(%rip),%rcx        # 162a0 <_ZN3MPIL11LOCK_SHAREDE+0x60>
    ad21:	48 89 ce             	mov    %rcx,%rsi
    ad24:	48 89 c7             	mov    %rax,%rdi
    ad27:	e8 44 f9 ff ff       	call   a670 <_ZNSt7__cxx1112basic_stringIcSt11char_traitsIcESaIcEEC1EPKcRKS3_@plt>
    ad2c:	48 8d 85 a8 fe ff ff 	lea    -0x158(%rbp),%rax
    ad33:	48 89 c7             	mov    %rax,%rdi
    ad36:	e8 35 f7 ff ff       	call   a470 <_ZNSaIcED1Ev@plt>
    const std::string scatterFilenameX = "/home/cman8/Parallel-Framework-for-Particle-Dynamics-Simulation/data/scatter100.txt.x" + std::to_string(rankX) + std::to_string(rankY);
    ad3b:	48 8b 85 b8 fe ff ff 	mov    -0x148(%rbp),%rax
    ad42:	8b 10                	mov    (%rax),%edx
    ad44:	48 8d 45 b0          	lea    -0x50(%rbp),%rax
    ad48:	89 d6                	mov    %edx,%esi
    ad4a:	48 89 c7             	mov    %rax,%rdi
    ad4d:	e8 db 08 00 00       	call   b62d <_ZNSt7__cxx119to_stringEi>
    ad52:	48 8b 85 b0 fe ff ff 	mov    -0x150(%rbp),%rax
    ad59:	8b 10                	mov    (%rax),%edx
    ad5b:	48 8d 85 70 ff ff ff 	lea    -0x90(%rbp),%rax
    ad62:	89 d6                	mov    %edx,%esi
    ad64:	48 89 c7             	mov    %rax,%rdi
    ad67:	e8 c1 08 00 00       	call   b62d <_ZNSt7__cxx119to_stringEi>
    ad6c:	48 8d 45 90          	lea    -0x70(%rbp),%rax
    ad70:	48 8d 95 70 ff ff ff 	lea    -0x90(%rbp),%rdx
    ad77:	48 8d 0d 7a b5 00 00 	lea    0xb57a(%rip),%rcx        # 162f8 <_ZN3MPIL11LOCK_SHAREDE+0xb8>
    ad7e:	48 89 ce             	mov    %rcx,%rsi
    ad81:	48 89 c7             	mov    %rax,%rdi
    ad84:	e8 d8 5a 00 00       	call   10861 <_ZStplIcSt11char_traitsIcESaIcEENSt7__cxx1112basic_stringIT_T0_T1_EEPKS5_OS8_>
    ad89:	48 8d 85 30 ff ff ff 	lea    -0xd0(%rbp),%rax
    ad90:	48 8d 55 b0          	lea    -0x50(%rbp),%rdx
    ad94:	48 8d 4d 90          	lea    -0x70(%rbp),%rcx
    ad98:	48 89 ce             	mov    %rcx,%rsi
    ad9b:	48 89 c7             	mov    %rax,%rdi
    ad9e:	e8 45 59 00 00       	call   106e8 <_ZStplIcSt11char_traitsIcESaIcEENSt7__cxx1112basic_stringIT_T0_T1_EEOS8_S9_>
    ada3:	48 8d 45 90          	lea    -0x70(%rbp),%rax
    ada7:	48 89 c7             	mov    %rax,%rdi
    adaa:	e8 71 f3 ff ff       	call   a120 <_ZNSt7__cxx1112basic_stringIcSt11char_traitsIcESaIcEED1Ev@plt>
    adaf:	48 8d 85 70 ff ff ff 	lea    -0x90(%rbp),%rax
    adb6:	48 89 c7             	mov    %rax,%rdi
    adb9:	e8 62 f3 ff ff       	call   a120 <_ZNSt7__cxx1112basic_stringIcSt11char_traitsIcESaIcEED1Ev@plt>
    adbe:	48 8d 45 b0          	lea    -0x50(%rbp),%rax
    adc2:	48 89 c7             	mov    %rax,%rdi
    adc5:	e8 56 f3 ff ff       	call   a120 <_ZNSt7__cxx1112basic_stringIcSt11char_traitsIcESaIcEED1Ev@plt>
    const std::string scatterFilenameY = "/home/cman8/Parallel-Framework-for-Particle-Dynamics-Simulation/data/scatter100.txt.y" + std::to_string(rankX) + std::to_string(rankY);
    adca:	48 8b 85 b8 fe ff ff 	mov    -0x148(%rbp),%rax
    add1:	8b 10                	mov    (%rax),%edx
    add3:	48 8d 45 b0          	lea    -0x50(%rbp),%rax
    add7:	89 d6                	mov    %edx,%esi
    add9:	48 89 c7             	mov    %rax,%rdi
    addc:	e8 4c 08 00 00       	call   b62d <_ZNSt7__cxx119to_stringEi>
    ade1:	48 8b 85 b0 fe ff ff 	mov    -0x150(%rbp),%rax
    ade8:	8b 10                	mov    (%rax),%edx
    adea:	48 8d 85 70 ff ff ff 	lea    -0x90(%rbp),%rax
    adf1:	89 d6                	mov    %edx,%esi
    adf3:	48 89 c7             	mov    %rax,%rdi
    adf6:	e8 32 08 00 00       	call   b62d <_ZNSt7__cxx119to_stringEi>
    adfb:	48 8d 45 90          	lea    -0x70(%rbp),%rax
    adff:	48 8d 95 70 ff ff ff 	lea    -0x90(%rbp),%rdx
    ae06:	48 8d 0d 43 b5 00 00 	lea    0xb543(%rip),%rcx        # 16350 <_ZN3MPIL11LOCK_SHAREDE+0x110>
    ae0d:	48 89 ce             	mov    %rcx,%rsi
    ae10:	48 89 c7             	mov    %rax,%rdi
    ae13:	e8 49 5a 00 00       	call   10861 <_ZStplIcSt11char_traitsIcESaIcEENSt7__cxx1112basic_stringIT_T0_T1_EEPKS5_OS8_>
    ae18:	48 8d 85 50 ff ff ff 	lea    -0xb0(%rbp),%rax
    ae1f:	48 8d 55 b0          	lea    -0x50(%rbp),%rdx
    ae23:	48 8d 4d 90          	lea    -0x70(%rbp),%rcx
    ae27:	48 89 ce             	mov    %rcx,%rsi
    ae2a:	48 89 c7             	mov    %rax,%rdi
    ae2d:	e8 b6 58 00 00       	call   106e8 <_ZStplIcSt11char_traitsIcESaIcEENSt7__cxx1112basic_stringIT_T0_T1_EEOS8_S9_>
    ae32:	48 8d 45 90          	lea    -0x70(%rbp),%rax
    ae36:	48 89 c7             	mov    %rax,%rdi
    ae39:	e8 e2 f2 ff ff       	call   a120 <_ZNSt7__cxx1112basic_stringIcSt11char_traitsIcESaIcEED1Ev@plt>
    ae3e:	48 8d 85 70 ff ff ff 	lea    -0x90(%rbp),%rax
    ae45:	48 89 c7             	mov    %rax,%rdi
    ae48:	e8 d3 f2 ff ff       	call   a120 <_ZNSt7__cxx1112basic_stringIcSt11char_traitsIcESaIcEED1Ev@plt>
    ae4d:	48 8d 45 b0          	lea    -0x50(%rbp),%rax
    ae51:	48 89 c7             	mov    %rax,%rdi
    ae54:	e8 c7 f2 ff ff       	call   a120 <_ZNSt7__cxx1112basic_stringIcSt11char_traitsIcESaIcEED1Ev@plt>
    const std::string gatherFilename = "/home/cman8/Parallel-Framework-for-Particle-Dynamics-Simulation/data/gather100.txt";
    ae59:	48 8d 85 a8 fe ff ff 	lea    -0x158(%rbp),%rax
    ae60:	48 89 c7             	mov    %rax,%rdi
    ae63:	e8 58 fb ff ff       	call   a9c0 <_ZNSaIcEC1Ev@plt>
    ae68:	48 8d 95 a8 fe ff ff 	lea    -0x158(%rbp),%rdx
    ae6f:	48 8d 85 70 ff ff ff 	lea    -0x90(%rbp),%rax
    ae76:	48 8d 0d 2b b5 00 00 	lea    0xb52b(%rip),%rcx        # 163a8 <_ZN3MPIL11LOCK_SHAREDE+0x168>
    ae7d:	48 89 ce             	mov    %rcx,%rsi
    ae80:	48 89 c7             	mov    %rax,%rdi
    ae83:	e8 e8 f7 ff ff       	call   a670 <_ZNSt7__cxx1112basic_stringIcSt11char_traitsIcESaIcEEC1EPKcRKS3_@plt>
    ae88:	48 8d 85 a8 fe ff ff 	lea    -0x158(%rbp),%rax
    ae8f:	48 89 c7             	mov    %rax,%rdi
    ae92:	e8 d9 f5 ff ff       	call   a470 <_ZNSaIcED1Ev@plt>
    const std::string shrinkFilename = "/home/cman8/Parallel-Framework-for-Particle-Dynamics-Simulation/data/shrink100.txt";
    ae97:	48 8d 85 a8 fe ff ff 	lea    -0x158(%rbp),%rax
    ae9e:	48 89 c7             	mov    %rax,%rdi
    aea1:	e8 1a fb ff ff       	call   a9c0 <_ZNSaIcEC1Ev@plt>
    aea6:	48 8d 95 a8 fe ff ff 	lea    -0x158(%rbp),%rdx
    aead:	48 8d 45 90          	lea    -0x70(%rbp),%rax
    aeb1:	48 8d 0d 48 b5 00 00 	lea    0xb548(%rip),%rcx        # 16400 <_ZN3MPIL11LOCK_SHAREDE+0x1c0>
    aeb8:	48 89 ce             	mov    %rcx,%rsi
    aebb:	48 89 c7             	mov    %rax,%rdi
    aebe:	e8 ad f7 ff ff       	call   a670 <_ZNSt7__cxx1112basic_stringIcSt11char_traitsIcESaIcEEC1EPKcRKS3_@plt>
    aec3:	48 8d 85 a8 fe ff ff 	lea    -0x158(%rbp),%rax
    aeca:	48 89 c7             	mov    %rax,%rdi
    aecd:	e8 9e f5 ff ff       	call   a470 <_ZNSaIcED1Ev@plt>
    chunk_particles_t* globalParticles = nullptr;
    aed2:	48 c7 85 98 fe ff ff 	movq   $0x0,-0x168(%rbp)
    aed9:	00 00 00 00 
    
    int sizeReduceXComm=-1, sizeReduceYComm=-1, sizeScatterXComm=-1, sizeScatterYComm=-1;
    aedd:	c7 85 80 fe ff ff ff 	movl   $0xffffffff,-0x180(%rbp)
    aee4:	ff ff ff 
    aee7:	c7 85 84 fe ff ff ff 	movl   $0xffffffff,-0x17c(%rbp)
    aeee:	ff ff ff 
    aef1:	c7 85 88 fe ff ff ff 	movl   $0xffffffff,-0x178(%rbp)
    aef8:	ff ff ff 
    aefb:	c7 85 8c fe ff ff ff 	movl   $0xffffffff,-0x174(%rbp)
    af02:	ff ff ff 
    if(topology.reduceXComm != MPI_COMM_NULL)
    af05:	48 8b 85 d0 fe ff ff 	mov    -0x130(%rbp),%rax
    af0c:	48 8d 15 0d 2f 01 00 	lea    0x12f0d(%rip),%rdx        # 1de20 <ompi_mpi_comm_null@@Base>
    af13:	48 39 d0             	cmp    %rdx,%rax
    af16:	74 19                	je     af31 <main+0x308>
        MPI_Comm_size(topology.reduceXComm, &sizeReduceXComm);
    af18:	48 8b 85 d0 fe ff ff 	mov    -0x130(%rbp),%rax
    af1f:	48 8d 95 80 fe ff ff 	lea    -0x180(%rbp),%rdx
    af26:	48 89 d6             	mov    %rdx,%rsi
    af29:	48 89 c7             	mov    %rax,%rdi
    af2c:	e8 bf f5 ff ff       	call   a4f0 <MPI_Comm_size@plt>
    if(topology.reduceYComm != MPI_COMM_NULL)
    af31:	48 8b 85 d8 fe ff ff 	mov    -0x128(%rbp),%rax
    af38:	48 8d 15 e1 2e 01 00 	lea    0x12ee1(%rip),%rdx        # 1de20 <ompi_mpi_comm_null@@Base>
    af3f:	48 39 d0             	cmp    %rdx,%rax
    af42:	74 19                	je     af5d <main+0x334>
        MPI_Comm_size(topology.reduceYComm, &sizeReduceYComm);
    af44:	48 8b 85 d8 fe ff ff 	mov    -0x128(%rbp),%rax
    af4b:	48 8d 95 84 fe ff ff 	lea    -0x17c(%rbp),%rdx
    af52:	48 89 d6             	mov    %rdx,%rsi
    af55:	48 89 c7             	mov    %rax,%rdi
    af58:	e8 93 f5 ff ff       	call   a4f0 <MPI_Comm_size@plt>
    if(topology.scatterXComm != MPI_COMM_NULL)
    af5d:	48 8b 85 e0 fe ff ff 	mov    -0x120(%rbp),%rax
    af64:	48 8d 15 b5 2e 01 00 	lea    0x12eb5(%rip),%rdx        # 1de20 <ompi_mpi_comm_null@@Base>
    af6b:	48 39 d0             	cmp    %rdx,%rax
    af6e:	74 19                	je     af89 <main+0x360>
        MPI_Comm_size(topology.scatterXComm, &sizeScatterXComm);
    af70:	48 8b 85 e0 fe ff ff 	mov    -0x120(%rbp),%rax
    af77:	48 8d 95 88 fe ff ff 	lea    -0x178(%rbp),%rdx
    af7e:	48 89 d6             	mov    %rdx,%rsi
    af81:	48 89 c7             	mov    %rax,%rdi
    af84:	e8 67 f5 ff ff       	call   a4f0 <MPI_Comm_size@plt>
    if(topology.scatterYComm != MPI_COMM_NULL)
    af89:	48 8b 85 e8 fe ff ff 	mov    -0x118(%rbp),%rax
    af90:	48 8d 15 89 2e 01 00 	lea    0x12e89(%rip),%rdx        # 1de20 <ompi_mpi_comm_null@@Base>
    af97:	48 39 d0             	cmp    %rdx,%rax
    af9a:	74 19                	je     afb5 <main+0x38c>
        MPI_Comm_size(topology.scatterYComm, &sizeScatterYComm);
    af9c:	48 8b 85 e8 fe ff ff 	mov    -0x118(%rbp),%rax
    afa3:	48 8d 95 8c fe ff ff 	lea    -0x174(%rbp),%rdx
    afaa:	48 89 d6             	mov    %rdx,%rsi
    afad:	48 89 c7             	mov    %rax,%rdi
    afb0:	e8 3b f5 ff ff       	call   a4f0 <MPI_Comm_size@plt>
    std::printf(
    afb5:	8b 9d 8c fe ff ff    	mov    -0x174(%rbp),%ebx
    afbb:	4c 8b 9d e8 fe ff ff 	mov    -0x118(%rbp),%r11
    afc2:	44 8b 95 88 fe ff ff 	mov    -0x178(%rbp),%r10d
    afc9:	4c 8b 8d e0 fe ff ff 	mov    -0x120(%rbp),%r9
    afd0:	44 8b 85 84 fe ff ff 	mov    -0x17c(%rbp),%r8d
    afd7:	48 8b bd d8 fe ff ff 	mov    -0x128(%rbp),%rdi
    afde:	8b b5 80 fe ff ff    	mov    -0x180(%rbp),%esi
    afe4:	4c 8b ad d0 fe ff ff 	mov    -0x130(%rbp),%r13
    afeb:	44 8b a5 c4 fe ff ff 	mov    -0x13c(%rbp),%r12d
    aff2:	8b 8d c0 fe ff ff    	mov    -0x140(%rbp),%ecx
    aff8:	8b 95 cc fe ff ff    	mov    -0x134(%rbp),%edx
    affe:	8b 85 c8 fe ff ff    	mov    -0x138(%rbp),%eax
    b004:	48 83 ec 08          	sub    $0x8,%rsp
    b008:	53                   	push   %rbx
    b009:	41 53                	push   %r11
    b00b:	41 52                	push   %r10
    b00d:	41 51                	push   %r9
    b00f:	41 50                	push   %r8
    b011:	57                   	push   %rdi
    b012:	56                   	push   %rsi
    b013:	4d 89 e9             	mov    %r13,%r9
    b016:	45 89 e0             	mov    %r12d,%r8d
    b019:	89 c6                	mov    %eax,%esi
    b01b:	48 8d 05 36 b4 00 00 	lea    0xb436(%rip),%rax        # 16458 <_ZN3MPIL11LOCK_SHAREDE+0x218>
    b022:	48 89 c7             	mov    %rax,%rdi
    b025:	b8 00 00 00 00       	mov    $0x0,%eax
    b02a:	e8 b1 ed ff ff       	call   9de0 <printf@plt>
    b02f:	48 83 c4 40          	add    $0x40,%rsp
        "(%d, %d) => (%d, %d) (%lx:%d %lx:%d %lx:%d %lx:%d)\n", 
        topology.gridX, topology.gridY, topology.rankX, topology.rankY, 
        topology.reduceXComm, sizeReduceXComm, topology.reduceYComm, sizeReduceYComm,
        topology.scatterXComm, sizeScatterXComm, topology.scatterYComm, sizeScatterYComm);
    if(globalParticles!=nullptr)
    b033:	48 8b 85 98 fe ff ff 	mov    -0x168(%rbp),%rax
    b03a:	48 85 c0             	test   %rax,%rax
    b03d:	74 23                	je     b062 <main+0x439>
        printf("FSFS before_gather==%lx\n", globalParticles->particles);
    b03f:	48 8b 85 98 fe ff ff 	mov    -0x168(%rbp),%rax
    b046:	48 8b 00             	mov    (%rax),%rax
    b049:	48 89 c6             	mov    %rax,%rsi
    b04c:	48 8d 05 39 b4 00 00 	lea    0xb439(%rip),%rax        # 1648c <_ZN3MPIL11LOCK_SHAREDE+0x24c>
    b053:	48 89 c7             	mov    %rax,%rdi
    b056:	b8 00 00 00 00       	mov    $0x0,%eax
    b05b:	e8 80 ed ff ff       	call   9de0 <printf@plt>
    b060:	eb 0f                	jmp    b071 <main+0x448>
    else
        printf("FSFS before_gather=null\n");
    b062:	48 8d 05 3c b4 00 00 	lea    0xb43c(%rip),%rax        # 164a5 <_ZN3MPIL11LOCK_SHAREDE+0x265>
    b069:	48 89 c7             	mov    %rax,%rdi
    b06c:	e8 6f f7 ff ff       	call   a7e0 <puts@plt>
    if(rankX==0 && rankY==0) {
    b071:	48 8b 85 b0 fe ff ff 	mov    -0x150(%rbp),%rax
    b078:	8b 00                	mov    (%rax),%eax
    b07a:	85 c0                	test   %eax,%eax
    b07c:	0f 85 95 00 00 00    	jne    b117 <main+0x4ee>
    b082:	48 8b 85 b8 fe ff ff 	mov    -0x148(%rbp),%rax
    b089:	8b 00                	mov    (%rax),%eax
    b08b:	85 c0                	test   %eax,%eax
    b08d:	0f 85 84 00 00 00    	jne    b117 <main+0x4ee>
        load_particles(inputFilename, &globalParticles);
    b093:	48 8d 95 f0 fe ff ff 	lea    -0x110(%rbp),%rdx
    b09a:	48 8d 45 b0          	lea    -0x50(%rbp),%rax
    b09e:	48 89 d6             	mov    %rdx,%rsi
    b0a1:	48 89 c7             	mov    %rax,%rdi
    b0a4:	e8 37 ef ff ff       	call   9fe0 <_ZNSt7__cxx1112basic_stringIcSt11char_traitsIcESaIcEEC1ERKS4_@plt>
    b0a9:	48 8d 95 98 fe ff ff 	lea    -0x168(%rbp),%rdx
    b0b0:	48 8d 45 b0          	lea    -0x50(%rbp),%rax
    b0b4:	48 89 d6             	mov    %rdx,%rsi
    b0b7:	48 89 c7             	mov    %rax,%rdi
    b0ba:	e8 bd 69 00 00       	call   11a7c <_Z14load_particlesNSt7__cxx1112basic_stringIcSt11char_traitsIcESaIcEEEPP17chunk_particles_t>
    b0bf:	48 8d 45 b0          	lea    -0x50(%rbp),%rax
    b0c3:	48 89 c7             	mov    %rax,%rdi
    b0c6:	e8 55 f0 ff ff       	call   a120 <_ZNSt7__cxx1112basic_stringIcSt11char_traitsIcESaIcEED1Ev@plt>
        padding(globalParticles, gridX*gridY);
    b0cb:	48 8b 85 98 fe ff ff 	mov    -0x168(%rbp),%rax
    b0d2:	be 09 00 00 00       	mov    $0x9,%esi
    b0d7:	48 89 c7             	mov    %rax,%rdi
    b0da:	e8 54 7d 00 00       	call   12e33 <_Z7paddingP17chunk_particles_ti>
        store_particles(paddingFilename, globalParticles);
    b0df:	48 8b 9d 98 fe ff ff 	mov    -0x168(%rbp),%rbx
    b0e6:	48 8d 95 10 ff ff ff 	lea    -0xf0(%rbp),%rdx
    b0ed:	48 8d 45 b0          	lea    -0x50(%rbp),%rax
    b0f1:	48 89 d6             	mov    %rdx,%rsi
    b0f4:	48 89 c7             	mov    %rax,%rdi
    b0f7:	e8 e4 ee ff ff       	call   9fe0 <_ZNSt7__cxx1112basic_stringIcSt11char_traitsIcESaIcEEC1ERKS4_@plt>
    b0fc:	48 8d 45 b0          	lea    -0x50(%rbp),%rax
    b100:	48 89 de             	mov    %rbx,%rsi
    b103:	48 89 c7             	mov    %rax,%rdi
    b106:	e8 79 6a 00 00       	call   11b84 <_Z15store_particlesNSt7__cxx1112basic_stringIcSt11char_traitsIcESaIcEEEP17chunk_particles_t>
    b10b:	48 8d 45 b0          	lea    -0x50(%rbp),%rax
    b10f:	48 89 c7             	mov    %rax,%rdi
    b112:	e8 09 f0 ff ff       	call   a120 <_ZNSt7__cxx1112basic_stringIcSt11char_traitsIcESaIcEED1Ev@plt>
    }
    if(globalParticles!=nullptr)
    b117:	48 8b 85 98 fe ff ff 	mov    -0x168(%rbp),%rax
    b11e:	48 85 c0             	test   %rax,%rax
    b121:	74 23                	je     b146 <main+0x51d>
        printf("FSKS before_gather==%lx\n", globalParticles->particles);
    b123:	48 8b 85 98 fe ff ff 	mov    -0x168(%rbp),%rax
    b12a:	48 8b 00             	mov    (%rax),%rax
    b12d:	48 89 c6             	mov    %rax,%rsi
    b130:	48 8d 05 86 b3 00 00 	lea    0xb386(%rip),%rax        # 164bd <_ZN3MPIL11LOCK_SHAREDE+0x27d>
    b137:	48 89 c7             	mov    %rax,%rdi
    b13a:	b8 00 00 00 00       	mov    $0x0,%eax
    b13f:	e8 9c ec ff ff       	call   9de0 <printf@plt>
    b144:	eb 0f                	jmp    b155 <main+0x52c>
    else
        printf("FSKS before_gather=null\n");
    b146:	48 8d 05 89 b3 00 00 	lea    0xb389(%rip),%rax        # 164d6 <_ZN3MPIL11LOCK_SHAREDE+0x296>
    b14d:	48 89 c7             	mov    %rax,%rdi
    b150:	e8 8b f6 ff ff       	call   a7e0 <puts@plt>
    chunk_particles_t *localParticlesX=nullptr, *localParticlesY=nullptr;
    b155:	48 c7 85 a0 fe ff ff 	movq   $0x0,-0x160(%rbp)
    b15c:	00 00 00 00 
    b160:	48 c7 85 a8 fe ff ff 	movq   $0x0,-0x158(%rbp)
    b167:	00 00 00 00 
    scatter(&localParticlesX, &localParticlesY, globalParticles, &topology);
    b16b:	48 8b 95 98 fe ff ff 	mov    -0x168(%rbp),%rdx
    b172:	48 8d 8d c0 fe ff ff 	lea    -0x140(%rbp),%rcx
    b179:	48 8d b5 a8 fe ff ff 	lea    -0x158(%rbp),%rsi
    b180:	48 8d 85 a0 fe ff ff 	lea    -0x160(%rbp),%rax
    b187:	48 89 c7             	mov    %rax,%rdi
    b18a:	e8 f7 8f 00 00       	call   14186 <_Z7scatterPP17chunk_particles_tS1_S0_P10topology_t>
    store_particles(scatterFilenameX, localParticlesX);
    b18f:	48 8b 9d a0 fe ff ff 	mov    -0x160(%rbp),%rbx
    b196:	48 8d 95 30 ff ff ff 	lea    -0xd0(%rbp),%rdx
    b19d:	48 8d 45 b0          	lea    -0x50(%rbp),%rax
    b1a1:	48 89 d6             	mov    %rdx,%rsi
    b1a4:	48 89 c7             	mov    %rax,%rdi
    b1a7:	e8 34 ee ff ff       	call   9fe0 <_ZNSt7__cxx1112basic_stringIcSt11char_traitsIcESaIcEEC1ERKS4_@plt>
    b1ac:	48 8d 45 b0          	lea    -0x50(%rbp),%rax
    b1b0:	48 89 de             	mov    %rbx,%rsi
    b1b3:	48 89 c7             	mov    %rax,%rdi
    b1b6:	e8 c9 69 00 00       	call   11b84 <_Z15store_particlesNSt7__cxx1112basic_stringIcSt11char_traitsIcESaIcEEEP17chunk_particles_t>
    b1bb:	48 8d 45 b0          	lea    -0x50(%rbp),%rax
    b1bf:	48 89 c7             	mov    %rax,%rdi
    b1c2:	e8 59 ef ff ff       	call   a120 <_ZNSt7__cxx1112basic_stringIcSt11char_traitsIcESaIcEED1Ev@plt>
    store_particles(scatterFilenameY, localParticlesY);
    b1c7:	48 8b 9d a8 fe ff ff 	mov    -0x158(%rbp),%rbx
    b1ce:	48 8d 95 50 ff ff ff 	lea    -0xb0(%rbp),%rdx
    b1d5:	48 8d 45 b0          	lea    -0x50(%rbp),%rax
    b1d9:	48 89 d6             	mov    %rdx,%rsi
    b1dc:	48 89 c7             	mov    %rax,%rdi
    b1df:	e8 fc ed ff ff       	call   9fe0 <_ZNSt7__cxx1112basic_stringIcSt11char_traitsIcESaIcEEC1ERKS4_@plt>
    b1e4:	48 8d 45 b0          	lea    -0x50(%rbp),%rax
    b1e8:	48 89 de             	mov    %rbx,%rsi
    b1eb:	48 89 c7             	mov    %rax,%rdi
    b1ee:	e8 91 69 00 00       	call   11b84 <_Z15store_particlesNSt7__cxx1112basic_stringIcSt11char_traitsIcESaIcEEEP17chunk_particles_t>
    b1f3:	48 8d 45 b0          	lea    -0x50(%rbp),%rax
    b1f7:	48 89 c7             	mov    %rax,%rdi
    b1fa:	e8 21 ef ff ff       	call   a120 <_ZNSt7__cxx1112basic_stringIcSt11char_traitsIcESaIcEED1Ev@plt>
    if(globalParticles!=nullptr)
    b1ff:	48 8b 85 98 fe ff ff 	mov    -0x168(%rbp),%rax
    b206:	48 85 c0             	test   %rax,%rax
    b209:	74 23                	je     b22e <main+0x605>
        printf("before_gather==%lx", globalParticles->particles);
    b20b:	48 8b 85 98 fe ff ff 	mov    -0x168(%rbp),%rax
    b212:	48 8b 00             	mov    (%rax),%rax
    b215:	48 89 c6             	mov    %rax,%rsi
    b218:	48 8d 05 cf b2 00 00 	lea    0xb2cf(%rip),%rax        # 164ee <_ZN3MPIL11LOCK_SHAREDE+0x2ae>
    b21f:	48 89 c7             	mov    %rax,%rdi
    b222:	b8 00 00 00 00       	mov    $0x0,%eax
    b227:	e8 b4 eb ff ff       	call   9de0 <printf@plt>
    b22c:	eb 14                	jmp    b242 <main+0x619>
    else
        printf("before_gather=null");
    b22e:	48 8d 05 cc b2 00 00 	lea    0xb2cc(%rip),%rax        # 16501 <_ZN3MPIL11LOCK_SHAREDE+0x2c1>
    b235:	48 89 c7             	mov    %rax,%rdi
    b238:	b8 00 00 00 00       	mov    $0x0,%eax
    b23d:	e8 9e eb ff ff       	call   9de0 <printf@plt>
    gather(localParticlesX, localParticlesY, globalParticles, &topology);
    b242:	48 8b 95 98 fe ff ff 	mov    -0x168(%rbp),%rdx
    b249:	48 8b b5 a8 fe ff ff 	mov    -0x158(%rbp),%rsi
    b250:	48 8b 85 a0 fe ff ff 	mov    -0x160(%rbp),%rax
    b257:	48 8d 8d c0 fe ff ff 	lea    -0x140(%rbp),%rcx
    b25e:	48 89 c7             	mov    %rax,%rdi
    b261:	e8 f2 97 00 00       	call   14a58 <_Z6gatherP17chunk_particles_tS0_S0_P10topology_t>
    if(globalParticles!=nullptr)
    b266:	48 8b 85 98 fe ff ff 	mov    -0x168(%rbp),%rax
    b26d:	48 85 c0             	test   %rax,%rax
    b270:	74 23                	je     b295 <main+0x66c>
        printf(" after_gather==%lx\n", globalParticles->particles);
    b272:	48 8b 85 98 fe ff ff 	mov    -0x168(%rbp),%rax
    b279:	48 8b 00             	mov    (%rax),%rax
    b27c:	48 89 c6             	mov    %rax,%rsi
    b27f:	48 8d 05 8e b2 00 00 	lea    0xb28e(%rip),%rax        # 16514 <_ZN3MPIL11LOCK_SHAREDE+0x2d4>
    b286:	48 89 c7             	mov    %rax,%rdi
    b289:	b8 00 00 00 00       	mov    $0x0,%eax
    b28e:	e8 4d eb ff ff       	call   9de0 <printf@plt>
    b293:	eb 0f                	jmp    b2a4 <main+0x67b>
    else
        printf(" after_gather==nullptr\n");
    b295:	48 8d 05 8c b2 00 00 	lea    0xb28c(%rip),%rax        # 16528 <_ZN3MPIL11LOCK_SHAREDE+0x2e8>
    b29c:	48 89 c7             	mov    %rax,%rdi
    b29f:	e8 3c f5 ff ff       	call   a7e0 <puts@plt>
    if(rankX==0 && rankY==0){
    b2a4:	48 8b 85 b0 fe ff ff 	mov    -0x150(%rbp),%rax
    b2ab:	8b 00                	mov    (%rax),%eax
    b2ad:	85 c0                	test   %eax,%eax
    b2af:	0f 85 89 00 00 00    	jne    b33e <main+0x715>
    b2b5:	48 8b 85 b8 fe ff ff 	mov    -0x148(%rbp),%rax
    b2bc:	8b 00                	mov    (%rax),%eax
    b2be:	85 c0                	test   %eax,%eax
    b2c0:	75 7c                	jne    b33e <main+0x715>
        store_particles(gatherFilename, globalParticles);
    b2c2:	48 8b 9d 98 fe ff ff 	mov    -0x168(%rbp),%rbx
    b2c9:	48 8d 95 70 ff ff ff 	lea    -0x90(%rbp),%rdx
    b2d0:	48 8d 45 b0          	lea    -0x50(%rbp),%rax
    b2d4:	48 89 d6             	mov    %rdx,%rsi
    b2d7:	48 89 c7             	mov    %rax,%rdi
    b2da:	e8 01 ed ff ff       	call   9fe0 <_ZNSt7__cxx1112basic_stringIcSt11char_traitsIcESaIcEEC1ERKS4_@plt>
    b2df:	48 8d 45 b0          	lea    -0x50(%rbp),%rax
    b2e3:	48 89 de             	mov    %rbx,%rsi
    b2e6:	48 89 c7             	mov    %rax,%rdi
    b2e9:	e8 96 68 00 00       	call   11b84 <_Z15store_particlesNSt7__cxx1112basic_stringIcSt11char_traitsIcESaIcEEEP17chunk_particles_t>
    b2ee:	48 8d 45 b0          	lea    -0x50(%rbp),%rax
    b2f2:	48 89 c7             	mov    %rax,%rdi
    b2f5:	e8 26 ee ff ff       	call   a120 <_ZNSt7__cxx1112basic_stringIcSt11char_traitsIcESaIcEED1Ev@plt>
        shrink(globalParticles);
    b2fa:	48 8b 85 98 fe ff ff 	mov    -0x168(%rbp),%rax
    b301:	48 89 c7             	mov    %rax,%rdi
    b304:	e8 51 7f 00 00       	call   1325a <_Z6shrinkP17chunk_particles_t>
        store_particles(shrinkFilename, globalParticles);
    b309:	48 8b 9d 98 fe ff ff 	mov    -0x168(%rbp),%rbx
    b310:	48 8d 55 90          	lea    -0x70(%rbp),%rdx
    b314:	48 8d 45 b0          	lea    -0x50(%rbp),%rax
    b318:	48 89 d6             	mov    %rdx,%rsi
    b31b:	48 89 c7             	mov    %rax,%rdi
    b31e:	e8 bd ec ff ff       	call   9fe0 <_ZNSt7__cxx1112basic_stringIcSt11char_traitsIcESaIcEEC1ERKS4_@plt>
    b323:	48 8d 45 b0          	lea    -0x50(%rbp),%rax
    b327:	48 89 de             	mov    %rbx,%rsi
    b32a:	48 89 c7             	mov    %rax,%rdi
    b32d:	e8 52 68 00 00       	call   11b84 <_Z15store_particlesNSt7__cxx1112basic_stringIcSt11char_traitsIcESaIcEEEP17chunk_particles_t>
    b332:	48 8d 45 b0          	lea    -0x50(%rbp),%rax
    b336:	48 89 c7             	mov    %rax,%rdi
    b339:	e8 e2 ed ff ff       	call   a120 <_ZNSt7__cxx1112basic_stringIcSt11char_traitsIcESaIcEED1Ev@plt>
    }

    MPI_Finalize();
    b33e:	e8 2d ef ff ff       	call   a270 <MPI_Finalize@plt>
    return 0;
    b343:	bb 00 00 00 00       	mov    $0x0,%ebx
}
    b348:	48 8d 45 90          	lea    -0x70(%rbp),%rax
    b34c:	48 89 c7             	mov    %rax,%rdi
    b34f:	e8 cc ed ff ff       	call   a120 <_ZNSt7__cxx1112basic_stringIcSt11char_traitsIcESaIcEED1Ev@plt>
    b354:	48 8d 85 70 ff ff ff 	lea    -0x90(%rbp),%rax
    b35b:	48 89 c7             	mov    %rax,%rdi
    b35e:	e8 bd ed ff ff       	call   a120 <_ZNSt7__cxx1112basic_stringIcSt11char_traitsIcESaIcEED1Ev@plt>
    b363:	48 8d 85 50 ff ff ff 	lea    -0xb0(%rbp),%rax
    b36a:	48 89 c7             	mov    %rax,%rdi
    b36d:	e8 ae ed ff ff       	call   a120 <_ZNSt7__cxx1112basic_stringIcSt11char_traitsIcESaIcEED1Ev@plt>
    b372:	48 8d 85 30 ff ff ff 	lea    -0xd0(%rbp),%rax
    b379:	48 89 c7             	mov    %rax,%rdi
    b37c:	e8 9f ed ff ff       	call   a120 <_ZNSt7__cxx1112basic_stringIcSt11char_traitsIcESaIcEED1Ev@plt>
    b381:	48 8d 85 10 ff ff ff 	lea    -0xf0(%rbp),%rax
    b388:	48 89 c7             	mov    %rax,%rdi
    b38b:	e8 90 ed ff ff       	call   a120 <_ZNSt7__cxx1112basic_stringIcSt11char_traitsIcESaIcEED1Ev@plt>
    b390:	48 8d 85 f0 fe ff ff 	lea    -0x110(%rbp),%rax
    b397:	48 89 c7             	mov    %rax,%rdi
    b39a:	e8 81 ed ff ff       	call   a120 <_ZNSt7__cxx1112basic_stringIcSt11char_traitsIcESaIcEED1Ev@plt>
    b39f:	89 d8                	mov    %ebx,%eax
    b3a1:	48 8b 55 d8          	mov    -0x28(%rbp),%rdx
    b3a5:	64 48 2b 14 25 28 00 	sub    %fs:0x28,%rdx
    b3ac:	00 00 
    b3ae:	0f 84 ff 01 00 00    	je     b5b3 <main+0x98a>
    b3b4:	e9 f5 01 00 00       	jmp    b5ae <main+0x985>
    b3b9:	f3 0f 1e fa          	endbr64 
    b3bd:	48 89 c3             	mov    %rax,%rbx
    b3c0:	48 8d 85 a8 fe ff ff 	lea    -0x158(%rbp),%rax
    b3c7:	48 89 c7             	mov    %rax,%rdi
    b3ca:	e8 a1 f0 ff ff       	call   a470 <_ZNSaIcED1Ev@plt>
    b3cf:	48 89 d8             	mov    %rbx,%rax
    b3d2:	48 89 c7             	mov    %rax,%rdi
    b3d5:	e8 d6 f5 ff ff       	call   a9b0 <_Unwind_Resume@plt>
    b3da:	f3 0f 1e fa          	endbr64 
    b3de:	48 89 c3             	mov    %rax,%rbx
    b3e1:	48 8d 85 a8 fe ff ff 	lea    -0x158(%rbp),%rax
    b3e8:	48 89 c7             	mov    %rax,%rdi
    b3eb:	e8 80 f0 ff ff       	call   a470 <_ZNSaIcED1Ev@plt>
    b3f0:	e9 9f 01 00 00       	jmp    b594 <main+0x96b>
    b3f5:	f3 0f 1e fa          	endbr64 
    b3f9:	48 89 c3             	mov    %rax,%rbx
    b3fc:	48 8d 45 90          	lea    -0x70(%rbp),%rax
    b400:	48 89 c7             	mov    %rax,%rdi
    b403:	e8 18 ed ff ff       	call   a120 <_ZNSt7__cxx1112basic_stringIcSt11char_traitsIcESaIcEED1Ev@plt>
    b408:	eb 07                	jmp    b411 <main+0x7e8>
    b40a:	f3 0f 1e fa          	endbr64 
    b40e:	48 89 c3             	mov    %rax,%rbx
    b411:	48 8d 85 70 ff ff ff 	lea    -0x90(%rbp),%rax
    b418:	48 89 c7             	mov    %rax,%rdi
    b41b:	e8 00 ed ff ff       	call   a120 <_ZNSt7__cxx1112basic_stringIcSt11char_traitsIcESaIcEED1Ev@plt>
    b420:	eb 07                	jmp    b429 <main+0x800>
    b422:	f3 0f 1e fa          	endbr64 
    b426:	48 89 c3             	mov    %rax,%rbx
    b429:	48 8d 45 b0          	lea    -0x50(%rbp),%rax
    b42d:	48 89 c7             	mov    %rax,%rdi
    b430:	e8 eb ec ff ff       	call   a120 <_ZNSt7__cxx1112basic_stringIcSt11char_traitsIcESaIcEED1Ev@plt>
    b435:	e9 4b 01 00 00       	jmp    b585 <main+0x95c>
    b43a:	f3 0f 1e fa          	endbr64 
    b43e:	48 89 c3             	mov    %rax,%rbx
    b441:	48 8d 45 90          	lea    -0x70(%rbp),%rax
    b445:	48 89 c7             	mov    %rax,%rdi
    b448:	e8 d3 ec ff ff       	call   a120 <_ZNSt7__cxx1112basic_stringIcSt11char_traitsIcESaIcEED1Ev@plt>
    b44d:	eb 07                	jmp    b456 <main+0x82d>
    b44f:	f3 0f 1e fa          	endbr64 
    b453:	48 89 c3             	mov    %rax,%rbx
    b456:	48 8d 85 70 ff ff ff 	lea    -0x90(%rbp),%rax
    b45d:	48 89 c7             	mov    %rax,%rdi
    b460:	e8 bb ec ff ff       	call   a120 <_ZNSt7__cxx1112basic_stringIcSt11char_traitsIcESaIcEED1Ev@plt>
    b465:	eb 07                	jmp    b46e <main+0x845>
    b467:	f3 0f 1e fa          	endbr64 
    b46b:	48 89 c3             	mov    %rax,%rbx
    b46e:	48 8d 45 b0          	lea    -0x50(%rbp),%rax
    b472:	48 89 c7             	mov    %rax,%rdi
    b475:	e8 a6 ec ff ff       	call   a120 <_ZNSt7__cxx1112basic_stringIcSt11char_traitsIcESaIcEED1Ev@plt>
    b47a:	e9 ee 00 00 00       	jmp    b56d <main+0x944>
    b47f:	f3 0f 1e fa          	endbr64 
    b483:	48 89 c3             	mov    %rax,%rbx
    b486:	48 8d 85 a8 fe ff ff 	lea    -0x158(%rbp),%rax
    b48d:	48 89 c7             	mov    %rax,%rdi
    b490:	e8 db ef ff ff       	call   a470 <_ZNSaIcED1Ev@plt>
    b495:	e9 bb 00 00 00       	jmp    b555 <main+0x92c>
    b49a:	f3 0f 1e fa          	endbr64 
    b49e:	48 89 c3             	mov    %rax,%rbx
    b4a1:	48 8d 85 a8 fe ff ff 	lea    -0x158(%rbp),%rax
    b4a8:	48 89 c7             	mov    %rax,%rdi
    b4ab:	e8 c0 ef ff ff       	call   a470 <_ZNSaIcED1Ev@plt>
    b4b0:	e9 91 00 00 00       	jmp    b546 <main+0x91d>
    b4b5:	f3 0f 1e fa          	endbr64 
        load_particles(inputFilename, &globalParticles);
    b4b9:	48 89 c3             	mov    %rax,%rbx
    b4bc:	48 8d 45 b0          	lea    -0x50(%rbp),%rax
    b4c0:	48 89 c7             	mov    %rax,%rdi
    b4c3:	e8 58 ec ff ff       	call   a120 <_ZNSt7__cxx1112basic_stringIcSt11char_traitsIcESaIcEED1Ev@plt>
    b4c8:	eb 70                	jmp    b53a <main+0x911>
    b4ca:	f3 0f 1e fa          	endbr64 
        store_particles(paddingFilename, globalParticles);
    b4ce:	48 89 c3             	mov    %rax,%rbx
    b4d1:	48 8d 45 b0          	lea    -0x50(%rbp),%rax
    b4d5:	48 89 c7             	mov    %rax,%rdi
    b4d8:	e8 43 ec ff ff       	call   a120 <_ZNSt7__cxx1112basic_stringIcSt11char_traitsIcESaIcEED1Ev@plt>
    b4dd:	eb 5b                	jmp    b53a <main+0x911>
    b4df:	f3 0f 1e fa          	endbr64 
    store_particles(scatterFilenameX, localParticlesX);
    b4e3:	48 89 c3             	mov    %rax,%rbx
    b4e6:	48 8d 45 b0          	lea    -0x50(%rbp),%rax
    b4ea:	48 89 c7             	mov    %rax,%rdi
    b4ed:	e8 2e ec ff ff       	call   a120 <_ZNSt7__cxx1112basic_stringIcSt11char_traitsIcESaIcEED1Ev@plt>
    b4f2:	eb 46                	jmp    b53a <main+0x911>
    b4f4:	f3 0f 1e fa          	endbr64 
    store_particles(scatterFilenameY, localParticlesY);
    b4f8:	48 89 c3             	mov    %rax,%rbx
    b4fb:	48 8d 45 b0          	lea    -0x50(%rbp),%rax
    b4ff:	48 89 c7             	mov    %rax,%rdi
    b502:	e8 19 ec ff ff       	call   a120 <_ZNSt7__cxx1112basic_stringIcSt11char_traitsIcESaIcEED1Ev@plt>
    b507:	eb 31                	jmp    b53a <main+0x911>
    b509:	f3 0f 1e fa          	endbr64 
        store_particles(gatherFilename, globalParticles);
    b50d:	48 89 c3             	mov    %rax,%rbx
    b510:	48 8d 45 b0          	lea    -0x50(%rbp),%rax
    b514:	48 89 c7             	mov    %rax,%rdi
    b517:	e8 04 ec ff ff       	call   a120 <_ZNSt7__cxx1112basic_stringIcSt11char_traitsIcESaIcEED1Ev@plt>
    b51c:	eb 1c                	jmp    b53a <main+0x911>
    b51e:	f3 0f 1e fa          	endbr64 
        store_particles(shrinkFilename, globalParticles);
    b522:	48 89 c3             	mov    %rax,%rbx
    b525:	48 8d 45 b0          	lea    -0x50(%rbp),%rax
    b529:	48 89 c7             	mov    %rax,%rdi
    b52c:	e8 ef eb ff ff       	call   a120 <_ZNSt7__cxx1112basic_stringIcSt11char_traitsIcESaIcEED1Ev@plt>
    b531:	eb 07                	jmp    b53a <main+0x911>
    b533:	f3 0f 1e fa          	endbr64 
}
    b537:	48 89 c3             	mov    %rax,%rbx
    b53a:	48 8d 45 90          	lea    -0x70(%rbp),%rax
    b53e:	48 89 c7             	mov    %rax,%rdi
    b541:	e8 da eb ff ff       	call   a120 <_ZNSt7__cxx1112basic_stringIcSt11char_traitsIcESaIcEED1Ev@plt>
    b546:	48 8d 85 70 ff ff ff 	lea    -0x90(%rbp),%rax
    b54d:	48 89 c7             	mov    %rax,%rdi
    b550:	e8 cb eb ff ff       	call   a120 <_ZNSt7__cxx1112basic_stringIcSt11char_traitsIcESaIcEED1Ev@plt>
    b555:	48 8d 85 50 ff ff ff 	lea    -0xb0(%rbp),%rax
    b55c:	48 89 c7             	mov    %rax,%rdi
    b55f:	e8 bc eb ff ff       	call   a120 <_ZNSt7__cxx1112basic_stringIcSt11char_traitsIcESaIcEED1Ev@plt>
    b564:	eb 07                	jmp    b56d <main+0x944>
    b566:	f3 0f 1e fa          	endbr64 
    b56a:	48 89 c3             	mov    %rax,%rbx
    b56d:	48 8d 85 30 ff ff ff 	lea    -0xd0(%rbp),%rax
    b574:	48 89 c7             	mov    %rax,%rdi
    b577:	e8 a4 eb ff ff       	call   a120 <_ZNSt7__cxx1112basic_stringIcSt11char_traitsIcESaIcEED1Ev@plt>
    b57c:	eb 07                	jmp    b585 <main+0x95c>
    b57e:	f3 0f 1e fa          	endbr64 
    b582:	48 89 c3             	mov    %rax,%rbx
    b585:	48 8d 85 10 ff ff ff 	lea    -0xf0(%rbp),%rax
    b58c:	48 89 c7             	mov    %rax,%rdi
    b58f:	e8 8c eb ff ff       	call   a120 <_ZNSt7__cxx1112basic_stringIcSt11char_traitsIcESaIcEED1Ev@plt>
    b594:	48 8d 85 f0 fe ff ff 	lea    -0x110(%rbp),%rax
    b59b:	48 89 c7             	mov    %rax,%rdi
    b59e:	e8 7d eb ff ff       	call   a120 <_ZNSt7__cxx1112basic_stringIcSt11char_traitsIcESaIcEED1Ev@plt>
    b5a3:	48 89 d8             	mov    %rbx,%rax
    b5a6:	48 89 c7             	mov    %rax,%rdi
    b5a9:	e8 02 f4 ff ff       	call   a9b0 <_Unwind_Resume@plt>
    b5ae:	e8 2d ef ff ff       	call   a4e0 <__stack_chk_fail@plt>
    b5b3:	48 8d 65 e8          	lea    -0x18(%rbp),%rsp
    b5b7:	5b                   	pop    %rbx
    b5b8:	41 5c                	pop    %r12
    b5ba:	41 5d                	pop    %r13
    b5bc:	5d                   	pop    %rbp
    b5bd:	c3                   	ret    

000000000000b5be <_Z41__static_initialization_and_destruction_0ii>:
    b5be:	f3 0f 1e fa          	endbr64 
    b5c2:	55                   	push   %rbp
    b5c3:	48 89 e5             	mov    %rsp,%rbp
    b5c6:	48 83 ec 10          	sub    $0x10,%rsp
    b5ca:	89 7d fc             	mov    %edi,-0x4(%rbp)
    b5cd:	89 75 f8             	mov    %esi,-0x8(%rbp)
    b5d0:	83 7d fc 01          	cmpl   $0x1,-0x4(%rbp)
    b5d4:	75 3b                	jne    b611 <_Z41__static_initialization_and_destruction_0ii+0x53>
    b5d6:	81 7d f8 ff ff 00 00 	cmpl   $0xffff,-0x8(%rbp)
    b5dd:	75 32                	jne    b611 <_Z41__static_initialization_and_destruction_0ii+0x53>
  extern wostream wclog;	/// Linked to standard error (buffered)
#endif
  ///@}

  // For construction of filebuffers for cout, cin, cerr, clog et. al.
  static ios_base::Init __ioinit;
    b5df:	48 8d 05 6b 2d 01 00 	lea    0x12d6b(%rip),%rax        # 1e351 <_ZStL8__ioinit>
    b5e6:	48 89 c7             	mov    %rax,%rdi
    b5e9:	e8 e2 f1 ff ff       	call   a7d0 <_ZNSt8ios_base4InitC1Ev@plt>
    b5ee:	48 8d 05 13 1a 01 00 	lea    0x11a13(%rip),%rax        # 1d008 <__dso_handle>
    b5f5:	48 89 c2             	mov    %rax,%rdx
    b5f8:	48 8d 05 52 2d 01 00 	lea    0x12d52(%rip),%rax        # 1e351 <_ZStL8__ioinit>
    b5ff:	48 89 c6             	mov    %rax,%rsi
    b602:	48 8b 05 ef 19 01 00 	mov    0x119ef(%rip),%rax        # 1cff8 <_ZNSt8ios_base4InitD1Ev@GLIBCXX_3.4>
    b609:	48 89 c7             	mov    %rax,%rdi
    b60c:	e8 1f ed ff ff       	call   a330 <__cxa_atexit@plt>
    b611:	90                   	nop
    b612:	c9                   	leave  
    b613:	c3                   	ret    

000000000000b614 <_GLOBAL__sub_I_main>:
    b614:	f3 0f 1e fa          	endbr64 
    b618:	55                   	push   %rbp
    b619:	48 89 e5             	mov    %rsp,%rbp
    b61c:	be ff ff 00 00       	mov    $0xffff,%esi
    b621:	bf 01 00 00 00       	mov    $0x1,%edi
    b626:	e8 93 ff ff ff       	call   b5be <_Z41__static_initialization_and_destruction_0ii>
    b62b:	5d                   	pop    %rbp
    b62c:	c3                   	ret    

000000000000b62d <_ZNSt7__cxx119to_stringEi>:

  // DR 1261. Insufficent overloads for to_string / to_wstring

  inline string
  to_string(int __val)
  {
    b62d:	f3 0f 1e fa          	endbr64 
    b631:	55                   	push   %rbp
    b632:	48 89 e5             	mov    %rsp,%rbp
    b635:	53                   	push   %rbx
    b636:	48 83 ec 38          	sub    $0x38,%rsp
    b63a:	48 89 7d c8          	mov    %rdi,-0x38(%rbp)
    b63e:	89 75 c4             	mov    %esi,-0x3c(%rbp)
    b641:	64 48 8b 04 25 28 00 	mov    %fs:0x28,%rax
    b648:	00 00 
    b64a:	48 89 45 e8          	mov    %rax,-0x18(%rbp)
    b64e:	31 c0                	xor    %eax,%eax
    const bool __neg = __val < 0;
    b650:	8b 45 c4             	mov    -0x3c(%rbp),%eax
    b653:	c1 e8 1f             	shr    $0x1f,%eax
    b656:	88 45 df             	mov    %al,-0x21(%rbp)
    const unsigned __uval = __neg ? (unsigned)~__val + 1u : __val;
    b659:	80 7d df 00          	cmpb   $0x0,-0x21(%rbp)
    b65d:	74 07                	je     b666 <_ZNSt7__cxx119to_stringEi+0x39>
    b65f:	8b 45 c4             	mov    -0x3c(%rbp),%eax
    b662:	f7 d8                	neg    %eax
    b664:	eb 03                	jmp    b669 <_ZNSt7__cxx119to_stringEi+0x3c>
    b666:	8b 45 c4             	mov    -0x3c(%rbp),%eax
    b669:	89 45 e0             	mov    %eax,-0x20(%rbp)
    const auto __len = __detail::__to_chars_len(__uval);
    b66c:	8b 45 e0             	mov    -0x20(%rbp),%eax
    b66f:	be 0a 00 00 00       	mov    $0xa,%esi
    b674:	89 c7                	mov    %eax,%edi
    b676:	e8 c1 00 00 00       	call   b73c <_ZNSt8__detail14__to_chars_lenIjEEjT_i>
    b67b:	89 45 e4             	mov    %eax,-0x1c(%rbp)
    string __str(__neg + __len, '-');
    b67e:	48 8d 45 de          	lea    -0x22(%rbp),%rax
    b682:	48 89 c7             	mov    %rax,%rdi
    b685:	e8 36 f3 ff ff       	call   a9c0 <_ZNSaIcEC1Ev@plt>
    b68a:	0f b6 55 df          	movzbl -0x21(%rbp),%edx
    b68e:	8b 45 e4             	mov    -0x1c(%rbp),%eax
    b691:	01 d0                	add    %edx,%eax
    b693:	89 c6                	mov    %eax,%esi
    b695:	48 8d 55 de          	lea    -0x22(%rbp),%rdx
    b699:	48 8b 45 c8          	mov    -0x38(%rbp),%rax
    b69d:	48 89 d1             	mov    %rdx,%rcx
    b6a0:	ba 2d 00 00 00       	mov    $0x2d,%edx
    b6a5:	48 89 c7             	mov    %rax,%rdi
    b6a8:	e8 b3 ea ff ff       	call   a160 <_ZNSt7__cxx1112basic_stringIcSt11char_traitsIcESaIcEEC1EmcRKS3_@plt>
    b6ad:	48 8d 45 de          	lea    -0x22(%rbp),%rax
    b6b1:	48 89 c7             	mov    %rax,%rdi
    b6b4:	e8 b7 ed ff ff       	call   a470 <_ZNSaIcED1Ev@plt>
    __detail::__to_chars_10_impl(&__str[__neg], __len, __uval);
    b6b9:	0f b6 55 df          	movzbl -0x21(%rbp),%edx
    b6bd:	48 8b 45 c8          	mov    -0x38(%rbp),%rax
    b6c1:	48 89 d6             	mov    %rdx,%rsi
    b6c4:	48 89 c7             	mov    %rax,%rdi
    b6c7:	e8 64 f4 ff ff       	call   ab30 <_ZNSt7__cxx1112basic_stringIcSt11char_traitsIcESaIcEEixEm@plt>
    b6cc:	48 89 c1             	mov    %rax,%rcx
    b6cf:	8b 55 e0             	mov    -0x20(%rbp),%edx
    b6d2:	8b 45 e4             	mov    -0x1c(%rbp),%eax
    b6d5:	89 c6                	mov    %eax,%esi
    b6d7:	48 89 cf             	mov    %rcx,%rdi
    b6da:	e8 1d 4f 00 00       	call   105fc <_ZNSt8__detail18__to_chars_10_implIjEEvPcjT_>
    return __str;
    b6df:	90                   	nop
  }
    b6e0:	48 8b 45 e8          	mov    -0x18(%rbp),%rax
    b6e4:	64 48 2b 04 25 28 00 	sub    %fs:0x28,%rax
    b6eb:	00 00 
    b6ed:	74 43                	je     b732 <_ZNSt7__cxx119to_stringEi+0x105>
    b6ef:	eb 3c                	jmp    b72d <_ZNSt7__cxx119to_stringEi+0x100>
    b6f1:	f3 0f 1e fa          	endbr64 
    b6f5:	48 89 c3             	mov    %rax,%rbx
    b6f8:	48 8d 45 de          	lea    -0x22(%rbp),%rax
    b6fc:	48 89 c7             	mov    %rax,%rdi
    b6ff:	e8 6c ed ff ff       	call   a470 <_ZNSaIcED1Ev@plt>
    b704:	48 89 d8             	mov    %rbx,%rax
    b707:	48 89 c7             	mov    %rax,%rdi
    b70a:	e8 a1 f2 ff ff       	call   a9b0 <_Unwind_Resume@plt>
    b70f:	f3 0f 1e fa          	endbr64 
    b713:	48 89 c3             	mov    %rax,%rbx
    b716:	48 8b 45 c8          	mov    -0x38(%rbp),%rax
    b71a:	48 89 c7             	mov    %rax,%rdi
    b71d:	e8 fe e9 ff ff       	call   a120 <_ZNSt7__cxx1112basic_stringIcSt11char_traitsIcESaIcEED1Ev@plt>
    b722:	48 89 d8             	mov    %rbx,%rax
    b725:	48 89 c7             	mov    %rax,%rdi
    b728:	e8 83 f2 ff ff       	call   a9b0 <_Unwind_Resume@plt>
    b72d:	e8 ae ed ff ff       	call   a4e0 <__stack_chk_fail@plt>
    b732:	48 8b 45 c8          	mov    -0x38(%rbp),%rax
    b736:	48 8b 5d f8          	mov    -0x8(%rbp),%rbx
    b73a:	c9                   	leave  
    b73b:	c3                   	ret    

000000000000b73c <_ZNSt8__detail14__to_chars_lenIjEEjT_i>:
namespace __detail
{
  // Generic implementation for arbitrary bases.
  template<typename _Tp>
    _GLIBCXX14_CONSTEXPR unsigned
    __to_chars_len(_Tp __value, int __base = 10) noexcept
    b73c:	f3 0f 1e fa          	endbr64 
    b740:	55                   	push   %rbp
    b741:	48 89 e5             	mov    %rsp,%rbp
    b744:	89 7d dc             	mov    %edi,-0x24(%rbp)
    b747:	89 75 d8             	mov    %esi,-0x28(%rbp)
    {
      static_assert(is_integral<_Tp>::value, "implementation bug");
      static_assert(is_unsigned<_Tp>::value, "implementation bug");

      unsigned __n = 1;
    b74a:	c7 45 ec 01 00 00 00 	movl   $0x1,-0x14(%rbp)
      const unsigned __b2 = __base  * __base;
    b751:	8b 45 d8             	mov    -0x28(%rbp),%eax
    b754:	0f af c0             	imul   %eax,%eax
    b757:	89 45 f0             	mov    %eax,-0x10(%rbp)
      const unsigned __b3 = __b2 * __base;
    b75a:	8b 45 d8             	mov    -0x28(%rbp),%eax
    b75d:	8b 55 f0             	mov    -0x10(%rbp),%edx
    b760:	0f af c2             	imul   %edx,%eax
    b763:	89 45 f4             	mov    %eax,-0xc(%rbp)
      const unsigned long __b4 = __b3 * __base;
    b766:	8b 45 d8             	mov    -0x28(%rbp),%eax
    b769:	0f af 45 f4          	imul   -0xc(%rbp),%eax
    b76d:	89 c0                	mov    %eax,%eax
    b76f:	48 89 45 f8          	mov    %rax,-0x8(%rbp)
      for (;;)
	{
	  if (__value < (unsigned)__base) return __n;
    b773:	8b 45 d8             	mov    -0x28(%rbp),%eax
    b776:	39 45 dc             	cmp    %eax,-0x24(%rbp)
    b779:	73 05                	jae    b780 <_ZNSt8__detail14__to_chars_lenIjEEjT_i+0x44>
    b77b:	8b 45 ec             	mov    -0x14(%rbp),%eax
    b77e:	eb 46                	jmp    b7c6 <_ZNSt8__detail14__to_chars_lenIjEEjT_i+0x8a>
	  if (__value < __b2) return __n + 1;
    b780:	8b 45 dc             	mov    -0x24(%rbp),%eax
    b783:	3b 45 f0             	cmp    -0x10(%rbp),%eax
    b786:	73 08                	jae    b790 <_ZNSt8__detail14__to_chars_lenIjEEjT_i+0x54>
    b788:	8b 45 ec             	mov    -0x14(%rbp),%eax
    b78b:	83 c0 01             	add    $0x1,%eax
    b78e:	eb 36                	jmp    b7c6 <_ZNSt8__detail14__to_chars_lenIjEEjT_i+0x8a>
	  if (__value < __b3) return __n + 2;
    b790:	8b 45 dc             	mov    -0x24(%rbp),%eax
    b793:	3b 45 f4             	cmp    -0xc(%rbp),%eax
    b796:	73 08                	jae    b7a0 <_ZNSt8__detail14__to_chars_lenIjEEjT_i+0x64>
    b798:	8b 45 ec             	mov    -0x14(%rbp),%eax
    b79b:	83 c0 02             	add    $0x2,%eax
    b79e:	eb 26                	jmp    b7c6 <_ZNSt8__detail14__to_chars_lenIjEEjT_i+0x8a>
	  if (__value < __b4) return __n + 3;
    b7a0:	8b 45 dc             	mov    -0x24(%rbp),%eax
    b7a3:	48 39 45 f8          	cmp    %rax,-0x8(%rbp)
    b7a7:	76 08                	jbe    b7b1 <_ZNSt8__detail14__to_chars_lenIjEEjT_i+0x75>
    b7a9:	8b 45 ec             	mov    -0x14(%rbp),%eax
    b7ac:	83 c0 03             	add    $0x3,%eax
    b7af:	eb 15                	jmp    b7c6 <_ZNSt8__detail14__to_chars_lenIjEEjT_i+0x8a>
	  __value /= __b4;
    b7b1:	8b 45 dc             	mov    -0x24(%rbp),%eax
    b7b4:	ba 00 00 00 00       	mov    $0x0,%edx
    b7b9:	48 f7 75 f8          	divq   -0x8(%rbp)
    b7bd:	89 45 dc             	mov    %eax,-0x24(%rbp)
	  __n += 4;
    b7c0:	83 45 ec 04          	addl   $0x4,-0x14(%rbp)
	  if (__value < (unsigned)__base) return __n;
    b7c4:	eb ad                	jmp    b773 <_ZNSt8__detail14__to_chars_lenIjEEjT_i+0x37>
	}
    }
    b7c6:	5d                   	pop    %rbp
    b7c7:	c3                   	ret    

000000000000b7c8 <_ZNKSt17integral_constantIbLb1EEcvbEv>:
    struct integral_constant
    {
      static constexpr _Tp                  value = __v;
      typedef _Tp                           value_type;
      typedef integral_constant<_Tp, __v>   type;
      constexpr operator value_type() const noexcept { return value; }
    b7c8:	f3 0f 1e fa          	endbr64 
    b7cc:	55                   	push   %rbp
    b7cd:	48 89 e5             	mov    %rsp,%rbp
    b7d0:	48 89 7d f8          	mov    %rdi,-0x8(%rbp)
    b7d4:	b8 01 00 00 00       	mov    $0x1,%eax
    b7d9:	5d                   	pop    %rbp
    b7da:	c3                   	ret    
    b7db:	90                   	nop

000000000000b7dc <_ZN3MPI8DatatypeD1Ev>:

#else

  // construction / destruction
  inline Datatype() : mpi_datatype(MPI_DATATYPE_NULL) { }
  inline virtual ~Datatype() {}
    b7dc:	f3 0f 1e fa          	endbr64 
    b7e0:	55                   	push   %rbp
    b7e1:	48 89 e5             	mov    %rsp,%rbp
    b7e4:	48 89 7d f8          	mov    %rdi,-0x8(%rbp)
    b7e8:	48 8d 15 81 0c 01 00 	lea    0x10c81(%rip),%rdx        # 1c470 <_ZTVN3MPI8DatatypeE+0x10>
    b7ef:	48 8b 45 f8          	mov    -0x8(%rbp),%rax
    b7f3:	48 89 10             	mov    %rdx,(%rax)
    b7f6:	90                   	nop
    b7f7:	5d                   	pop    %rbp
    b7f8:	c3                   	ret    
    b7f9:	90                   	nop

000000000000b7fa <_ZN3MPI8DatatypeD0Ev>:
    b7fa:	f3 0f 1e fa          	endbr64 
    b7fe:	55                   	push   %rbp
    b7ff:	48 89 e5             	mov    %rsp,%rbp
    b802:	48 83 ec 10          	sub    $0x10,%rsp
    b806:	48 89 7d f8          	mov    %rdi,-0x8(%rbp)
    b80a:	48 8b 45 f8          	mov    -0x8(%rbp),%rax
    b80e:	48 89 c7             	mov    %rax,%rdi
    b811:	e8 c6 ff ff ff       	call   b7dc <_ZN3MPI8DatatypeD1Ev>
    b816:	48 8b 45 f8          	mov    -0x8(%rbp),%rax
    b81a:	be 10 00 00 00       	mov    $0x10,%esi
    b81f:	48 89 c7             	mov    %rax,%rdi
    b822:	e8 d9 eb ff ff       	call   a400 <_ZdlPvm@plt>
    b827:	c9                   	leave  
    b828:	c3                   	ret    
    b829:	90                   	nop

000000000000b82a <_ZN3MPI8DatatypeC1EP15ompi_datatype_t>:
  // inter-language operability
  inline Datatype(MPI_Datatype i) : mpi_datatype(i) { }
    b82a:	f3 0f 1e fa          	endbr64 
    b82e:	55                   	push   %rbp
    b82f:	48 89 e5             	mov    %rsp,%rbp
    b832:	48 89 7d f8          	mov    %rdi,-0x8(%rbp)
    b836:	48 89 75 f0          	mov    %rsi,-0x10(%rbp)
    b83a:	48 8d 15 2f 0c 01 00 	lea    0x10c2f(%rip),%rdx        # 1c470 <_ZTVN3MPI8DatatypeE+0x10>
    b841:	48 8b 45 f8          	mov    -0x8(%rbp),%rax
    b845:	48 89 10             	mov    %rdx,(%rax)
    b848:	48 8b 45 f8          	mov    -0x8(%rbp),%rax
    b84c:	48 8b 55 f0          	mov    -0x10(%rbp),%rdx
    b850:	48 89 50 08          	mov    %rdx,0x8(%rax)
    b854:	90                   	nop
    b855:	5d                   	pop    %rbp
    b856:	c3                   	ret    
    b857:	90                   	nop

000000000000b858 <_ZN3MPI8DatatypeaSERKP15ompi_datatype_t>:

  inline bool operator!= (const Datatype &a) const
    { return (bool) !(*this == a); }

  // inter-language operability
  inline Datatype& operator= (const MPI_Datatype &i)
    b858:	f3 0f 1e fa          	endbr64 
    b85c:	55                   	push   %rbp
    b85d:	48 89 e5             	mov    %rsp,%rbp
    b860:	48 89 7d f8          	mov    %rdi,-0x8(%rbp)
    b864:	48 89 75 f0          	mov    %rsi,-0x10(%rbp)
    { mpi_datatype = i; return *this; }
    b868:	48 8b 45 f0          	mov    -0x10(%rbp),%rax
    b86c:	48 8b 10             	mov    (%rax),%rdx
    b86f:	48 8b 45 f8          	mov    -0x8(%rbp),%rax
    b873:	48 89 50 08          	mov    %rdx,0x8(%rax)
    b877:	48 8b 45 f8          	mov    -0x8(%rbp),%rax
    b87b:	5d                   	pop    %rbp
    b87c:	c3                   	ret    
    b87d:	90                   	nop

000000000000b87e <_ZNK3MPI8DatatypecvP15ompi_datatype_tEv>:

  inline operator MPI_Datatype () const { return mpi_datatype; }
    b87e:	f3 0f 1e fa          	endbr64 
    b882:	55                   	push   %rbp
    b883:	48 89 e5             	mov    %rsp,%rbp
    b886:	48 89 7d f8          	mov    %rdi,-0x8(%rbp)
    b88a:	48 8b 45 f8          	mov    -0x8(%rbp),%rax
    b88e:	48 8b 40 08          	mov    0x8(%rax),%rax
    b892:	5d                   	pop    %rbp
    b893:	c3                   	ret    

000000000000b894 <_ZN3MPI6StatusD1Ev>:
  // copy
  Status(const Status& data) : mpi_status(data.mpi_status) { }

  Status(const MPI_Status &i) : mpi_status(i) { }

  virtual ~Status() {}
    b894:	f3 0f 1e fa          	endbr64 
    b898:	55                   	push   %rbp
    b899:	48 89 e5             	mov    %rsp,%rbp
    b89c:	48 89 7d f8          	mov    %rdi,-0x8(%rbp)
    b8a0:	48 8d 15 b1 fd 00 00 	lea    0xfdb1(%rip),%rdx        # 1b658 <_ZTVN3MPI6StatusE+0x10>
    b8a7:	48 8b 45 f8          	mov    -0x8(%rbp),%rax
    b8ab:	48 89 10             	mov    %rdx,(%rax)
    b8ae:	90                   	nop
    b8af:	5d                   	pop    %rbp
    b8b0:	c3                   	ret    
    b8b1:	90                   	nop

000000000000b8b2 <_ZN3MPI6StatusD0Ev>:
    b8b2:	f3 0f 1e fa          	endbr64 
    b8b6:	55                   	push   %rbp
    b8b7:	48 89 e5             	mov    %rsp,%rbp
    b8ba:	48 83 ec 10          	sub    $0x10,%rsp
    b8be:	48 89 7d f8          	mov    %rdi,-0x8(%rbp)
    b8c2:	48 8b 45 f8          	mov    -0x8(%rbp),%rax
    b8c6:	48 89 c7             	mov    %rax,%rdi
    b8c9:	e8 c6 ff ff ff       	call   b894 <_ZN3MPI6StatusD1Ev>
    b8ce:	48 8b 45 f8          	mov    -0x8(%rbp),%rax
    b8d2:	be 20 00 00 00       	mov    $0x20,%esi
    b8d7:	48 89 c7             	mov    %rax,%rdi
    b8da:	e8 21 eb ff ff       	call   a400 <_ZdlPvm@plt>
    b8df:	c9                   	leave  
    b8e0:	c3                   	ret    
    b8e1:	90                   	nop

000000000000b8e2 <_ZN3MPI6StatusaSERK20ompi_status_public_t>:
    mpi_status = data.mpi_status; return *this; }

  // comparison, don't need for status

  // inter-language operability
  Status& operator= (const MPI_Status &i) {
    b8e2:	f3 0f 1e fa          	endbr64 
    b8e6:	55                   	push   %rbp
    b8e7:	48 89 e5             	mov    %rsp,%rbp
    b8ea:	48 89 7d f8          	mov    %rdi,-0x8(%rbp)
    b8ee:	48 89 75 f0          	mov    %rsi,-0x10(%rbp)
    mpi_status = i; return *this; }
    b8f2:	48 8b 4d f8          	mov    -0x8(%rbp),%rcx
    b8f6:	48 8b 75 f0          	mov    -0x10(%rbp),%rsi
    b8fa:	48 8b 06             	mov    (%rsi),%rax
    b8fd:	48 8b 56 08          	mov    0x8(%rsi),%rdx
    b901:	48 89 41 08          	mov    %rax,0x8(%rcx)
    b905:	48 89 51 10          	mov    %rdx,0x10(%rcx)
    b909:	48 8b 46 10          	mov    0x10(%rsi),%rax
    b90d:	48 89 41 18          	mov    %rax,0x18(%rcx)
    b911:	48 8b 45 f8          	mov    -0x8(%rbp),%rax
    b915:	5d                   	pop    %rbp
    b916:	c3                   	ret    
    b917:	90                   	nop

000000000000b918 <_ZN3MPI7RequestD1Ev>:

#else

  // construction / destruction
  Request() : mpi_request(MPI_REQUEST_NULL) { }
  virtual ~Request() {}
    b918:	f3 0f 1e fa          	endbr64 
    b91c:	55                   	push   %rbp
    b91d:	48 89 e5             	mov    %rsp,%rbp
    b920:	48 89 7d f8          	mov    %rdi,-0x8(%rbp)
    b924:	48 8d 15 35 08 01 00 	lea    0x10835(%rip),%rdx        # 1c160 <_ZTVN3MPI7RequestE+0x10>
    b92b:	48 8b 45 f8          	mov    -0x8(%rbp),%rax
    b92f:	48 89 10             	mov    %rdx,(%rax)
    b932:	90                   	nop
    b933:	5d                   	pop    %rbp
    b934:	c3                   	ret    
    b935:	90                   	nop

000000000000b936 <_ZN3MPI7RequestD0Ev>:
    b936:	f3 0f 1e fa          	endbr64 
    b93a:	55                   	push   %rbp
    b93b:	48 89 e5             	mov    %rsp,%rbp
    b93e:	48 83 ec 10          	sub    $0x10,%rsp
    b942:	48 89 7d f8          	mov    %rdi,-0x8(%rbp)
    b946:	48 8b 45 f8          	mov    -0x8(%rbp),%rax
    b94a:	48 89 c7             	mov    %rax,%rdi
    b94d:	e8 c6 ff ff ff       	call   b918 <_ZN3MPI7RequestD1Ev>
    b952:	48 8b 45 f8          	mov    -0x8(%rbp),%rax
    b956:	be 10 00 00 00       	mov    $0x10,%esi
    b95b:	48 89 c7             	mov    %rax,%rdi
    b95e:	e8 9d ea ff ff       	call   a400 <_ZdlPvm@plt>
    b963:	c9                   	leave  
    b964:	c3                   	ret    
    b965:	90                   	nop

000000000000b966 <_ZN3MPI7RequestC1EP14ompi_request_t>:
  Request(MPI_Request i) : mpi_request(i) { }
    b966:	f3 0f 1e fa          	endbr64 
    b96a:	55                   	push   %rbp
    b96b:	48 89 e5             	mov    %rsp,%rbp
    b96e:	48 89 7d f8          	mov    %rdi,-0x8(%rbp)
    b972:	48 89 75 f0          	mov    %rsi,-0x10(%rbp)
    b976:	48 8d 15 e3 07 01 00 	lea    0x107e3(%rip),%rdx        # 1c160 <_ZTVN3MPI7RequestE+0x10>
    b97d:	48 8b 45 f8          	mov    -0x8(%rbp),%rax
    b981:	48 89 10             	mov    %rdx,(%rax)
    b984:	48 8b 45 f8          	mov    -0x8(%rbp),%rax
    b988:	48 8b 55 f0          	mov    -0x10(%rbp),%rdx
    b98c:	48 89 50 08          	mov    %rdx,0x8(%rax)
    b990:	90                   	nop
    b991:	5d                   	pop    %rbp
    b992:	c3                   	ret    
    b993:	90                   	nop

000000000000b994 <_ZN3MPI8PrequestC1ERKP14ompi_request_t>:
    Request::operator=(r);
    pmpi_request = r.pmpi_request; return *this; }
#else
  Prequest(const Request& p) : Request(p) { }

  Prequest(const MPI_Request &i) : Request(i) { }
    b994:	f3 0f 1e fa          	endbr64 
    b998:	55                   	push   %rbp
    b999:	48 89 e5             	mov    %rsp,%rbp
    b99c:	48 83 ec 10          	sub    $0x10,%rsp
    b9a0:	48 89 7d f8          	mov    %rdi,-0x8(%rbp)
    b9a4:	48 89 75 f0          	mov    %rsi,-0x10(%rbp)
    b9a8:	48 8b 45 f8          	mov    -0x8(%rbp),%rax
    b9ac:	48 8b 55 f0          	mov    -0x10(%rbp),%rdx
    b9b0:	48 8b 12             	mov    (%rdx),%rdx
    b9b3:	48 89 d6             	mov    %rdx,%rsi
    b9b6:	48 89 c7             	mov    %rax,%rdi
    b9b9:	e8 a8 ff ff ff       	call   b966 <_ZN3MPI7RequestC1EP14ompi_request_t>
    b9be:	48 8d 15 33 07 01 00 	lea    0x10733(%rip),%rdx        # 1c0f8 <_ZTVN3MPI8PrequestE+0x10>
    b9c5:	48 8b 45 f8          	mov    -0x8(%rbp),%rax
    b9c9:	48 89 10             	mov    %rdx,(%rax)
    b9cc:	90                   	nop
    b9cd:	c9                   	leave  
    b9ce:	c3                   	ret    
    b9cf:	90                   	nop

000000000000b9d0 <_ZN3MPI8PrequestD1Ev>:

  virtual ~Prequest() { }
    b9d0:	f3 0f 1e fa          	endbr64 
    b9d4:	55                   	push   %rbp
    b9d5:	48 89 e5             	mov    %rsp,%rbp
    b9d8:	48 83 ec 10          	sub    $0x10,%rsp
    b9dc:	48 89 7d f8          	mov    %rdi,-0x8(%rbp)
    b9e0:	48 8d 15 11 07 01 00 	lea    0x10711(%rip),%rdx        # 1c0f8 <_ZTVN3MPI8PrequestE+0x10>
    b9e7:	48 8b 45 f8          	mov    -0x8(%rbp),%rax
    b9eb:	48 89 10             	mov    %rdx,(%rax)
    b9ee:	48 8b 45 f8          	mov    -0x8(%rbp),%rax
    b9f2:	48 89 c7             	mov    %rax,%rdi
    b9f5:	e8 1e ff ff ff       	call   b918 <_ZN3MPI7RequestD1Ev>
    b9fa:	90                   	nop
    b9fb:	c9                   	leave  
    b9fc:	c3                   	ret    
    b9fd:	90                   	nop

000000000000b9fe <_ZN3MPI8PrequestD0Ev>:
    b9fe:	f3 0f 1e fa          	endbr64 
    ba02:	55                   	push   %rbp
    ba03:	48 89 e5             	mov    %rsp,%rbp
    ba06:	48 83 ec 10          	sub    $0x10,%rsp
    ba0a:	48 89 7d f8          	mov    %rdi,-0x8(%rbp)
    ba0e:	48 8b 45 f8          	mov    -0x8(%rbp),%rax
    ba12:	48 89 c7             	mov    %rax,%rdi
    ba15:	e8 b6 ff ff ff       	call   b9d0 <_ZN3MPI8PrequestD1Ev>
    ba1a:	48 8b 45 f8          	mov    -0x8(%rbp),%rax
    ba1e:	be 10 00 00 00       	mov    $0x10,%esi
    ba23:	48 89 c7             	mov    %rax,%rdi
    ba26:	e8 d5 e9 ff ff       	call   a400 <_ZdlPvm@plt>
    ba2b:	c9                   	leave  
    ba2c:	c3                   	ret    
    ba2d:	90                   	nop

000000000000ba2e <_ZN3MPI8GrequestD1Ev>:
    typedef int Cancel_function(void *, bool);

    Grequest() {}
    Grequest(const Request& req) : Request(req) {}
    Grequest(const MPI_Request &req) : Request(req) {}
    virtual ~Grequest() {}
    ba2e:	f3 0f 1e fa          	endbr64 
    ba32:	55                   	push   %rbp
    ba33:	48 89 e5             	mov    %rsp,%rbp
    ba36:	48 83 ec 10          	sub    $0x10,%rsp
    ba3a:	48 89 7d f8          	mov    %rdi,-0x8(%rbp)
    ba3e:	48 8d 15 4b 06 01 00 	lea    0x1064b(%rip),%rdx        # 1c090 <_ZTVN3MPI8GrequestE+0x10>
    ba45:	48 8b 45 f8          	mov    -0x8(%rbp),%rax
    ba49:	48 89 10             	mov    %rdx,(%rax)
    ba4c:	48 8b 45 f8          	mov    -0x8(%rbp),%rax
    ba50:	48 89 c7             	mov    %rax,%rdi
    ba53:	e8 c0 fe ff ff       	call   b918 <_ZN3MPI7RequestD1Ev>
    ba58:	90                   	nop
    ba59:	c9                   	leave  
    ba5a:	c3                   	ret    
    ba5b:	90                   	nop

000000000000ba5c <_ZN3MPI8GrequestD0Ev>:
    ba5c:	f3 0f 1e fa          	endbr64 
    ba60:	55                   	push   %rbp
    ba61:	48 89 e5             	mov    %rsp,%rbp
    ba64:	48 83 ec 10          	sub    $0x10,%rsp
    ba68:	48 89 7d f8          	mov    %rdi,-0x8(%rbp)
    ba6c:	48 8b 45 f8          	mov    -0x8(%rbp),%rax
    ba70:	48 89 c7             	mov    %rax,%rdi
    ba73:	e8 b6 ff ff ff       	call   ba2e <_ZN3MPI8GrequestD1Ev>
    ba78:	48 8b 45 f8          	mov    -0x8(%rbp),%rax
    ba7c:	be 10 00 00 00       	mov    $0x10,%esi
    ba81:	48 89 c7             	mov    %rax,%rdi
    ba84:	e8 77 e9 ff ff       	call   a400 <_ZdlPvm@plt>
    ba89:	c9                   	leave  
    ba8a:	c3                   	ret    
    ba8b:	90                   	nop

000000000000ba8c <_ZN3MPI5GroupC1EP12ompi_group_t>:
  const PMPI::Group& pmpi() { return pmpi_group; }
#else

  // construction
  inline Group() : mpi_group(MPI_GROUP_NULL) { }
  inline Group(MPI_Group i) : mpi_group(i) { }
    ba8c:	f3 0f 1e fa          	endbr64 
    ba90:	55                   	push   %rbp
    ba91:	48 89 e5             	mov    %rsp,%rbp
    ba94:	48 89 7d f8          	mov    %rdi,-0x8(%rbp)
    ba98:	48 89 75 f0          	mov    %rsi,-0x10(%rbp)
    ba9c:	48 8d 15 95 fc 00 00 	lea    0xfc95(%rip),%rdx        # 1b738 <_ZTVN3MPI5GroupE+0x10>
    baa3:	48 8b 45 f8          	mov    -0x8(%rbp),%rax
    baa7:	48 89 10             	mov    %rdx,(%rax)
    baaa:	48 8b 45 f8          	mov    -0x8(%rbp),%rax
    baae:	48 8b 55 f0          	mov    -0x10(%rbp),%rdx
    bab2:	48 89 50 08          	mov    %rdx,0x8(%rax)
    bab6:	90                   	nop
    bab7:	5d                   	pop    %rbp
    bab8:	c3                   	ret    
    bab9:	90                   	nop

000000000000baba <_ZN3MPI5GroupD1Ev>:

  // copy
  inline Group(const Group& g) : mpi_group(g.mpi_group) { }

  inline virtual ~Group() {}
    baba:	f3 0f 1e fa          	endbr64 
    babe:	55                   	push   %rbp
    babf:	48 89 e5             	mov    %rsp,%rbp
    bac2:	48 89 7d f8          	mov    %rdi,-0x8(%rbp)
    bac6:	48 8d 15 6b fc 00 00 	lea    0xfc6b(%rip),%rdx        # 1b738 <_ZTVN3MPI5GroupE+0x10>
    bacd:	48 8b 45 f8          	mov    -0x8(%rbp),%rax
    bad1:	48 89 10             	mov    %rdx,(%rax)
    bad4:	90                   	nop
    bad5:	5d                   	pop    %rbp
    bad6:	c3                   	ret    
    bad7:	90                   	nop

000000000000bad8 <_ZN3MPI5GroupD0Ev>:
    bad8:	f3 0f 1e fa          	endbr64 
    badc:	55                   	push   %rbp
    badd:	48 89 e5             	mov    %rsp,%rbp
    bae0:	48 83 ec 10          	sub    $0x10,%rsp
    bae4:	48 89 7d f8          	mov    %rdi,-0x8(%rbp)
    bae8:	48 8b 45 f8          	mov    -0x8(%rbp),%rax
    baec:	48 89 c7             	mov    %rax,%rdi
    baef:	e8 c6 ff ff ff       	call   baba <_ZN3MPI5GroupD1Ev>
    baf4:	48 8b 45 f8          	mov    -0x8(%rbp),%rax
    baf8:	be 10 00 00 00       	mov    $0x10,%esi
    bafd:	48 89 c7             	mov    %rax,%rdi
    bb00:	e8 fb e8 ff ff       	call   a400 <_ZdlPvm@plt>
    bb05:	c9                   	leave  
    bb06:	c3                   	ret    
    bb07:	90                   	nop

000000000000bb08 <_ZNK3MPI5GroupcvP12ompi_group_tEv>:
  inline bool operator== (const Group &a) { return (bool)(mpi_group == a.mpi_group); }
  inline bool operator!= (const Group &a) { return (bool)!(*this == a); }

  // inter-language operability
  inline Group& operator= (const MPI_Group &i) { mpi_group = i; return *this; }
  inline operator MPI_Group () const { return mpi_group; }
    bb08:	f3 0f 1e fa          	endbr64 
    bb0c:	55                   	push   %rbp
    bb0d:	48 89 e5             	mov    %rsp,%rbp
    bb10:	48 89 7d f8          	mov    %rdi,-0x8(%rbp)
    bb14:	48 8b 45 f8          	mov    -0x8(%rbp),%rax
    bb18:	48 8b 40 08          	mov    0x8(%rax),%rax
    bb1c:	5d                   	pop    %rbp
    bb1d:	c3                   	ret    

000000000000bb1e <_ZN3MPI9Comm_NullC1EP19ompi_communicator_t>:
  // construction
  inline Comm_Null() : mpi_comm(MPI_COMM_NULL) { }
  // copy
  inline Comm_Null(const Comm_Null& data) : mpi_comm(data.mpi_comm) { }
  // inter-language operability
  inline Comm_Null(MPI_Comm data) : mpi_comm(data) { }
    bb1e:	f3 0f 1e fa          	endbr64 
    bb22:	55                   	push   %rbp
    bb23:	48 89 e5             	mov    %rsp,%rbp
    bb26:	48 89 7d f8          	mov    %rdi,-0x8(%rbp)
    bb2a:	48 89 75 f0          	mov    %rsi,-0x10(%rbp)
    bb2e:	48 8d 15 8b 06 01 00 	lea    0x1068b(%rip),%rdx        # 1c1c0 <_ZTVN3MPI9Comm_NullE+0x10>
    bb35:	48 8b 45 f8          	mov    -0x8(%rbp),%rax
    bb39:	48 89 10             	mov    %rdx,(%rax)
    bb3c:	48 8b 45 f8          	mov    -0x8(%rbp),%rax
    bb40:	48 8b 55 f0          	mov    -0x10(%rbp),%rdx
    bb44:	48 89 50 08          	mov    %rdx,0x8(%rax)
    bb48:	90                   	nop
    bb49:	5d                   	pop    %rbp
    bb4a:	c3                   	ret    
    bb4b:	90                   	nop

000000000000bb4c <_ZN3MPI9Comm_NullD1Ev>:

  // destruction
  virtual inline ~Comm_Null() { }
    bb4c:	f3 0f 1e fa          	endbr64 
    bb50:	55                   	push   %rbp
    bb51:	48 89 e5             	mov    %rsp,%rbp
    bb54:	48 89 7d f8          	mov    %rdi,-0x8(%rbp)
    bb58:	48 8d 15 61 06 01 00 	lea    0x10661(%rip),%rdx        # 1c1c0 <_ZTVN3MPI9Comm_NullE+0x10>
    bb5f:	48 8b 45 f8          	mov    -0x8(%rbp),%rax
    bb63:	48 89 10             	mov    %rdx,(%rax)
    bb66:	90                   	nop
    bb67:	5d                   	pop    %rbp
    bb68:	c3                   	ret    
    bb69:	90                   	nop

000000000000bb6a <_ZN3MPI9Comm_NullD0Ev>:
    bb6a:	f3 0f 1e fa          	endbr64 
    bb6e:	55                   	push   %rbp
    bb6f:	48 89 e5             	mov    %rsp,%rbp
    bb72:	48 83 ec 10          	sub    $0x10,%rsp
    bb76:	48 89 7d f8          	mov    %rdi,-0x8(%rbp)
    bb7a:	48 8b 45 f8          	mov    -0x8(%rbp),%rax
    bb7e:	48 89 c7             	mov    %rax,%rdi
    bb81:	e8 c6 ff ff ff       	call   bb4c <_ZN3MPI9Comm_NullD1Ev>
    bb86:	48 8b 45 f8          	mov    -0x8(%rbp),%rax
    bb8a:	be 10 00 00 00       	mov    $0x10,%esi
    bb8f:	48 89 c7             	mov    %rax,%rdi
    bb92:	e8 69 e8 ff ff       	call   a400 <_ZdlPvm@plt>
    bb97:	c9                   	leave  
    bb98:	c3                   	ret    
    bb99:	90                   	nop

000000000000bb9a <_ZNK3MPI9Comm_NullcvP19ompi_communicator_tEv>:

  inline bool operator!=(const Comm_Null& data) const {
    return (bool) !(*this == data);}

  // inter-language operability (conversion operators)
  inline operator MPI_Comm() const { return mpi_comm; }
    bb9a:	f3 0f 1e fa          	endbr64 
    bb9e:	55                   	push   %rbp
    bb9f:	48 89 e5             	mov    %rsp,%rbp
    bba2:	48 89 7d f8          	mov    %rdi,-0x8(%rbp)
    bba6:	48 8b 45 f8          	mov    -0x8(%rbp),%rax
    bbaa:	48 8b 40 08          	mov    0x8(%rax),%rax
    bbae:	5d                   	pop    %rbp
    bbaf:	c3                   	ret    

000000000000bbb0 <_ZN3MPI4CommC1EP19ompi_communicator_t>:
  }

#else
  Comm(const Comm& data) : Comm_Null(data.mpi_comm) { }
  // inter-language operability
  Comm(MPI_Comm data) : Comm_Null(data) { }
    bbb0:	f3 0f 1e fa          	endbr64 
    bbb4:	55                   	push   %rbp
    bbb5:	48 89 e5             	mov    %rsp,%rbp
    bbb8:	48 83 ec 10          	sub    $0x10,%rsp
    bbbc:	48 89 7d f8          	mov    %rdi,-0x8(%rbp)
    bbc0:	48 89 75 f0          	mov    %rsi,-0x10(%rbp)
    bbc4:	48 8b 45 f8          	mov    -0x8(%rbp),%rax
    bbc8:	48 8b 55 f0          	mov    -0x10(%rbp),%rdx
    bbcc:	48 89 d6             	mov    %rdx,%rsi
    bbcf:	48 89 c7             	mov    %rax,%rdi
    bbd2:	e8 47 ff ff ff       	call   bb1e <_ZN3MPI9Comm_NullC1EP19ompi_communicator_t>
    bbd7:	48 8d 15 c2 06 01 00 	lea    0x106c2(%rip),%rdx        # 1c2a0 <_ZTVN3MPI4CommE+0x10>
    bbde:	48 8b 45 f8          	mov    -0x8(%rbp),%rax
    bbe2:	48 89 10             	mov    %rdx,(%rax)
    bbe5:	90                   	nop
    bbe6:	c9                   	leave  
    bbe7:	c3                   	ret    

000000000000bbe8 <_ZN3MPI3WinD1Ev>:
  // copy
  Win(const Win& data) : mpi_win(data.mpi_win) { }

  Win(MPI_Win i) : mpi_win(i) { }

  virtual ~Win() { }
    bbe8:	f3 0f 1e fa          	endbr64 
    bbec:	55                   	push   %rbp
    bbed:	48 89 e5             	mov    %rsp,%rbp
    bbf0:	48 89 7d f8          	mov    %rdi,-0x8(%rbp)
    bbf4:	48 8d 15 e5 05 01 00 	lea    0x105e5(%rip),%rdx        # 1c1e0 <_ZTVN3MPI3WinE+0x10>
    bbfb:	48 8b 45 f8          	mov    -0x8(%rbp),%rax
    bbff:	48 89 10             	mov    %rdx,(%rax)
    bc02:	90                   	nop
    bc03:	5d                   	pop    %rbp
    bc04:	c3                   	ret    
    bc05:	90                   	nop

000000000000bc06 <_ZN3MPI3WinD0Ev>:
    bc06:	f3 0f 1e fa          	endbr64 
    bc0a:	55                   	push   %rbp
    bc0b:	48 89 e5             	mov    %rsp,%rbp
    bc0e:	48 83 ec 10          	sub    $0x10,%rsp
    bc12:	48 89 7d f8          	mov    %rdi,-0x8(%rbp)
    bc16:	48 8b 45 f8          	mov    -0x8(%rbp),%rax
    bc1a:	48 89 c7             	mov    %rax,%rdi
    bc1d:	e8 c6 ff ff ff       	call   bbe8 <_ZN3MPI3WinD1Ev>
    bc22:	48 8b 45 f8          	mov    -0x8(%rbp),%rax
    bc26:	be 10 00 00 00       	mov    $0x10,%esi
    bc2b:	48 89 c7             	mov    %rax,%rdi
    bc2e:	e8 cd e7 ff ff       	call   a400 <_ZdlPvm@plt>
    bc33:	c9                   	leave  
    bc34:	c3                   	ret    
    bc35:	90                   	nop

000000000000bc36 <_ZN3MPI10ErrhandlerD1Ev>:
public:
  // construction / destruction
  inline Errhandler()
    : mpi_errhandler(MPI_ERRHANDLER_NULL) {}

  inline virtual ~Errhandler() { }
    bc36:	f3 0f 1e fa          	endbr64 
    bc3a:	55                   	push   %rbp
    bc3b:	48 89 e5             	mov    %rsp,%rbp
    bc3e:	48 89 7d f8          	mov    %rdi,-0x8(%rbp)
    bc42:	48 8d 15 87 fa 00 00 	lea    0xfa87(%rip),%rdx        # 1b6d0 <_ZTVN3MPI10ErrhandlerE+0x10>
    bc49:	48 8b 45 f8          	mov    -0x8(%rbp),%rax
    bc4d:	48 89 10             	mov    %rdx,(%rax)
    bc50:	90                   	nop
    bc51:	5d                   	pop    %rbp
    bc52:	c3                   	ret    
    bc53:	90                   	nop

000000000000bc54 <_ZN3MPI10ErrhandlerD0Ev>:
    bc54:	f3 0f 1e fa          	endbr64 
    bc58:	55                   	push   %rbp
    bc59:	48 89 e5             	mov    %rsp,%rbp
    bc5c:	48 83 ec 10          	sub    $0x10,%rsp
    bc60:	48 89 7d f8          	mov    %rdi,-0x8(%rbp)
    bc64:	48 8b 45 f8          	mov    -0x8(%rbp),%rax
    bc68:	48 89 c7             	mov    %rax,%rdi
    bc6b:	e8 c6 ff ff ff       	call   bc36 <_ZN3MPI10ErrhandlerD1Ev>
    bc70:	48 8b 45 f8          	mov    -0x8(%rbp),%rax
    bc74:	be 10 00 00 00       	mov    $0x10,%esi
    bc79:	48 89 c7             	mov    %rax,%rdi
    bc7c:	e8 7f e7 ff ff       	call   a400 <_ZdlPvm@plt>
    bc81:	c9                   	leave  
    bc82:	c3                   	ret    
    bc83:	90                   	nop

000000000000bc84 <_ZN3MPI10ErrhandlerC1EP17ompi_errhandler_t>:

  inline Errhandler(MPI_Errhandler i)
    bc84:	f3 0f 1e fa          	endbr64 
    bc88:	55                   	push   %rbp
    bc89:	48 89 e5             	mov    %rsp,%rbp
    bc8c:	48 89 7d f8          	mov    %rdi,-0x8(%rbp)
    bc90:	48 89 75 f0          	mov    %rsi,-0x10(%rbp)
    : mpi_errhandler(i) {}
    bc94:	48 8d 15 35 fa 00 00 	lea    0xfa35(%rip),%rdx        # 1b6d0 <_ZTVN3MPI10ErrhandlerE+0x10>
    bc9b:	48 8b 45 f8          	mov    -0x8(%rbp),%rax
    bc9f:	48 89 10             	mov    %rdx,(%rax)
    bca2:	48 8b 45 f8          	mov    -0x8(%rbp),%rax
    bca6:	48 8b 55 f0          	mov    -0x10(%rbp),%rdx
    bcaa:	48 89 50 08          	mov    %rdx,0x8(%rax)
    bcae:	90                   	nop
    bcaf:	5d                   	pop    %rbp
    bcb0:	c3                   	ret    
    bcb1:	90                   	nop

000000000000bcb2 <_ZNK3MPI10ErrhandlercvP17ompi_errhandler_tEv>:

  // inter-language operability
  inline Errhandler& operator= (const MPI_Errhandler &i) {
    mpi_errhandler = i; return *this; }

  inline operator MPI_Errhandler() const { return mpi_errhandler; }
    bcb2:	f3 0f 1e fa          	endbr64 
    bcb6:	55                   	push   %rbp
    bcb7:	48 89 e5             	mov    %rsp,%rbp
    bcba:	48 89 7d f8          	mov    %rdi,-0x8(%rbp)
    bcbe:	48 8b 45 f8          	mov    -0x8(%rbp),%rax
    bcc2:	48 8b 40 08          	mov    0x8(%rax),%rax
    bcc6:	5d                   	pop    %rbp
    bcc7:	c3                   	ret    

000000000000bcc8 <_ZN3MPI4CommD1Ev>:
class Comm : public Comm_Null {
    bcc8:	f3 0f 1e fa          	endbr64 
    bccc:	55                   	push   %rbp
    bccd:	48 89 e5             	mov    %rsp,%rbp
    bcd0:	48 83 ec 10          	sub    $0x10,%rsp
    bcd4:	48 89 7d f8          	mov    %rdi,-0x8(%rbp)
    bcd8:	48 8d 15 c1 05 01 00 	lea    0x105c1(%rip),%rdx        # 1c2a0 <_ZTVN3MPI4CommE+0x10>
    bcdf:	48 8b 45 f8          	mov    -0x8(%rbp),%rax
    bce3:	48 89 10             	mov    %rdx,(%rax)
    bce6:	48 8b 45 f8          	mov    -0x8(%rbp),%rax
    bcea:	48 89 c7             	mov    %rax,%rdi
    bced:	e8 5a fe ff ff       	call   bb4c <_ZN3MPI9Comm_NullD1Ev>
    bcf2:	90                   	nop
    bcf3:	c9                   	leave  
    bcf4:	c3                   	ret    
    bcf5:	90                   	nop

000000000000bcf6 <_ZN3MPI4CommD0Ev>:
    bcf6:	f3 0f 1e fa          	endbr64 
    bcfa:	55                   	push   %rbp
    bcfb:	48 89 e5             	mov    %rsp,%rbp
    bcfe:	48 83 ec 10          	sub    $0x10,%rsp
    bd02:	48 89 7d f8          	mov    %rdi,-0x8(%rbp)
    bd06:	48 8b 45 f8          	mov    -0x8(%rbp),%rax
    bd0a:	48 89 c7             	mov    %rax,%rdi
    bd0d:	e8 b6 ff ff ff       	call   bcc8 <_ZN3MPI4CommD1Ev>
    bd12:	48 8b 45 f8          	mov    -0x8(%rbp),%rax
    bd16:	be 10 00 00 00       	mov    $0x10,%esi
    bd1b:	48 89 c7             	mov    %rax,%rdi
    bd1e:	e8 dd e6 ff ff       	call   a400 <_ZdlPvm@plt>
    bd23:	c9                   	leave  
    bd24:	c3                   	ret    
    bd25:	90                   	nop

000000000000bd26 <_ZN3MPI9IntracommC1Ev>:

class Intracomm : public Comm {
public:

  // construction
  Intracomm() { }
    bd26:	f3 0f 1e fa          	endbr64 
    bd2a:	55                   	push   %rbp
    bd2b:	48 89 e5             	mov    %rsp,%rbp
    bd2e:	48 83 ec 10          	sub    $0x10,%rsp
    bd32:	48 89 7d f8          	mov    %rdi,-0x8(%rbp)
    bd36:	48 8b 45 f8          	mov    -0x8(%rbp),%rax
    bd3a:	48 89 c7             	mov    %rax,%rdi
    bd3d:	e8 6e e3 ff ff       	call   a0b0 <_ZN3MPI4CommC2Ev@plt>
    bd42:	48 8d 15 0f 01 01 00 	lea    0x1010f(%rip),%rdx        # 1be58 <_ZTVN3MPI9IntracommE+0x10>
    bd49:	48 8b 45 f8          	mov    -0x8(%rbp),%rax
    bd4d:	48 89 10             	mov    %rdx,(%rax)
    bd50:	90                   	nop
    bd51:	c9                   	leave  
    bd52:	c3                   	ret    
    bd53:	90                   	nop

000000000000bd54 <_ZN3MPI9IntracommD1Ev>:
class Intracomm : public Comm {
    bd54:	f3 0f 1e fa          	endbr64 
    bd58:	55                   	push   %rbp
    bd59:	48 89 e5             	mov    %rsp,%rbp
    bd5c:	48 83 ec 10          	sub    $0x10,%rsp
    bd60:	48 89 7d f8          	mov    %rdi,-0x8(%rbp)
    bd64:	48 8d 15 ed 00 01 00 	lea    0x100ed(%rip),%rdx        # 1be58 <_ZTVN3MPI9IntracommE+0x10>
    bd6b:	48 8b 45 f8          	mov    -0x8(%rbp),%rax
    bd6f:	48 89 10             	mov    %rdx,(%rax)
    bd72:	48 8b 45 f8          	mov    -0x8(%rbp),%rax
    bd76:	48 89 c7             	mov    %rax,%rdi
    bd79:	e8 4a ff ff ff       	call   bcc8 <_ZN3MPI4CommD1Ev>
    bd7e:	90                   	nop
    bd7f:	c9                   	leave  
    bd80:	c3                   	ret    
    bd81:	90                   	nop

000000000000bd82 <_ZN3MPI9IntracommD0Ev>:
    bd82:	f3 0f 1e fa          	endbr64 
    bd86:	55                   	push   %rbp
    bd87:	48 89 e5             	mov    %rsp,%rbp
    bd8a:	48 83 ec 10          	sub    $0x10,%rsp
    bd8e:	48 89 7d f8          	mov    %rdi,-0x8(%rbp)
    bd92:	48 8b 45 f8          	mov    -0x8(%rbp),%rax
    bd96:	48 89 c7             	mov    %rax,%rdi
    bd99:	e8 b6 ff ff ff       	call   bd54 <_ZN3MPI9IntracommD1Ev>
    bd9e:	48 8b 45 f8          	mov    -0x8(%rbp),%rax
    bda2:	be 10 00 00 00       	mov    $0x10,%esi
    bda7:	48 89 c7             	mov    %rax,%rdi
    bdaa:	e8 51 e6 ff ff       	call   a400 <_ZdlPvm@plt>
    bdaf:	c9                   	leave  
    bdb0:	c3                   	ret    
    bdb1:	90                   	nop

000000000000bdb2 <_ZN3MPI9IntercommC1EP19ompi_communicator_t>:
  // construction
  Intercomm() : Comm(MPI_COMM_NULL) { }
  // copy
  Intercomm(const Comm_Null& data) : Comm(data) { }
  // inter-language operability
  Intercomm(MPI_Comm data) : Comm(data) { }
    bdb2:	f3 0f 1e fa          	endbr64 
    bdb6:	55                   	push   %rbp
    bdb7:	48 89 e5             	mov    %rsp,%rbp
    bdba:	48 83 ec 10          	sub    $0x10,%rsp
    bdbe:	48 89 7d f8          	mov    %rdi,-0x8(%rbp)
    bdc2:	48 89 75 f0          	mov    %rsi,-0x10(%rbp)
    bdc6:	48 8b 45 f8          	mov    -0x8(%rbp),%rax
    bdca:	48 8b 55 f0          	mov    -0x10(%rbp),%rdx
    bdce:	48 89 d6             	mov    %rdx,%rsi
    bdd1:	48 89 c7             	mov    %rax,%rdi
    bdd4:	e8 d7 fd ff ff       	call   bbb0 <_ZN3MPI4CommC1EP19ompi_communicator_t>
    bdd9:	48 8d 15 b0 f9 00 00 	lea    0xf9b0(%rip),%rdx        # 1b790 <_ZTVN3MPI9IntercommE+0x10>
    bde0:	48 8b 45 f8          	mov    -0x8(%rbp),%rax
    bde4:	48 89 10             	mov    %rdx,(%rax)
    bde7:	90                   	nop
    bde8:	c9                   	leave  
    bde9:	c3                   	ret    

000000000000bdea <_ZN3MPI4InfoC1EP11ompi_info_t>:

  Info() : mpi_info(MPI_INFO_NULL) { }
  // copy
  Info(const Info& data) : mpi_info(data.mpi_info) { }

  Info(MPI_Info i) : mpi_info(i) { }
    bdea:	f3 0f 1e fa          	endbr64 
    bdee:	55                   	push   %rbp
    bdef:	48 89 e5             	mov    %rsp,%rbp
    bdf2:	48 89 7d f8          	mov    %rdi,-0x8(%rbp)
    bdf6:	48 89 75 f0          	mov    %rsi,-0x10(%rbp)
    bdfa:	48 8d 15 f7 f7 00 00 	lea    0xf7f7(%rip),%rdx        # 1b5f8 <_ZTVN3MPI4InfoE+0x10>
    be01:	48 8b 45 f8          	mov    -0x8(%rbp),%rax
    be05:	48 89 10             	mov    %rdx,(%rax)
    be08:	48 8b 45 f8          	mov    -0x8(%rbp),%rax
    be0c:	48 8b 55 f0          	mov    -0x10(%rbp),%rdx
    be10:	48 89 50 08          	mov    %rdx,0x8(%rax)
    be14:	90                   	nop
    be15:	5d                   	pop    %rbp
    be16:	c3                   	ret    
    be17:	90                   	nop

000000000000be18 <_ZN3MPI4InfoD1Ev>:

  virtual ~Info() {}
    be18:	f3 0f 1e fa          	endbr64 
    be1c:	55                   	push   %rbp
    be1d:	48 89 e5             	mov    %rsp,%rbp
    be20:	48 89 7d f8          	mov    %rdi,-0x8(%rbp)
    be24:	48 8d 15 cd f7 00 00 	lea    0xf7cd(%rip),%rdx        # 1b5f8 <_ZTVN3MPI4InfoE+0x10>
    be2b:	48 8b 45 f8          	mov    -0x8(%rbp),%rax
    be2f:	48 89 10             	mov    %rdx,(%rax)
    be32:	90                   	nop
    be33:	5d                   	pop    %rbp
    be34:	c3                   	ret    
    be35:	90                   	nop

000000000000be36 <_ZN3MPI4InfoD0Ev>:
    be36:	f3 0f 1e fa          	endbr64 
    be3a:	55                   	push   %rbp
    be3b:	48 89 e5             	mov    %rsp,%rbp
    be3e:	48 83 ec 10          	sub    $0x10,%rsp
    be42:	48 89 7d f8          	mov    %rdi,-0x8(%rbp)
    be46:	48 8b 45 f8          	mov    -0x8(%rbp),%rax
    be4a:	48 89 c7             	mov    %rax,%rdi
    be4d:	e8 c6 ff ff ff       	call   be18 <_ZN3MPI4InfoD1Ev>
    be52:	48 8b 45 f8          	mov    -0x8(%rbp),%rax
    be56:	be 10 00 00 00       	mov    $0x10,%esi
    be5b:	48 89 c7             	mov    %rax,%rdi
    be5e:	e8 9d e5 ff ff       	call   a400 <_ZdlPvm@plt>
    be63:	c9                   	leave  
    be64:	c3                   	ret    
    be65:	90                   	nop

000000000000be66 <_ZNK3MPI4InfocvP11ompi_info_tEv>:
  // comparison, don't need for info

  // inter-language operability
  Info& operator= (const MPI_Info &i) {
    mpi_info = i; return *this; }
  operator MPI_Info () const { return mpi_info; }
    be66:	f3 0f 1e fa          	endbr64 
    be6a:	55                   	push   %rbp
    be6b:	48 89 e5             	mov    %rsp,%rbp
    be6e:	48 89 7d f8          	mov    %rdi,-0x8(%rbp)
    be72:	48 8b 45 f8          	mov    -0x8(%rbp),%rax
    be76:	48 8b 40 08          	mov    0x8(%rax),%rax
    be7a:	5d                   	pop    %rbp
    be7b:	c3                   	ret    

000000000000be7c <_ZNK3MPI8Datatype17Create_contiguousEi>:
// Point-to-Point Communication
//

inline MPI::Datatype
MPI::Datatype::Create_contiguous(int count) const
{
    be7c:	f3 0f 1e fa          	endbr64 
    be80:	55                   	push   %rbp
    be81:	48 89 e5             	mov    %rsp,%rbp
    be84:	48 83 ec 30          	sub    $0x30,%rsp
    be88:	48 89 7d e8          	mov    %rdi,-0x18(%rbp)
    be8c:	48 89 75 e0          	mov    %rsi,-0x20(%rbp)
    be90:	89 55 dc             	mov    %edx,-0x24(%rbp)
    be93:	64 48 8b 04 25 28 00 	mov    %fs:0x28,%rax
    be9a:	00 00 
    be9c:	48 89 45 f8          	mov    %rax,-0x8(%rbp)
    bea0:	31 c0                	xor    %eax,%eax
  MPI_Datatype newtype;
  (void)MPI_Type_contiguous(count, mpi_datatype, &newtype);
    bea2:	48 8b 45 e0          	mov    -0x20(%rbp),%rax
    bea6:	48 8b 48 08          	mov    0x8(%rax),%rcx
    beaa:	48 8d 55 f0          	lea    -0x10(%rbp),%rdx
    beae:	8b 45 dc             	mov    -0x24(%rbp),%eax
    beb1:	48 89 ce             	mov    %rcx,%rsi
    beb4:	89 c7                	mov    %eax,%edi
    beb6:	e8 75 e2 ff ff       	call   a130 <MPI_Type_contiguous@plt>
  return newtype;
    bebb:	48 8b 55 f0          	mov    -0x10(%rbp),%rdx
    bebf:	48 8b 45 e8          	mov    -0x18(%rbp),%rax
    bec3:	48 89 d6             	mov    %rdx,%rsi
    bec6:	48 89 c7             	mov    %rax,%rdi
    bec9:	e8 5c f9 ff ff       	call   b82a <_ZN3MPI8DatatypeC1EP15ompi_datatype_t>
}
    bece:	48 8b 45 f8          	mov    -0x8(%rbp),%rax
    bed2:	64 48 2b 04 25 28 00 	sub    %fs:0x28,%rax
    bed9:	00 00 
    bedb:	74 05                	je     bee2 <_ZNK3MPI8Datatype17Create_contiguousEi+0x66>
    bedd:	e8 fe e5 ff ff       	call   a4e0 <__stack_chk_fail@plt>
    bee2:	48 8b 45 e8          	mov    -0x18(%rbp),%rax
    bee6:	c9                   	leave  
    bee7:	c3                   	ret    

000000000000bee8 <_ZNK3MPI8Datatype13Create_vectorEiii>:

inline MPI::Datatype
MPI::Datatype::Create_vector(int count, int blocklength,
			     int stride) const
{
    bee8:	f3 0f 1e fa          	endbr64 
    beec:	55                   	push   %rbp
    beed:	48 89 e5             	mov    %rsp,%rbp
    bef0:	48 83 ec 30          	sub    $0x30,%rsp
    bef4:	48 89 7d e8          	mov    %rdi,-0x18(%rbp)
    bef8:	48 89 75 e0          	mov    %rsi,-0x20(%rbp)
    befc:	89 55 dc             	mov    %edx,-0x24(%rbp)
    beff:	89 4d d8             	mov    %ecx,-0x28(%rbp)
    bf02:	44 89 45 d4          	mov    %r8d,-0x2c(%rbp)
    bf06:	64 48 8b 04 25 28 00 	mov    %fs:0x28,%rax
    bf0d:	00 00 
    bf0f:	48 89 45 f8          	mov    %rax,-0x8(%rbp)
    bf13:	31 c0                	xor    %eax,%eax
  MPI_Datatype newtype;
  (void)MPI_Type_vector(count, blocklength, stride, mpi_datatype, &newtype);
    bf15:	48 8b 45 e0          	mov    -0x20(%rbp),%rax
    bf19:	48 8b 48 08          	mov    0x8(%rax),%rcx
    bf1d:	48 8d 7d f0          	lea    -0x10(%rbp),%rdi
    bf21:	8b 55 d4             	mov    -0x2c(%rbp),%edx
    bf24:	8b 75 d8             	mov    -0x28(%rbp),%esi
    bf27:	8b 45 dc             	mov    -0x24(%rbp),%eax
    bf2a:	49 89 f8             	mov    %rdi,%r8
    bf2d:	89 c7                	mov    %eax,%edi
    bf2f:	e8 dc e9 ff ff       	call   a910 <MPI_Type_vector@plt>
  return newtype;
    bf34:	48 8b 55 f0          	mov    -0x10(%rbp),%rdx
    bf38:	48 8b 45 e8          	mov    -0x18(%rbp),%rax
    bf3c:	48 89 d6             	mov    %rdx,%rsi
    bf3f:	48 89 c7             	mov    %rax,%rdi
    bf42:	e8 e3 f8 ff ff       	call   b82a <_ZN3MPI8DatatypeC1EP15ompi_datatype_t>
}
    bf47:	48 8b 45 f8          	mov    -0x8(%rbp),%rax
    bf4b:	64 48 2b 04 25 28 00 	sub    %fs:0x28,%rax
    bf52:	00 00 
    bf54:	74 05                	je     bf5b <_ZNK3MPI8Datatype13Create_vectorEiii+0x73>
    bf56:	e8 85 e5 ff ff       	call   a4e0 <__stack_chk_fail@plt>
    bf5b:	48 8b 45 e8          	mov    -0x18(%rbp),%rax
    bf5f:	c9                   	leave  
    bf60:	c3                   	ret    
    bf61:	90                   	nop

000000000000bf62 <_ZNK3MPI8Datatype14Create_indexedEiPKiS2_>:

inline MPI::Datatype
MPI::Datatype::Create_indexed(int count,
				     const int array_of_blocklengths[],
				     const int array_of_displacements[]) const
{
    bf62:	f3 0f 1e fa          	endbr64 
    bf66:	55                   	push   %rbp
    bf67:	48 89 e5             	mov    %rsp,%rbp
    bf6a:	48 83 ec 40          	sub    $0x40,%rsp
    bf6e:	48 89 7d e8          	mov    %rdi,-0x18(%rbp)
    bf72:	48 89 75 e0          	mov    %rsi,-0x20(%rbp)
    bf76:	89 55 dc             	mov    %edx,-0x24(%rbp)
    bf79:	48 89 4d d0          	mov    %rcx,-0x30(%rbp)
    bf7d:	4c 89 45 c8          	mov    %r8,-0x38(%rbp)
    bf81:	64 48 8b 04 25 28 00 	mov    %fs:0x28,%rax
    bf88:	00 00 
    bf8a:	48 89 45 f8          	mov    %rax,-0x8(%rbp)
    bf8e:	31 c0                	xor    %eax,%eax
  MPI_Datatype newtype;
  (void)MPI_Type_indexed(count, const_cast<int *>(array_of_blocklengths),
			 const_cast<int *>(array_of_displacements), mpi_datatype, &newtype);
    bf90:	48 8b 45 e0          	mov    -0x20(%rbp),%rax
    bf94:	48 8b 48 08          	mov    0x8(%rax),%rcx
  (void)MPI_Type_indexed(count, const_cast<int *>(array_of_blocklengths),
    bf98:	48 8d 7d f0          	lea    -0x10(%rbp),%rdi
    bf9c:	48 8b 55 c8          	mov    -0x38(%rbp),%rdx
    bfa0:	48 8b 75 d0          	mov    -0x30(%rbp),%rsi
    bfa4:	8b 45 dc             	mov    -0x24(%rbp),%eax
    bfa7:	49 89 f8             	mov    %rdi,%r8
    bfaa:	89 c7                	mov    %eax,%edi
    bfac:	e8 8f e9 ff ff       	call   a940 <MPI_Type_indexed@plt>
  return newtype;
    bfb1:	48 8b 55 f0          	mov    -0x10(%rbp),%rdx
    bfb5:	48 8b 45 e8          	mov    -0x18(%rbp),%rax
    bfb9:	48 89 d6             	mov    %rdx,%rsi
    bfbc:	48 89 c7             	mov    %rax,%rdi
    bfbf:	e8 66 f8 ff ff       	call   b82a <_ZN3MPI8DatatypeC1EP15ompi_datatype_t>
}
    bfc4:	48 8b 45 f8          	mov    -0x8(%rbp),%rax
    bfc8:	64 48 2b 04 25 28 00 	sub    %fs:0x28,%rax
    bfcf:	00 00 
    bfd1:	74 05                	je     bfd8 <_ZNK3MPI8Datatype14Create_indexedEiPKiS2_+0x76>
    bfd3:	e8 08 e5 ff ff       	call   a4e0 <__stack_chk_fail@plt>
    bfd8:	48 8b 45 e8          	mov    -0x18(%rbp),%rax
    bfdc:	c9                   	leave  
    bfdd:	c3                   	ret    

000000000000bfde <_ZNK3MPI8Datatype15Create_hindexedEiPKiPKl>:
}

inline MPI::Datatype
MPI::Datatype::Create_hindexed(int count, const int array_of_blocklengths[],
				      const MPI::Aint array_of_displacements[]) const
{
    bfde:	f3 0f 1e fa          	endbr64 
    bfe2:	55                   	push   %rbp
    bfe3:	48 89 e5             	mov    %rsp,%rbp
    bfe6:	48 83 ec 40          	sub    $0x40,%rsp
    bfea:	48 89 7d e8          	mov    %rdi,-0x18(%rbp)
    bfee:	48 89 75 e0          	mov    %rsi,-0x20(%rbp)
    bff2:	89 55 dc             	mov    %edx,-0x24(%rbp)
    bff5:	48 89 4d d0          	mov    %rcx,-0x30(%rbp)
    bff9:	4c 89 45 c8          	mov    %r8,-0x38(%rbp)
    bffd:	64 48 8b 04 25 28 00 	mov    %fs:0x28,%rax
    c004:	00 00 
    c006:	48 89 45 f8          	mov    %rax,-0x8(%rbp)
    c00a:	31 c0                	xor    %eax,%eax
  MPI_Datatype newtype;
  (void)MPI_Type_create_hindexed(count, const_cast<int *>(array_of_blocklengths),
                                 const_cast<MPI_Aint*>(array_of_displacements),
                                 mpi_datatype, &newtype) ;
    c00c:	48 8b 45 e0          	mov    -0x20(%rbp),%rax
    c010:	48 8b 48 08          	mov    0x8(%rax),%rcx
  (void)MPI_Type_create_hindexed(count, const_cast<int *>(array_of_blocklengths),
    c014:	48 8d 7d f0          	lea    -0x10(%rbp),%rdi
    c018:	48 8b 55 c8          	mov    -0x38(%rbp),%rdx
    c01c:	48 8b 75 d0          	mov    -0x30(%rbp),%rsi
    c020:	8b 45 dc             	mov    -0x24(%rbp),%eax
    c023:	49 89 f8             	mov    %rdi,%r8
    c026:	89 c7                	mov    %eax,%edi
    c028:	e8 e3 e4 ff ff       	call   a510 <MPI_Type_create_hindexed@plt>
  return newtype;
    c02d:	48 8b 55 f0          	mov    -0x10(%rbp),%rdx
    c031:	48 8b 45 e8          	mov    -0x18(%rbp),%rax
    c035:	48 89 d6             	mov    %rdx,%rsi
    c038:	48 89 c7             	mov    %rax,%rdi
    c03b:	e8 ea f7 ff ff       	call   b82a <_ZN3MPI8DatatypeC1EP15ompi_datatype_t>
}
    c040:	48 8b 45 f8          	mov    -0x8(%rbp),%rax
    c044:	64 48 2b 04 25 28 00 	sub    %fs:0x28,%rax
    c04b:	00 00 
    c04d:	74 05                	je     c054 <_ZNK3MPI8Datatype15Create_hindexedEiPKiPKl+0x76>
    c04f:	e8 8c e4 ff ff       	call   a4e0 <__stack_chk_fail@plt>
    c054:	48 8b 45 e8          	mov    -0x18(%rbp),%rax
    c058:	c9                   	leave  
    c059:	c3                   	ret    

000000000000c05a <_ZNK3MPI8Datatype14Create_hvectorEiil>:

inline MPI::Datatype
MPI::Datatype::Create_hvector(int count, int blocklength,
				     MPI::Aint stride) const
{
    c05a:	f3 0f 1e fa          	endbr64 
    c05e:	55                   	push   %rbp
    c05f:	48 89 e5             	mov    %rsp,%rbp
    c062:	48 83 ec 30          	sub    $0x30,%rsp
    c066:	48 89 7d e8          	mov    %rdi,-0x18(%rbp)
    c06a:	48 89 75 e0          	mov    %rsi,-0x20(%rbp)
    c06e:	89 55 dc             	mov    %edx,-0x24(%rbp)
    c071:	89 4d d8             	mov    %ecx,-0x28(%rbp)
    c074:	4c 89 45 d0          	mov    %r8,-0x30(%rbp)
    c078:	64 48 8b 04 25 28 00 	mov    %fs:0x28,%rax
    c07f:	00 00 
    c081:	48 89 45 f8          	mov    %rax,-0x8(%rbp)
    c085:	31 c0                	xor    %eax,%eax
  MPI_Datatype newtype;
  (void)MPI_Type_create_hvector(count, blocklength, (MPI_Aint)stride,
                                mpi_datatype, &newtype);
    c087:	48 8b 45 e0          	mov    -0x20(%rbp),%rax
    c08b:	48 8b 48 08          	mov    0x8(%rax),%rcx
  (void)MPI_Type_create_hvector(count, blocklength, (MPI_Aint)stride,
    c08f:	48 8d 7d f0          	lea    -0x10(%rbp),%rdi
    c093:	48 8b 55 d0          	mov    -0x30(%rbp),%rdx
    c097:	8b 75 d8             	mov    -0x28(%rbp),%esi
    c09a:	8b 45 dc             	mov    -0x24(%rbp),%eax
    c09d:	49 89 f8             	mov    %rdi,%r8
    c0a0:	89 c7                	mov    %eax,%edi
    c0a2:	e8 b9 de ff ff       	call   9f60 <MPI_Type_create_hvector@plt>

  return newtype;
    c0a7:	48 8b 55 f0          	mov    -0x10(%rbp),%rdx
    c0ab:	48 8b 45 e8          	mov    -0x18(%rbp),%rax
    c0af:	48 89 d6             	mov    %rdx,%rsi
    c0b2:	48 89 c7             	mov    %rax,%rdi
    c0b5:	e8 70 f7 ff ff       	call   b82a <_ZN3MPI8DatatypeC1EP15ompi_datatype_t>
}
    c0ba:	48 8b 45 f8          	mov    -0x8(%rbp),%rax
    c0be:	64 48 2b 04 25 28 00 	sub    %fs:0x28,%rax
    c0c5:	00 00 
    c0c7:	74 05                	je     c0ce <_ZNK3MPI8Datatype14Create_hvectorEiil+0x74>
    c0c9:	e8 12 e4 ff ff       	call   a4e0 <__stack_chk_fail@plt>
    c0ce:	48 8b 45 e8          	mov    -0x18(%rbp),%rax
    c0d2:	c9                   	leave  
    c0d3:	c3                   	ret    

000000000000c0d4 <_ZNK3MPI8Datatype20Create_indexed_blockEiiPKi>:

inline MPI::Datatype
MPI::Datatype::Create_indexed_block(int count, int blocklength,
				    const int array_of_displacements[]) const
{
    c0d4:	f3 0f 1e fa          	endbr64 
    c0d8:	55                   	push   %rbp
    c0d9:	48 89 e5             	mov    %rsp,%rbp
    c0dc:	48 83 ec 30          	sub    $0x30,%rsp
    c0e0:	48 89 7d e8          	mov    %rdi,-0x18(%rbp)
    c0e4:	48 89 75 e0          	mov    %rsi,-0x20(%rbp)
    c0e8:	89 55 dc             	mov    %edx,-0x24(%rbp)
    c0eb:	89 4d d8             	mov    %ecx,-0x28(%rbp)
    c0ee:	4c 89 45 d0          	mov    %r8,-0x30(%rbp)
    c0f2:	64 48 8b 04 25 28 00 	mov    %fs:0x28,%rax
    c0f9:	00 00 
    c0fb:	48 89 45 f8          	mov    %rax,-0x8(%rbp)
    c0ff:	31 c0                	xor    %eax,%eax
  MPI_Datatype newtype;
  (void)MPI_Type_create_indexed_block(count, blocklength, const_cast<int *>(array_of_displacements),
                                      mpi_datatype, &newtype);
    c101:	48 8b 45 e0          	mov    -0x20(%rbp),%rax
    c105:	48 8b 48 08          	mov    0x8(%rax),%rcx
  (void)MPI_Type_create_indexed_block(count, blocklength, const_cast<int *>(array_of_displacements),
    c109:	48 8d 7d f0          	lea    -0x10(%rbp),%rdi
    c10d:	48 8b 55 d0          	mov    -0x30(%rbp),%rdx
    c111:	8b 75 d8             	mov    -0x28(%rbp),%esi
    c114:	8b 45 dc             	mov    -0x24(%rbp),%eax
    c117:	49 89 f8             	mov    %rdi,%r8
    c11a:	89 c7                	mov    %eax,%edi
    c11c:	e8 9f e5 ff ff       	call   a6c0 <MPI_Type_create_indexed_block@plt>
  return newtype;
    c121:	48 8b 55 f0          	mov    -0x10(%rbp),%rdx
    c125:	48 8b 45 e8          	mov    -0x18(%rbp),%rax
    c129:	48 89 d6             	mov    %rdx,%rsi
    c12c:	48 89 c7             	mov    %rax,%rdi
    c12f:	e8 f6 f6 ff ff       	call   b82a <_ZN3MPI8DatatypeC1EP15ompi_datatype_t>
}
    c134:	48 8b 45 f8          	mov    -0x8(%rbp),%rax
    c138:	64 48 2b 04 25 28 00 	sub    %fs:0x28,%rax
    c13f:	00 00 
    c141:	74 05                	je     c148 <_ZNK3MPI8Datatype20Create_indexed_blockEiiPKi+0x74>
    c143:	e8 98 e3 ff ff       	call   a4e0 <__stack_chk_fail@plt>
    c148:	48 8b 45 e8          	mov    -0x18(%rbp),%rax
    c14c:	c9                   	leave  
    c14d:	c3                   	ret    

000000000000c14e <_ZNK3MPI8Datatype14Create_resizedEll>:

inline MPI::Datatype
MPI::Datatype::Create_resized(const MPI::Aint lb, const MPI::Aint extent) const
{
    c14e:	f3 0f 1e fa          	endbr64 
    c152:	55                   	push   %rbp
    c153:	48 89 e5             	mov    %rsp,%rbp
    c156:	48 83 ec 30          	sub    $0x30,%rsp
    c15a:	48 89 7d e8          	mov    %rdi,-0x18(%rbp)
    c15e:	48 89 75 e0          	mov    %rsi,-0x20(%rbp)
    c162:	48 89 55 d8          	mov    %rdx,-0x28(%rbp)
    c166:	48 89 4d d0          	mov    %rcx,-0x30(%rbp)
    c16a:	64 48 8b 04 25 28 00 	mov    %fs:0x28,%rax
    c171:	00 00 
    c173:	48 89 45 f8          	mov    %rax,-0x8(%rbp)
    c177:	31 c0                	xor    %eax,%eax
    MPI_Datatype newtype;

    (void) MPI_Type_create_resized(mpi_datatype, lb, extent, &newtype);
    c179:	48 8b 45 e0          	mov    -0x20(%rbp),%rax
    c17d:	48 8b 40 08          	mov    0x8(%rax),%rax
    c181:	48 8d 4d f0          	lea    -0x10(%rbp),%rcx
    c185:	48 8b 55 d0          	mov    -0x30(%rbp),%rdx
    c189:	48 8b 75 d8          	mov    -0x28(%rbp),%rsi
    c18d:	48 89 c7             	mov    %rax,%rdi
    c190:	e8 0b e8 ff ff       	call   a9a0 <MPI_Type_create_resized@plt>
    return(newtype);
    c195:	48 8b 55 f0          	mov    -0x10(%rbp),%rdx
    c199:	48 8b 45 e8          	mov    -0x18(%rbp),%rax
    c19d:	48 89 d6             	mov    %rdx,%rsi
    c1a0:	48 89 c7             	mov    %rax,%rdi
    c1a3:	e8 82 f6 ff ff       	call   b82a <_ZN3MPI8DatatypeC1EP15ompi_datatype_t>
}
    c1a8:	48 8b 45 f8          	mov    -0x8(%rbp),%rax
    c1ac:	64 48 2b 04 25 28 00 	sub    %fs:0x28,%rax
    c1b3:	00 00 
    c1b5:	74 05                	je     c1bc <_ZNK3MPI8Datatype14Create_resizedEll+0x6e>
    c1b7:	e8 24 e3 ff ff       	call   a4e0 <__stack_chk_fail@plt>
    c1bc:	48 8b 45 e8          	mov    -0x18(%rbp),%rax
    c1c0:	c9                   	leave  
    c1c1:	c3                   	ret    

000000000000c1c2 <_ZNK3MPI8Datatype8Get_sizeEv>:

inline int
MPI::Datatype::Get_size() const
{
    c1c2:	f3 0f 1e fa          	endbr64 
    c1c6:	55                   	push   %rbp
    c1c7:	48 89 e5             	mov    %rsp,%rbp
    c1ca:	48 83 ec 20          	sub    $0x20,%rsp
    c1ce:	48 89 7d e8          	mov    %rdi,-0x18(%rbp)
    c1d2:	64 48 8b 04 25 28 00 	mov    %fs:0x28,%rax
    c1d9:	00 00 
    c1db:	48 89 45 f8          	mov    %rax,-0x8(%rbp)
    c1df:	31 c0                	xor    %eax,%eax
  int size;
  (void)MPI_Type_size(mpi_datatype, &size);
    c1e1:	48 8b 45 e8          	mov    -0x18(%rbp),%rax
    c1e5:	48 8b 40 08          	mov    0x8(%rax),%rax
    c1e9:	48 8d 55 f4          	lea    -0xc(%rbp),%rdx
    c1ed:	48 89 d6             	mov    %rdx,%rsi
    c1f0:	48 89 c7             	mov    %rax,%rdi
    c1f3:	e8 e8 e3 ff ff       	call   a5e0 <MPI_Type_size@plt>
  return size;
    c1f8:	8b 45 f4             	mov    -0xc(%rbp),%eax
}
    c1fb:	48 8b 55 f8          	mov    -0x8(%rbp),%rdx
    c1ff:	64 48 2b 14 25 28 00 	sub    %fs:0x28,%rdx
    c206:	00 00 
    c208:	74 05                	je     c20f <_ZNK3MPI8Datatype8Get_sizeEv+0x4d>
    c20a:	e8 d1 e2 ff ff       	call   a4e0 <__stack_chk_fail@plt>
    c20f:	c9                   	leave  
    c210:	c3                   	ret    
    c211:	90                   	nop

000000000000c212 <_ZNK3MPI8Datatype10Get_extentERlS1_>:

inline void
MPI::Datatype::Get_extent(MPI::Aint& lb, MPI::Aint& extent) const
{
    c212:	f3 0f 1e fa          	endbr64 
    c216:	55                   	push   %rbp
    c217:	48 89 e5             	mov    %rsp,%rbp
    c21a:	48 83 ec 20          	sub    $0x20,%rsp
    c21e:	48 89 7d f8          	mov    %rdi,-0x8(%rbp)
    c222:	48 89 75 f0          	mov    %rsi,-0x10(%rbp)
    c226:	48 89 55 e8          	mov    %rdx,-0x18(%rbp)
  (void)MPI_Type_get_extent(mpi_datatype, &lb, &extent);
    c22a:	48 8b 45 f8          	mov    -0x8(%rbp),%rax
    c22e:	48 8b 40 08          	mov    0x8(%rax),%rax
    c232:	48 8b 55 e8          	mov    -0x18(%rbp),%rdx
    c236:	48 8b 4d f0          	mov    -0x10(%rbp),%rcx
    c23a:	48 89 ce             	mov    %rcx,%rsi
    c23d:	48 89 c7             	mov    %rax,%rdi
    c240:	e8 ab dd ff ff       	call   9ff0 <MPI_Type_get_extent@plt>
}
    c245:	90                   	nop
    c246:	c9                   	leave  
    c247:	c3                   	ret    

000000000000c248 <_ZNK3MPI8Datatype15Get_true_extentERlS1_>:

inline void
MPI::Datatype::Get_true_extent(MPI::Aint& lb, MPI::Aint& extent) const
{
    c248:	f3 0f 1e fa          	endbr64 
    c24c:	55                   	push   %rbp
    c24d:	48 89 e5             	mov    %rsp,%rbp
    c250:	48 83 ec 20          	sub    $0x20,%rsp
    c254:	48 89 7d f8          	mov    %rdi,-0x8(%rbp)
    c258:	48 89 75 f0          	mov    %rsi,-0x10(%rbp)
    c25c:	48 89 55 e8          	mov    %rdx,-0x18(%rbp)
    (void) MPI_Type_get_true_extent(mpi_datatype, &lb, &extent);
    c260:	48 8b 45 f8          	mov    -0x8(%rbp),%rax
    c264:	48 8b 40 08          	mov    0x8(%rax),%rax
    c268:	48 8b 55 e8          	mov    -0x18(%rbp),%rdx
    c26c:	48 8b 4d f0          	mov    -0x10(%rbp),%rcx
    c270:	48 89 ce             	mov    %rcx,%rsi
    c273:	48 89 c7             	mov    %rax,%rdi
    c276:	e8 85 de ff ff       	call   a100 <MPI_Type_get_true_extent@plt>
}
    c27b:	90                   	nop
    c27c:	c9                   	leave  
    c27d:	c3                   	ret    

000000000000c27e <_ZN3MPI8Datatype6CommitEv>:

inline void
MPI::Datatype::Commit()
{
    c27e:	f3 0f 1e fa          	endbr64 
    c282:	55                   	push   %rbp
    c283:	48 89 e5             	mov    %rsp,%rbp
    c286:	48 83 ec 10          	sub    $0x10,%rsp
    c28a:	48 89 7d f8          	mov    %rdi,-0x8(%rbp)
  (void)MPI_Type_commit(&mpi_datatype);
    c28e:	48 8b 45 f8          	mov    -0x8(%rbp),%rax
    c292:	48 83 c0 08          	add    $0x8,%rax
    c296:	48 89 c7             	mov    %rax,%rdi
    c299:	e8 12 e3 ff ff       	call   a5b0 <MPI_Type_commit@plt>
}
    c29e:	90                   	nop
    c29f:	c9                   	leave  
    c2a0:	c3                   	ret    
    c2a1:	90                   	nop

000000000000c2a2 <_ZNK3MPI8Datatype4PackEPKviPviRiRKNS_4CommE>:

inline void
MPI::Datatype::Pack(const void* inbuf, int incount,
			   void *outbuf, int outsize,
			   int& position, const MPI::Comm &comm) const
{
    c2a2:	f3 0f 1e fa          	endbr64 
    c2a6:	55                   	push   %rbp
    c2a7:	48 89 e5             	mov    %rsp,%rbp
    c2aa:	48 83 ec 30          	sub    $0x30,%rsp
    c2ae:	48 89 7d f8          	mov    %rdi,-0x8(%rbp)
    c2b2:	48 89 75 f0          	mov    %rsi,-0x10(%rbp)
    c2b6:	89 55 ec             	mov    %edx,-0x14(%rbp)
    c2b9:	48 89 4d e0          	mov    %rcx,-0x20(%rbp)
    c2bd:	44 89 45 e8          	mov    %r8d,-0x18(%rbp)
    c2c1:	4c 89 4d d8          	mov    %r9,-0x28(%rbp)
  (void)MPI_Pack(const_cast<void *>(inbuf), incount,  mpi_datatype, outbuf,
    c2c5:	48 8b 45 10          	mov    0x10(%rbp),%rax
    c2c9:	48 89 c7             	mov    %rax,%rdi
    c2cc:	e8 c9 f8 ff ff       	call   bb9a <_ZNK3MPI9Comm_NullcvP19ompi_communicator_tEv>
    c2d1:	48 89 c7             	mov    %rax,%rdi
    c2d4:	48 8b 45 f8          	mov    -0x8(%rbp),%rax
    c2d8:	48 8b 50 08          	mov    0x8(%rax),%rdx
    c2dc:	4c 8b 4d d8          	mov    -0x28(%rbp),%r9
    c2e0:	44 8b 45 e8          	mov    -0x18(%rbp),%r8d
    c2e4:	48 8b 4d e0          	mov    -0x20(%rbp),%rcx
    c2e8:	8b 75 ec             	mov    -0x14(%rbp),%esi
    c2eb:	48 8b 45 f0          	mov    -0x10(%rbp),%rax
    c2ef:	48 83 ec 08          	sub    $0x8,%rsp
    c2f3:	57                   	push   %rdi
    c2f4:	48 89 c7             	mov    %rax,%rdi
    c2f7:	e8 b4 e0 ff ff       	call   a3b0 <MPI_Pack@plt>
    c2fc:	48 83 c4 10          	add    $0x10,%rsp
		 outsize, &position, comm);
}
    c300:	90                   	nop
    c301:	c9                   	leave  
    c302:	c3                   	ret    
    c303:	90                   	nop

000000000000c304 <_ZNK3MPI8Datatype6UnpackEPKviPviRiRKNS_4CommE>:

inline void
MPI::Datatype::Unpack(const void* inbuf, int insize,
			     void *outbuf, int outcount, int& position,
			     const MPI::Comm& comm) const
{
    c304:	f3 0f 1e fa          	endbr64 
    c308:	55                   	push   %rbp
    c309:	48 89 e5             	mov    %rsp,%rbp
    c30c:	48 83 ec 30          	sub    $0x30,%rsp
    c310:	48 89 7d f8          	mov    %rdi,-0x8(%rbp)
    c314:	48 89 75 f0          	mov    %rsi,-0x10(%rbp)
    c318:	89 55 ec             	mov    %edx,-0x14(%rbp)
    c31b:	48 89 4d e0          	mov    %rcx,-0x20(%rbp)
    c31f:	44 89 45 e8          	mov    %r8d,-0x18(%rbp)
    c323:	4c 89 4d d8          	mov    %r9,-0x28(%rbp)
  (void)MPI_Unpack(const_cast<void *>(inbuf), insize, &position,
    c327:	48 8b 45 10          	mov    0x10(%rbp),%rax
    c32b:	48 89 c7             	mov    %rax,%rdi
    c32e:	e8 67 f8 ff ff       	call   bb9a <_ZNK3MPI9Comm_NullcvP19ompi_communicator_tEv>
    c333:	48 89 c7             	mov    %rax,%rdi
		   outbuf, outcount, mpi_datatype, comm);
    c336:	48 8b 45 f8          	mov    -0x8(%rbp),%rax
    c33a:	4c 8b 48 08          	mov    0x8(%rax),%r9
  (void)MPI_Unpack(const_cast<void *>(inbuf), insize, &position,
    c33e:	44 8b 45 e8          	mov    -0x18(%rbp),%r8d
    c342:	48 8b 4d e0          	mov    -0x20(%rbp),%rcx
    c346:	48 8b 55 d8          	mov    -0x28(%rbp),%rdx
    c34a:	8b 75 ec             	mov    -0x14(%rbp),%esi
    c34d:	48 8b 45 f0          	mov    -0x10(%rbp),%rax
    c351:	48 83 ec 08          	sub    $0x8,%rsp
    c355:	57                   	push   %rdi
    c356:	48 89 c7             	mov    %rax,%rdi
    c359:	e8 c2 dc ff ff       	call   a020 <MPI_Unpack@plt>
    c35e:	48 83 c4 10          	add    $0x10,%rsp
}
    c362:	90                   	nop
    c363:	c9                   	leave  
    c364:	c3                   	ret    
    c365:	90                   	nop

000000000000c366 <_ZNK3MPI8Datatype9Pack_sizeEiRKNS_4CommE>:

inline int
MPI::Datatype::Pack_size(int incount, const MPI::Comm& comm) const
{
    c366:	f3 0f 1e fa          	endbr64 
    c36a:	55                   	push   %rbp
    c36b:	48 89 e5             	mov    %rsp,%rbp
    c36e:	48 83 ec 30          	sub    $0x30,%rsp
    c372:	48 89 7d e8          	mov    %rdi,-0x18(%rbp)
    c376:	89 75 e4             	mov    %esi,-0x1c(%rbp)
    c379:	48 89 55 d8          	mov    %rdx,-0x28(%rbp)
    c37d:	64 48 8b 04 25 28 00 	mov    %fs:0x28,%rax
    c384:	00 00 
    c386:	48 89 45 f8          	mov    %rax,-0x8(%rbp)
    c38a:	31 c0                	xor    %eax,%eax
  int size;
  (void)MPI_Pack_size(incount, mpi_datatype, comm, &size);
    c38c:	48 8b 45 d8          	mov    -0x28(%rbp),%rax
    c390:	48 89 c7             	mov    %rax,%rdi
    c393:	e8 02 f8 ff ff       	call   bb9a <_ZNK3MPI9Comm_NullcvP19ompi_communicator_tEv>
    c398:	48 89 c7             	mov    %rax,%rdi
    c39b:	48 8b 45 e8          	mov    -0x18(%rbp),%rax
    c39f:	48 8b 70 08          	mov    0x8(%rax),%rsi
    c3a3:	48 8d 55 f4          	lea    -0xc(%rbp),%rdx
    c3a7:	8b 45 e4             	mov    -0x1c(%rbp),%eax
    c3aa:	48 89 d1             	mov    %rdx,%rcx
    c3ad:	48 89 fa             	mov    %rdi,%rdx
    c3b0:	89 c7                	mov    %eax,%edi
    c3b2:	e8 79 db ff ff       	call   9f30 <MPI_Pack_size@plt>
  return size;
    c3b7:	8b 45 f4             	mov    -0xc(%rbp),%eax
}
    c3ba:	48 8b 55 f8          	mov    -0x8(%rbp),%rdx
    c3be:	64 48 2b 14 25 28 00 	sub    %fs:0x28,%rdx
    c3c5:	00 00 
    c3c7:	74 05                	je     c3ce <_ZNK3MPI8Datatype9Pack_sizeEiRKNS_4CommE+0x68>
    c3c9:	e8 12 e1 ff ff       	call   a4e0 <__stack_chk_fail@plt>
    c3ce:	c9                   	leave  
    c3cf:	c3                   	ret    

000000000000c3d0 <_ZNK3MPI8Datatype13Pack_externalEPKcPKviPvlRl>:

inline void
MPI::Datatype::Pack_external(const char* datarep, const void* inbuf, int incount,
            void* outbuf, MPI::Aint outsize, MPI::Aint& position) const
{
    c3d0:	f3 0f 1e fa          	endbr64 
    c3d4:	55                   	push   %rbp
    c3d5:	48 89 e5             	mov    %rsp,%rbp
    c3d8:	48 83 ec 30          	sub    $0x30,%rsp
    c3dc:	48 89 7d f8          	mov    %rdi,-0x8(%rbp)
    c3e0:	48 89 75 f0          	mov    %rsi,-0x10(%rbp)
    c3e4:	48 89 55 e8          	mov    %rdx,-0x18(%rbp)
    c3e8:	89 4d e4             	mov    %ecx,-0x1c(%rbp)
    c3eb:	4c 89 45 d8          	mov    %r8,-0x28(%rbp)
    c3ef:	4c 89 4d d0          	mov    %r9,-0x30(%rbp)
    (void)MPI_Pack_external(const_cast<char *>(datarep), const_cast<void *>(inbuf),
                             incount, mpi_datatype, outbuf, outsize, &position);
    c3f3:	48 8b 45 f8          	mov    -0x8(%rbp),%rax
    c3f7:	48 8b 48 08          	mov    0x8(%rax),%rcx
    (void)MPI_Pack_external(const_cast<char *>(datarep), const_cast<void *>(inbuf),
    c3fb:	4c 8b 45 d0          	mov    -0x30(%rbp),%r8
    c3ff:	48 8b 7d d8          	mov    -0x28(%rbp),%rdi
    c403:	8b 55 e4             	mov    -0x1c(%rbp),%edx
    c406:	48 8b 75 e8          	mov    -0x18(%rbp),%rsi
    c40a:	48 8b 45 f0          	mov    -0x10(%rbp),%rax
    c40e:	48 83 ec 08          	sub    $0x8,%rsp
    c412:	ff 75 10             	push   0x10(%rbp)
    c415:	4d 89 c1             	mov    %r8,%r9
    c418:	49 89 f8             	mov    %rdi,%r8
    c41b:	48 89 c7             	mov    %rax,%rdi
    c41e:	e8 dd dd ff ff       	call   a200 <MPI_Pack_external@plt>
    c423:	48 83 c4 10          	add    $0x10,%rsp
}
    c427:	90                   	nop
    c428:	c9                   	leave  
    c429:	c3                   	ret    

000000000000c42a <_ZNK3MPI8Datatype18Pack_external_sizeEPKci>:

inline MPI::Aint
MPI::Datatype::Pack_external_size(const char* datarep, int incount) const
{
    c42a:	f3 0f 1e fa          	endbr64 
    c42e:	55                   	push   %rbp
    c42f:	48 89 e5             	mov    %rsp,%rbp
    c432:	48 83 ec 30          	sub    $0x30,%rsp
    c436:	48 89 7d e8          	mov    %rdi,-0x18(%rbp)
    c43a:	48 89 75 e0          	mov    %rsi,-0x20(%rbp)
    c43e:	89 55 dc             	mov    %edx,-0x24(%rbp)
    c441:	64 48 8b 04 25 28 00 	mov    %fs:0x28,%rax
    c448:	00 00 
    c44a:	48 89 45 f8          	mov    %rax,-0x8(%rbp)
    c44e:	31 c0                	xor    %eax,%eax
    MPI_Aint addr;
    (void)MPI_Pack_external_size(const_cast<char *>(datarep), incount, mpi_datatype, &addr);
    c450:	48 8b 45 e8          	mov    -0x18(%rbp),%rax
    c454:	48 8b 50 08          	mov    0x8(%rax),%rdx
    c458:	48 8d 4d f0          	lea    -0x10(%rbp),%rcx
    c45c:	8b 75 dc             	mov    -0x24(%rbp),%esi
    c45f:	48 8b 45 e0          	mov    -0x20(%rbp),%rax
    c463:	48 89 c7             	mov    %rax,%rdi
    c466:	e8 65 e6 ff ff       	call   aad0 <MPI_Pack_external_size@plt>
    return addr;
    c46b:	48 8b 45 f0          	mov    -0x10(%rbp),%rax
}
    c46f:	48 8b 55 f8          	mov    -0x8(%rbp),%rdx
    c473:	64 48 2b 14 25 28 00 	sub    %fs:0x28,%rdx
    c47a:	00 00 
    c47c:	74 05                	je     c483 <_ZNK3MPI8Datatype18Pack_external_sizeEPKci+0x59>
    c47e:	e8 5d e0 ff ff       	call   a4e0 <__stack_chk_fail@plt>
    c483:	c9                   	leave  
    c484:	c3                   	ret    
    c485:	90                   	nop

000000000000c486 <_ZNK3MPI8Datatype15Unpack_externalEPKcPKvlRlPvi>:

inline void
MPI::Datatype::Unpack_external(const char* datarep, const void* inbuf,
            MPI::Aint insize, MPI::Aint& position, void* outbuf, int outcount) const
{
    c486:	f3 0f 1e fa          	endbr64 
    c48a:	55                   	push   %rbp
    c48b:	48 89 e5             	mov    %rsp,%rbp
    c48e:	48 83 ec 30          	sub    $0x30,%rsp
    c492:	48 89 7d f8          	mov    %rdi,-0x8(%rbp)
    c496:	48 89 75 f0          	mov    %rsi,-0x10(%rbp)
    c49a:	48 89 55 e8          	mov    %rdx,-0x18(%rbp)
    c49e:	48 89 4d e0          	mov    %rcx,-0x20(%rbp)
    c4a2:	4c 89 45 d8          	mov    %r8,-0x28(%rbp)
    c4a6:	4c 89 4d d0          	mov    %r9,-0x30(%rbp)
    (void)MPI_Unpack_external(const_cast<char *>(datarep), const_cast<void *>(inbuf),
                               insize, &position, outbuf, outcount, mpi_datatype);
    c4aa:	48 8b 45 f8          	mov    -0x8(%rbp),%rax
    c4ae:	48 8b 78 08          	mov    0x8(%rax),%rdi
    (void)MPI_Unpack_external(const_cast<char *>(datarep), const_cast<void *>(inbuf),
    c4b2:	4c 8b 45 d0          	mov    -0x30(%rbp),%r8
    c4b6:	48 8b 4d d8          	mov    -0x28(%rbp),%rcx
    c4ba:	48 8b 55 e0          	mov    -0x20(%rbp),%rdx
    c4be:	48 8b 75 e8          	mov    -0x18(%rbp),%rsi
    c4c2:	48 8b 45 f0          	mov    -0x10(%rbp),%rax
    c4c6:	48 83 ec 08          	sub    $0x8,%rsp
    c4ca:	57                   	push   %rdi
    c4cb:	44 8b 4d 10          	mov    0x10(%rbp),%r9d
    c4cf:	48 89 c7             	mov    %rax,%rdi
    c4d2:	e8 99 da ff ff       	call   9f70 <MPI_Unpack_external@plt>
    c4d7:	48 83 c4 10          	add    $0x10,%rsp
}
    c4db:	90                   	nop
    c4dc:	c9                   	leave  
    c4dd:	c3                   	ret    

000000000000c4de <_ZNK3MPI8Datatype15Create_subarrayEiPKiS2_S2_i>:
inline MPI::Datatype
MPI::Datatype::Create_subarray(int ndims, const int array_of_sizes[],
				      const int array_of_subsizes[],
				      const int array_of_starts[], int order)
  const
{
    c4de:	f3 0f 1e fa          	endbr64 
    c4e2:	55                   	push   %rbp
    c4e3:	48 89 e5             	mov    %rsp,%rbp
    c4e6:	48 83 ec 40          	sub    $0x40,%rsp
    c4ea:	48 89 7d e8          	mov    %rdi,-0x18(%rbp)
    c4ee:	48 89 75 e0          	mov    %rsi,-0x20(%rbp)
    c4f2:	89 55 dc             	mov    %edx,-0x24(%rbp)
    c4f5:	48 89 4d d0          	mov    %rcx,-0x30(%rbp)
    c4f9:	4c 89 45 c8          	mov    %r8,-0x38(%rbp)
    c4fd:	4c 89 4d c0          	mov    %r9,-0x40(%rbp)
    c501:	64 48 8b 04 25 28 00 	mov    %fs:0x28,%rax
    c508:	00 00 
    c50a:	48 89 45 f8          	mov    %rax,-0x8(%rbp)
    c50e:	31 c0                	xor    %eax,%eax
  MPI_Datatype type;
  (void) MPI_Type_create_subarray(ndims, const_cast<int *>(array_of_sizes),
                                  const_cast<int *>(array_of_subsizes),
                                  const_cast<int *>(array_of_starts),
                                  order, mpi_datatype, &type);
    c510:	48 8b 45 e0          	mov    -0x20(%rbp),%rax
    c514:	4c 8b 40 08          	mov    0x8(%rax),%r8
  (void) MPI_Type_create_subarray(ndims, const_cast<int *>(array_of_sizes),
    c518:	48 8b 4d c0          	mov    -0x40(%rbp),%rcx
    c51c:	48 8b 55 c8          	mov    -0x38(%rbp),%rdx
    c520:	48 8b 75 d0          	mov    -0x30(%rbp),%rsi
    c524:	8b 45 dc             	mov    -0x24(%rbp),%eax
    c527:	48 83 ec 08          	sub    $0x8,%rsp
    c52b:	48 8d 7d f0          	lea    -0x10(%rbp),%rdi
    c52f:	57                   	push   %rdi
    c530:	4d 89 c1             	mov    %r8,%r9
    c533:	44 8b 45 10          	mov    0x10(%rbp),%r8d
    c537:	89 c7                	mov    %eax,%edi
    c539:	e8 72 e3 ff ff       	call   a8b0 <MPI_Type_create_subarray@plt>
    c53e:	48 83 c4 10          	add    $0x10,%rsp
  return type;
    c542:	48 8b 55 f0          	mov    -0x10(%rbp),%rdx
    c546:	48 8b 45 e8          	mov    -0x18(%rbp),%rax
    c54a:	48 89 d6             	mov    %rdx,%rsi
    c54d:	48 89 c7             	mov    %rax,%rdi
    c550:	e8 d5 f2 ff ff       	call   b82a <_ZN3MPI8DatatypeC1EP15ompi_datatype_t>
}
    c555:	48 8b 45 f8          	mov    -0x8(%rbp),%rax
    c559:	64 48 2b 04 25 28 00 	sub    %fs:0x28,%rax
    c560:	00 00 
    c562:	74 05                	je     c569 <_ZNK3MPI8Datatype15Create_subarrayEiPKiS2_S2_i+0x8b>
    c564:	e8 77 df ff ff       	call   a4e0 <__stack_chk_fail@plt>
    c569:	48 8b 45 e8          	mov    -0x18(%rbp),%rax
    c56d:	c9                   	leave  
    c56e:	c3                   	ret    
    c56f:	90                   	nop

000000000000c570 <_ZNK3MPI8Datatype13Create_darrayEiiiPKiS2_S2_S2_i>:
inline MPI::Datatype
MPI::Datatype::Create_darray(int size, int rank, int ndims,
                   const int array_of_gsizes[], const int array_of_distribs[],
                   const int array_of_dargs[],  const int array_of_psizes[],
                   int order) const
{
    c570:	f3 0f 1e fa          	endbr64 
    c574:	55                   	push   %rbp
    c575:	48 89 e5             	mov    %rsp,%rbp
    c578:	48 83 ec 50          	sub    $0x50,%rsp
    c57c:	48 89 7d e8          	mov    %rdi,-0x18(%rbp)
    c580:	48 89 75 e0          	mov    %rsi,-0x20(%rbp)
    c584:	89 55 dc             	mov    %edx,-0x24(%rbp)
    c587:	89 4d d8             	mov    %ecx,-0x28(%rbp)
    c58a:	44 89 45 d4          	mov    %r8d,-0x2c(%rbp)
    c58e:	4c 89 4d c8          	mov    %r9,-0x38(%rbp)
    c592:	48 8b 45 10          	mov    0x10(%rbp),%rax
    c596:	48 89 45 c0          	mov    %rax,-0x40(%rbp)
    c59a:	48 8b 45 18          	mov    0x18(%rbp),%rax
    c59e:	48 89 45 b8          	mov    %rax,-0x48(%rbp)
    c5a2:	48 8b 45 20          	mov    0x20(%rbp),%rax
    c5a6:	48 89 45 b0          	mov    %rax,-0x50(%rbp)
    c5aa:	64 48 8b 04 25 28 00 	mov    %fs:0x28,%rax
    c5b1:	00 00 
    c5b3:	48 89 45 f8          	mov    %rax,-0x8(%rbp)
    c5b7:	31 c0                	xor    %eax,%eax
    (void) MPI_Type_create_darray(size, rank, ndims,
                   const_cast<int *>(array_of_gsizes),
                   const_cast<int *>(array_of_distribs),
                   const_cast<int *>(array_of_dargs),
                   const_cast<int *>(array_of_psizes),
                   order, mpi_datatype, &type);
    c5b9:	48 8b 45 e0          	mov    -0x20(%rbp),%rax
    c5bd:	48 8b 78 08          	mov    0x8(%rax),%rdi
    (void) MPI_Type_create_darray(size, rank, ndims,
    c5c1:	4c 8b 4d b8          	mov    -0x48(%rbp),%r9
    c5c5:	4c 8b 55 c0          	mov    -0x40(%rbp),%r10
    c5c9:	48 8b 4d c8          	mov    -0x38(%rbp),%rcx
    c5cd:	8b 55 d4             	mov    -0x2c(%rbp),%edx
    c5d0:	8b 75 d8             	mov    -0x28(%rbp),%esi
    c5d3:	8b 45 dc             	mov    -0x24(%rbp),%eax
    c5d6:	4c 8d 45 f0          	lea    -0x10(%rbp),%r8
    c5da:	41 50                	push   %r8
    c5dc:	57                   	push   %rdi
    c5dd:	8b 7d 28             	mov    0x28(%rbp),%edi
    c5e0:	57                   	push   %rdi
    c5e1:	ff 75 b0             	push   -0x50(%rbp)
    c5e4:	4d 89 d0             	mov    %r10,%r8
    c5e7:	89 c7                	mov    %eax,%edi
    c5e9:	e8 c2 dc ff ff       	call   a2b0 <MPI_Type_create_darray@plt>
    c5ee:	48 83 c4 20          	add    $0x20,%rsp
    return type;
    c5f2:	48 8b 55 f0          	mov    -0x10(%rbp),%rdx
    c5f6:	48 8b 45 e8          	mov    -0x18(%rbp),%rax
    c5fa:	48 89 d6             	mov    %rdx,%rsi
    c5fd:	48 89 c7             	mov    %rax,%rdi
    c600:	e8 25 f2 ff ff       	call   b82a <_ZN3MPI8DatatypeC1EP15ompi_datatype_t>
}
    c605:	48 8b 45 f8          	mov    -0x8(%rbp),%rax
    c609:	64 48 2b 04 25 28 00 	sub    %fs:0x28,%rax
    c610:	00 00 
    c612:	74 05                	je     c619 <_ZNK3MPI8Datatype13Create_darrayEiiiPKiS2_S2_S2_i+0xa9>
    c614:	e8 c7 de ff ff       	call   a4e0 <__stack_chk_fail@plt>
    c619:	48 8b 45 e8          	mov    -0x18(%rbp),%rax
    c61d:	c9                   	leave  
    c61e:	c3                   	ret    
    c61f:	90                   	nop

000000000000c620 <_ZNK3MPI8Datatype3DupEv>:
//


inline MPI::Datatype
MPI::Datatype::Dup() const
{
    c620:	f3 0f 1e fa          	endbr64 
    c624:	55                   	push   %rbp
    c625:	48 89 e5             	mov    %rsp,%rbp
    c628:	48 83 ec 20          	sub    $0x20,%rsp
    c62c:	48 89 7d e8          	mov    %rdi,-0x18(%rbp)
    c630:	48 89 75 e0          	mov    %rsi,-0x20(%rbp)
    c634:	64 48 8b 04 25 28 00 	mov    %fs:0x28,%rax
    c63b:	00 00 
    c63d:	48 89 45 f8          	mov    %rax,-0x8(%rbp)
    c641:	31 c0                	xor    %eax,%eax
  MPI_Datatype type;
  (void) MPI_Type_dup(mpi_datatype, &type);
    c643:	48 8b 45 e0          	mov    -0x20(%rbp),%rax
    c647:	48 8b 40 08          	mov    0x8(%rax),%rax
    c64b:	48 8d 55 f0          	lea    -0x10(%rbp),%rdx
    c64f:	48 89 d6             	mov    %rdx,%rsi
    c652:	48 89 c7             	mov    %rax,%rdi
    c655:	e8 66 e1 ff ff       	call   a7c0 <MPI_Type_dup@plt>
  return type;
    c65a:	48 8b 55 f0          	mov    -0x10(%rbp),%rdx
    c65e:	48 8b 45 e8          	mov    -0x18(%rbp),%rax
    c662:	48 89 d6             	mov    %rdx,%rsi
    c665:	48 89 c7             	mov    %rax,%rdi
    c668:	e8 bd f1 ff ff       	call   b82a <_ZN3MPI8DatatypeC1EP15ompi_datatype_t>
}
    c66d:	48 8b 45 f8          	mov    -0x8(%rbp),%rax
    c671:	64 48 2b 04 25 28 00 	sub    %fs:0x28,%rax
    c678:	00 00 
    c67a:	74 05                	je     c681 <_ZNK3MPI8Datatype3DupEv+0x61>
    c67c:	e8 5f de ff ff       	call   a4e0 <__stack_chk_fail@plt>
    c681:	48 8b 45 e8          	mov    -0x18(%rbp),%rax
    c685:	c9                   	leave  
    c686:	c3                   	ret    
    c687:	90                   	nop

000000000000c688 <_ZN3MPI8Datatype11Delete_attrEi>:
    return (MPI_SUCCESS == ret) ? keyval : ret;
}

inline void
MPI::Datatype::Delete_attr(int type_keyval)
{
    c688:	f3 0f 1e fa          	endbr64 
    c68c:	55                   	push   %rbp
    c68d:	48 89 e5             	mov    %rsp,%rbp
    c690:	48 83 ec 10          	sub    $0x10,%rsp
    c694:	48 89 7d f8          	mov    %rdi,-0x8(%rbp)
    c698:	89 75 f4             	mov    %esi,-0xc(%rbp)
  (void) MPI_Type_delete_attr(mpi_datatype, type_keyval);
    c69b:	48 8b 45 f8          	mov    -0x8(%rbp),%rax
    c69f:	48 8b 40 08          	mov    0x8(%rax),%rax
    c6a3:	8b 55 f4             	mov    -0xc(%rbp),%edx
    c6a6:	89 d6                	mov    %edx,%esi
    c6a8:	48 89 c7             	mov    %rax,%rdi
    c6ab:	e8 60 e3 ff ff       	call   aa10 <MPI_Type_delete_attr@plt>
}
    c6b0:	90                   	nop
    c6b1:	c9                   	leave  
    c6b2:	c3                   	ret    
    c6b3:	90                   	nop

000000000000c6b4 <_ZNK3MPI8Datatype8Get_attrEiPv>:
}

inline bool
MPI::Datatype::Get_attr(int type_keyval,
                          void* attribute_val) const
{
    c6b4:	f3 0f 1e fa          	endbr64 
    c6b8:	55                   	push   %rbp
    c6b9:	48 89 e5             	mov    %rsp,%rbp
    c6bc:	48 83 ec 30          	sub    $0x30,%rsp
    c6c0:	48 89 7d e8          	mov    %rdi,-0x18(%rbp)
    c6c4:	89 75 e4             	mov    %esi,-0x1c(%rbp)
    c6c7:	48 89 55 d8          	mov    %rdx,-0x28(%rbp)
    c6cb:	64 48 8b 04 25 28 00 	mov    %fs:0x28,%rax
    c6d2:	00 00 
    c6d4:	48 89 45 f8          	mov    %rax,-0x8(%rbp)
    c6d8:	31 c0                	xor    %eax,%eax
  int ret;
  (void) MPI_Type_get_attr(mpi_datatype, type_keyval, attribute_val, &ret);
    c6da:	48 8b 45 e8          	mov    -0x18(%rbp),%rax
    c6de:	48 8b 40 08          	mov    0x8(%rax),%rax
    c6e2:	48 8d 4d f4          	lea    -0xc(%rbp),%rcx
    c6e6:	48 8b 55 d8          	mov    -0x28(%rbp),%rdx
    c6ea:	8b 75 e4             	mov    -0x1c(%rbp),%esi
    c6ed:	48 89 c7             	mov    %rax,%rdi
    c6f0:	e8 4b dc ff ff       	call   a340 <MPI_Type_get_attr@plt>
  return OPAL_INT_TO_BOOL(ret);
    c6f5:	8b 45 f4             	mov    -0xc(%rbp),%eax
    c6f8:	85 c0                	test   %eax,%eax
    c6fa:	0f 95 c0             	setne  %al
}
    c6fd:	48 8b 55 f8          	mov    -0x8(%rbp),%rdx
    c701:	64 48 2b 14 25 28 00 	sub    %fs:0x28,%rdx
    c708:	00 00 
    c70a:	74 05                	je     c711 <_ZNK3MPI8Datatype8Get_attrEiPv+0x5d>
    c70c:	e8 cf dd ff ff       	call   a4e0 <__stack_chk_fail@plt>
    c711:	c9                   	leave  
    c712:	c3                   	ret    
    c713:	90                   	nop

000000000000c714 <_ZNK3MPI8Datatype12Get_contentsEiiiPiPlPS0_>:
inline void
MPI::Datatype::Get_contents(int max_integers, int max_addresses,
                            int max_datatypes, int array_of_integers[],
                            MPI::Aint array_of_addresses[],
                            MPI::Datatype array_of_datatypes[]) const
{
    c714:	f3 0f 1e fa          	endbr64 
    c718:	55                   	push   %rbp
    c719:	48 89 e5             	mov    %rsp,%rbp
    c71c:	48 83 ec 40          	sub    $0x40,%rsp
    c720:	48 89 7d e8          	mov    %rdi,-0x18(%rbp)
    c724:	89 75 e4             	mov    %esi,-0x1c(%rbp)
    c727:	89 55 e0             	mov    %edx,-0x20(%rbp)
    c72a:	89 4d dc             	mov    %ecx,-0x24(%rbp)
    c72d:	4c 89 45 d0          	mov    %r8,-0x30(%rbp)
    c731:	4c 89 4d c8          	mov    %r9,-0x38(%rbp)
    int i;
    MPI_Datatype *c_datatypes = new MPI_Datatype[max_datatypes];
    c735:	8b 45 dc             	mov    -0x24(%rbp),%eax
    c738:	48 98                	cltq   
    c73a:	48 ba ff ff ff ff ff 	movabs $0xfffffffffffffff,%rdx
    c741:	ff ff 0f 
    c744:	48 39 d0             	cmp    %rdx,%rax
    c747:	77 4b                	ja     c794 <_ZNK3MPI8Datatype12Get_contentsEiiiPiPlPS0_+0x80>
    c749:	48 c1 e0 03          	shl    $0x3,%rax
    c74d:	48 89 c7             	mov    %rax,%rdi
    c750:	e8 6b d6 ff ff       	call   9dc0 <_Znam@plt>
    c755:	48 89 45 f8          	mov    %rax,-0x8(%rbp)

    (void) MPI_Type_get_contents(mpi_datatype, max_integers, max_addresses,
    c759:	48 8b 45 e8          	mov    -0x18(%rbp),%rax
    c75d:	48 8b 40 08          	mov    0x8(%rax),%rax
    c761:	4c 8b 45 c8          	mov    -0x38(%rbp),%r8
    c765:	48 8b 7d d0          	mov    -0x30(%rbp),%rdi
    c769:	8b 4d dc             	mov    -0x24(%rbp),%ecx
    c76c:	8b 55 e0             	mov    -0x20(%rbp),%edx
    c76f:	8b 75 e4             	mov    -0x1c(%rbp),%esi
    c772:	48 83 ec 08          	sub    $0x8,%rsp
    c776:	ff 75 f8             	push   -0x8(%rbp)
    c779:	4d 89 c1             	mov    %r8,%r9
    c77c:	49 89 f8             	mov    %rdi,%r8
    c77f:	48 89 c7             	mov    %rax,%rdi
    c782:	e8 49 df ff ff       	call   a6d0 <MPI_Type_get_contents@plt>
    c787:	48 83 c4 10          	add    $0x10,%rsp
                                 const_cast<int *>(array_of_integers),
                                 const_cast<MPI_Aint*>(array_of_addresses),
                                 c_datatypes);
    // Convert the C MPI_Datatypes to the user's OUT MPI::Datatype
    // array parameter
    for (i = 0; i < max_datatypes; ++i) {
    c78b:	c7 45 f4 00 00 00 00 	movl   $0x0,-0xc(%rbp)
    c792:	eb 3b                	jmp    c7cf <_ZNK3MPI8Datatype12Get_contentsEiiiPiPlPS0_+0xbb>
    MPI_Datatype *c_datatypes = new MPI_Datatype[max_datatypes];
    c794:	e8 57 df ff ff       	call   a6f0 <__cxa_throw_bad_array_new_length@plt>
        array_of_datatypes[i] = c_datatypes[i];
    c799:	8b 45 f4             	mov    -0xc(%rbp),%eax
    c79c:	48 98                	cltq   
    c79e:	48 8d 14 c5 00 00 00 	lea    0x0(,%rax,8),%rdx
    c7a5:	00 
    c7a6:	48 8b 45 f8          	mov    -0x8(%rbp),%rax
    c7aa:	48 01 c2             	add    %rax,%rdx
    c7ad:	8b 45 f4             	mov    -0xc(%rbp),%eax
    c7b0:	48 98                	cltq   
    c7b2:	48 c1 e0 04          	shl    $0x4,%rax
    c7b6:	48 89 c1             	mov    %rax,%rcx
    c7b9:	48 8b 45 10          	mov    0x10(%rbp),%rax
    c7bd:	48 01 c8             	add    %rcx,%rax
    c7c0:	48 89 d6             	mov    %rdx,%rsi
    c7c3:	48 89 c7             	mov    %rax,%rdi
    c7c6:	e8 8d f0 ff ff       	call   b858 <_ZN3MPI8DatatypeaSERKP15ompi_datatype_t>
    for (i = 0; i < max_datatypes; ++i) {
    c7cb:	83 45 f4 01          	addl   $0x1,-0xc(%rbp)
    c7cf:	8b 45 f4             	mov    -0xc(%rbp),%eax
    c7d2:	3b 45 dc             	cmp    -0x24(%rbp),%eax
    c7d5:	7c c2                	jl     c799 <_ZNK3MPI8Datatype12Get_contentsEiiiPiPlPS0_+0x85>
    }
    delete[] c_datatypes;
    c7d7:	48 83 7d f8 00       	cmpq   $0x0,-0x8(%rbp)
    c7dc:	74 0c                	je     c7ea <_ZNK3MPI8Datatype12Get_contentsEiiiPiPlPS0_+0xd6>
    c7de:	48 8b 45 f8          	mov    -0x8(%rbp),%rax
    c7e2:	48 89 c7             	mov    %rax,%rdi
    c7e5:	e8 e6 dd ff ff       	call   a5d0 <_ZdaPv@plt>
}
    c7ea:	90                   	nop
    c7eb:	c9                   	leave  
    c7ec:	c3                   	ret    
    c7ed:	90                   	nop

000000000000c7ee <_ZNK3MPI8Datatype12Get_envelopeERiS1_S1_S1_>:

inline void
MPI::Datatype::Get_envelope(int& num_integers, int& num_addresses,
			  int& num_datatypes, int& combiner) const
{
    c7ee:	f3 0f 1e fa          	endbr64 
    c7f2:	55                   	push   %rbp
    c7f3:	48 89 e5             	mov    %rsp,%rbp
    c7f6:	48 83 ec 30          	sub    $0x30,%rsp
    c7fa:	48 89 7d f8          	mov    %rdi,-0x8(%rbp)
    c7fe:	48 89 75 f0          	mov    %rsi,-0x10(%rbp)
    c802:	48 89 55 e8          	mov    %rdx,-0x18(%rbp)
    c806:	48 89 4d e0          	mov    %rcx,-0x20(%rbp)
    c80a:	4c 89 45 d8          	mov    %r8,-0x28(%rbp)
  (void) MPI_Type_get_envelope(mpi_datatype, &num_integers, &num_addresses,
    c80e:	48 8b 45 f8          	mov    -0x8(%rbp),%rax
    c812:	48 8b 40 08          	mov    0x8(%rax),%rax
    c816:	48 8b 7d d8          	mov    -0x28(%rbp),%rdi
    c81a:	48 8b 4d e0          	mov    -0x20(%rbp),%rcx
    c81e:	48 8b 55 e8          	mov    -0x18(%rbp),%rdx
    c822:	48 8b 75 f0          	mov    -0x10(%rbp),%rsi
    c826:	49 89 f8             	mov    %rdi,%r8
    c829:	48 89 c7             	mov    %rax,%rdi
    c82c:	e8 1f d8 ff ff       	call   a050 <MPI_Type_get_envelope@plt>
				&num_datatypes, &combiner);
}
    c831:	90                   	nop
    c832:	c9                   	leave  
    c833:	c3                   	ret    

000000000000c834 <_ZNK3MPI8Datatype8Get_nameEPcRi>:

inline void
MPI::Datatype::Get_name(char* type_name, int& resultlen) const
{
    c834:	f3 0f 1e fa          	endbr64 
    c838:	55                   	push   %rbp
    c839:	48 89 e5             	mov    %rsp,%rbp
    c83c:	48 83 ec 20          	sub    $0x20,%rsp
    c840:	48 89 7d f8          	mov    %rdi,-0x8(%rbp)
    c844:	48 89 75 f0          	mov    %rsi,-0x10(%rbp)
    c848:	48 89 55 e8          	mov    %rdx,-0x18(%rbp)
  (void) MPI_Type_get_name(mpi_datatype, type_name, &resultlen);
    c84c:	48 8b 45 f8          	mov    -0x8(%rbp),%rax
    c850:	48 8b 40 08          	mov    0x8(%rax),%rax
    c854:	48 8b 55 e8          	mov    -0x18(%rbp),%rdx
    c858:	48 8b 4d f0          	mov    -0x10(%rbp),%rcx
    c85c:	48 89 ce             	mov    %rcx,%rsi
    c85f:	48 89 c7             	mov    %rax,%rdi
    c862:	e8 49 de ff ff       	call   a6b0 <MPI_Type_get_name@plt>
}
    c867:	90                   	nop
    c868:	c9                   	leave  
    c869:	c3                   	ret    

000000000000c86a <_ZN3MPI8Datatype8Set_attrEiPKv>:

inline void
MPI::Datatype::Set_attr(int type_keyval, const void* attribute_val)
{
    c86a:	f3 0f 1e fa          	endbr64 
    c86e:	55                   	push   %rbp
    c86f:	48 89 e5             	mov    %rsp,%rbp
    c872:	48 83 ec 20          	sub    $0x20,%rsp
    c876:	48 89 7d f8          	mov    %rdi,-0x8(%rbp)
    c87a:	89 75 f4             	mov    %esi,-0xc(%rbp)
    c87d:	48 89 55 e8          	mov    %rdx,-0x18(%rbp)
  (void) MPI_Type_set_attr(mpi_datatype, type_keyval, const_cast<void *>(attribute_val));
    c881:	48 8b 45 f8          	mov    -0x8(%rbp),%rax
    c885:	48 8b 40 08          	mov    0x8(%rax),%rax
    c889:	48 8b 55 e8          	mov    -0x18(%rbp),%rdx
    c88d:	8b 4d f4             	mov    -0xc(%rbp),%ecx
    c890:	89 ce                	mov    %ecx,%esi
    c892:	48 89 c7             	mov    %rax,%rdi
    c895:	e8 f6 e1 ff ff       	call   aa90 <MPI_Type_set_attr@plt>
}
    c89a:	90                   	nop
    c89b:	c9                   	leave  
    c89c:	c3                   	ret    
    c89d:	90                   	nop

000000000000c89e <_ZN3MPI8Datatype8Set_nameEPKc>:

inline void
MPI::Datatype::Set_name(const char* type_name)
{
    c89e:	f3 0f 1e fa          	endbr64 
    c8a2:	55                   	push   %rbp
    c8a3:	48 89 e5             	mov    %rsp,%rbp
    c8a6:	48 83 ec 10          	sub    $0x10,%rsp
    c8aa:	48 89 7d f8          	mov    %rdi,-0x8(%rbp)
    c8ae:	48 89 75 f0          	mov    %rsi,-0x10(%rbp)
  (void) MPI_Type_set_name(mpi_datatype, const_cast<char *>(type_name));
    c8b2:	48 8b 45 f8          	mov    -0x8(%rbp),%rax
    c8b6:	48 8b 40 08          	mov    0x8(%rax),%rax
    c8ba:	48 8b 55 f0          	mov    -0x10(%rbp),%rdx
    c8be:	48 89 d6             	mov    %rdx,%rsi
    c8c1:	48 89 c7             	mov    %rax,%rdi
    c8c4:	e8 17 e2 ff ff       	call   aae0 <MPI_Type_set_name@plt>
}
    c8c9:	90                   	nop
    c8ca:	c9                   	leave  
    c8cb:	c3                   	ret    

000000000000c8cc <_ZN3MPI14Is_initializedEv>:
  (void)MPI_Finalize();
}

inline bool
MPI::Is_initialized()
{
    c8cc:	f3 0f 1e fa          	endbr64 
    c8d0:	55                   	push   %rbp
    c8d1:	48 89 e5             	mov    %rsp,%rbp
    c8d4:	48 83 ec 10          	sub    $0x10,%rsp
    c8d8:	64 48 8b 04 25 28 00 	mov    %fs:0x28,%rax
    c8df:	00 00 
    c8e1:	48 89 45 f8          	mov    %rax,-0x8(%rbp)
    c8e5:	31 c0                	xor    %eax,%eax
  int t;
  (void)MPI_Initialized(&t);
    c8e7:	48 8d 45 f4          	lea    -0xc(%rbp),%rax
    c8eb:	48 89 c7             	mov    %rax,%rdi
    c8ee:	e8 8d d7 ff ff       	call   a080 <MPI_Initialized@plt>
  return OPAL_INT_TO_BOOL(t);
    c8f3:	8b 45 f4             	mov    -0xc(%rbp),%eax
    c8f6:	85 c0                	test   %eax,%eax
    c8f8:	0f 95 c0             	setne  %al
}
    c8fb:	48 8b 55 f8          	mov    -0x8(%rbp),%rdx
    c8ff:	64 48 2b 14 25 28 00 	sub    %fs:0x28,%rdx
    c906:	00 00 
    c908:	74 05                	je     c90f <_ZN3MPI14Is_initializedEv+0x43>
    c90a:	e8 d1 db ff ff       	call   a4e0 <__stack_chk_fail@plt>
    c90f:	c9                   	leave  
    c910:	c3                   	ret    
    c911:	90                   	nop

000000000000c912 <_ZN3MPI7Request4WaitERNS_6StatusE>:
// Point-to-Point Communication
//

inline void
MPI::Request::Wait(MPI::Status &status)
{
    c912:	f3 0f 1e fa          	endbr64 
    c916:	55                   	push   %rbp
    c917:	48 89 e5             	mov    %rsp,%rbp
    c91a:	48 83 ec 10          	sub    $0x10,%rsp
    c91e:	48 89 7d f8          	mov    %rdi,-0x8(%rbp)
    c922:	48 89 75 f0          	mov    %rsi,-0x10(%rbp)
  (void)MPI_Wait(&mpi_request, &status.mpi_status);
    c926:	48 8b 45 f0          	mov    -0x10(%rbp),%rax
    c92a:	48 8d 50 08          	lea    0x8(%rax),%rdx
    c92e:	48 8b 45 f8          	mov    -0x8(%rbp),%rax
    c932:	48 83 c0 08          	add    $0x8,%rax
    c936:	48 89 d6             	mov    %rdx,%rsi
    c939:	48 89 c7             	mov    %rax,%rdi
    c93c:	e8 ff dc ff ff       	call   a640 <MPI_Wait@plt>
}
    c941:	90                   	nop
    c942:	c9                   	leave  
    c943:	c3                   	ret    

000000000000c944 <_ZN3MPI7Request4WaitEv>:

inline void
MPI::Request::Wait()
{
    c944:	f3 0f 1e fa          	endbr64 
    c948:	55                   	push   %rbp
    c949:	48 89 e5             	mov    %rsp,%rbp
    c94c:	48 83 ec 10          	sub    $0x10,%rsp
    c950:	48 89 7d f8          	mov    %rdi,-0x8(%rbp)
  (void)MPI_Wait(&mpi_request, MPI_STATUS_IGNORE);
    c954:	48 8b 45 f8          	mov    -0x8(%rbp),%rax
    c958:	48 83 c0 08          	add    $0x8,%rax
    c95c:	be 00 00 00 00       	mov    $0x0,%esi
    c961:	48 89 c7             	mov    %rax,%rdi
    c964:	e8 d7 dc ff ff       	call   a640 <MPI_Wait@plt>
}
    c969:	90                   	nop
    c96a:	c9                   	leave  
    c96b:	c3                   	ret    

000000000000c96c <_ZN3MPI7Request4FreeEv>:

inline void
MPI::Request::Free()
{
    c96c:	f3 0f 1e fa          	endbr64 
    c970:	55                   	push   %rbp
    c971:	48 89 e5             	mov    %rsp,%rbp
    c974:	48 83 ec 10          	sub    $0x10,%rsp
    c978:	48 89 7d f8          	mov    %rdi,-0x8(%rbp)
  (void)MPI_Request_free(&mpi_request);
    c97c:	48 8b 45 f8          	mov    -0x8(%rbp),%rax
    c980:	48 83 c0 08          	add    $0x8,%rax
    c984:	48 89 c7             	mov    %rax,%rdi
    c987:	e8 f4 d8 ff ff       	call   a280 <MPI_Request_free@plt>
}
    c98c:	90                   	nop
    c98d:	c9                   	leave  
    c98e:	c3                   	ret    
    c98f:	90                   	nop

000000000000c990 <_ZN3MPI7Request4TestERNS_6StatusE>:

inline bool
MPI::Request::Test(MPI::Status &status)
{
    c990:	f3 0f 1e fa          	endbr64 
    c994:	55                   	push   %rbp
    c995:	48 89 e5             	mov    %rsp,%rbp
    c998:	48 83 ec 20          	sub    $0x20,%rsp
    c99c:	48 89 7d e8          	mov    %rdi,-0x18(%rbp)
    c9a0:	48 89 75 e0          	mov    %rsi,-0x20(%rbp)
    c9a4:	64 48 8b 04 25 28 00 	mov    %fs:0x28,%rax
    c9ab:	00 00 
    c9ad:	48 89 45 f8          	mov    %rax,-0x8(%rbp)
    c9b1:	31 c0                	xor    %eax,%eax
  int t;
  (void)MPI_Test(&mpi_request, &t, &status.mpi_status);
    c9b3:	48 8b 45 e0          	mov    -0x20(%rbp),%rax
    c9b7:	48 8d 50 08          	lea    0x8(%rax),%rdx
    c9bb:	48 8b 45 e8          	mov    -0x18(%rbp),%rax
    c9bf:	48 8d 48 08          	lea    0x8(%rax),%rcx
    c9c3:	48 8d 45 f4          	lea    -0xc(%rbp),%rax
    c9c7:	48 89 c6             	mov    %rax,%rsi
    c9ca:	48 89 cf             	mov    %rcx,%rdi
    c9cd:	e8 0e df ff ff       	call   a8e0 <MPI_Test@plt>
  return OPAL_INT_TO_BOOL(t);
    c9d2:	8b 45 f4             	mov    -0xc(%rbp),%eax
    c9d5:	85 c0                	test   %eax,%eax
    c9d7:	0f 95 c0             	setne  %al
}
    c9da:	48 8b 55 f8          	mov    -0x8(%rbp),%rdx
    c9de:	64 48 2b 14 25 28 00 	sub    %fs:0x28,%rdx
    c9e5:	00 00 
    c9e7:	74 05                	je     c9ee <_ZN3MPI7Request4TestERNS_6StatusE+0x5e>
    c9e9:	e8 f2 da ff ff       	call   a4e0 <__stack_chk_fail@plt>
    c9ee:	c9                   	leave  
    c9ef:	c3                   	ret    

000000000000c9f0 <_ZN3MPI7Request4TestEv>:

inline bool
MPI::Request::Test()
{
    c9f0:	f3 0f 1e fa          	endbr64 
    c9f4:	55                   	push   %rbp
    c9f5:	48 89 e5             	mov    %rsp,%rbp
    c9f8:	48 83 ec 20          	sub    $0x20,%rsp
    c9fc:	48 89 7d e8          	mov    %rdi,-0x18(%rbp)
    ca00:	64 48 8b 04 25 28 00 	mov    %fs:0x28,%rax
    ca07:	00 00 
    ca09:	48 89 45 f8          	mov    %rax,-0x8(%rbp)
    ca0d:	31 c0                	xor    %eax,%eax
  int t;
  (void)MPI_Test(&mpi_request, &t, MPI_STATUS_IGNORE);
    ca0f:	48 8b 45 e8          	mov    -0x18(%rbp),%rax
    ca13:	48 8d 48 08          	lea    0x8(%rax),%rcx
    ca17:	48 8d 45 f4          	lea    -0xc(%rbp),%rax
    ca1b:	ba 00 00 00 00       	mov    $0x0,%edx
    ca20:	48 89 c6             	mov    %rax,%rsi
    ca23:	48 89 cf             	mov    %rcx,%rdi
    ca26:	e8 b5 de ff ff       	call   a8e0 <MPI_Test@plt>
  return OPAL_INT_TO_BOOL(t);
    ca2b:	8b 45 f4             	mov    -0xc(%rbp),%eax
    ca2e:	85 c0                	test   %eax,%eax
    ca30:	0f 95 c0             	setne  %al
}
    ca33:	48 8b 55 f8          	mov    -0x8(%rbp),%rdx
    ca37:	64 48 2b 14 25 28 00 	sub    %fs:0x28,%rdx
    ca3e:	00 00 
    ca40:	74 05                	je     ca47 <_ZN3MPI7Request4TestEv+0x57>
    ca42:	e8 99 da ff ff       	call   a4e0 <__stack_chk_fail@plt>
    ca47:	c9                   	leave  
    ca48:	c3                   	ret    
    ca49:	90                   	nop

000000000000ca4a <_ZNK3MPI7Request6CancelEv>:
  return outcount;
}

inline void
MPI::Request::Cancel(void) const
{
    ca4a:	f3 0f 1e fa          	endbr64 
    ca4e:	55                   	push   %rbp
    ca4f:	48 89 e5             	mov    %rsp,%rbp
    ca52:	48 83 ec 10          	sub    $0x10,%rsp
    ca56:	48 89 7d f8          	mov    %rdi,-0x8(%rbp)
  (void)MPI_Cancel(const_cast<MPI_Request *>(&mpi_request));
    ca5a:	48 8b 45 f8          	mov    -0x8(%rbp),%rax
    ca5e:	48 83 c0 08          	add    $0x8,%rax
    ca62:	48 89 c7             	mov    %rax,%rdi
    ca65:	e8 06 d6 ff ff       	call   a070 <MPI_Cancel@plt>
}
    ca6a:	90                   	nop
    ca6b:	c9                   	leave  
    ca6c:	c3                   	ret    
    ca6d:	90                   	nop

000000000000ca6e <_ZN3MPI8Prequest5StartEv>:

inline void
MPI::Prequest::Start()
{
    ca6e:	f3 0f 1e fa          	endbr64 
    ca72:	55                   	push   %rbp
    ca73:	48 89 e5             	mov    %rsp,%rbp
    ca76:	48 83 ec 10          	sub    $0x10,%rsp
    ca7a:	48 89 7d f8          	mov    %rdi,-0x8(%rbp)
  (void)MPI_Start(&mpi_request);
    ca7e:	48 8b 45 f8          	mov    -0x8(%rbp),%rax
    ca82:	48 83 c0 08          	add    $0x8,%rax
    ca86:	48 89 c7             	mov    %rax,%rdi
    ca89:	e8 92 de ff ff       	call   a920 <MPI_Start@plt>
}
    ca8e:	90                   	nop
    ca8f:	c9                   	leave  
    ca90:	c3                   	ret    
    ca91:	90                   	nop

000000000000ca92 <_ZNK3MPI7Request10Get_statusERNS_6StatusE>:
  }
  delete [] mpi_requests;
}

inline bool MPI::Request::Get_status(MPI::Status& status) const
{
    ca92:	f3 0f 1e fa          	endbr64 
    ca96:	55                   	push   %rbp
    ca97:	48 89 e5             	mov    %rsp,%rbp
    ca9a:	48 83 ec 40          	sub    $0x40,%rsp
    ca9e:	48 89 7d c8          	mov    %rdi,-0x38(%rbp)
    caa2:	48 89 75 c0          	mov    %rsi,-0x40(%rbp)
    caa6:	64 48 8b 04 25 28 00 	mov    %fs:0x28,%rax
    caad:	00 00 
    caaf:	48 89 45 f8          	mov    %rax,-0x8(%rbp)
    cab3:	31 c0                	xor    %eax,%eax
    int flag = 0;
    cab5:	c7 45 dc 00 00 00 00 	movl   $0x0,-0x24(%rbp)
    MPI_Status c_status;

    // Call the underlying MPI function rather than simply returning
    // status.mpi_status because we may have to invoke the generalized
    // request query function
    (void)MPI_Request_get_status(mpi_request, &flag, &c_status);
    cabc:	48 8b 45 c8          	mov    -0x38(%rbp),%rax
    cac0:	48 8b 40 08          	mov    0x8(%rax),%rax
    cac4:	48 8d 55 e0          	lea    -0x20(%rbp),%rdx
    cac8:	48 8d 4d dc          	lea    -0x24(%rbp),%rcx
    cacc:	48 89 ce             	mov    %rcx,%rsi
    cacf:	48 89 c7             	mov    %rax,%rdi
    cad2:	e8 69 d4 ff ff       	call   9f40 <MPI_Request_get_status@plt>
    if (flag) {
    cad7:	8b 45 dc             	mov    -0x24(%rbp),%eax
    cada:	85 c0                	test   %eax,%eax
    cadc:	74 13                	je     caf1 <_ZNK3MPI7Request10Get_statusERNS_6StatusE+0x5f>
        status = c_status;
    cade:	48 8d 55 e0          	lea    -0x20(%rbp),%rdx
    cae2:	48 8b 45 c0          	mov    -0x40(%rbp),%rax
    cae6:	48 89 d6             	mov    %rdx,%rsi
    cae9:	48 89 c7             	mov    %rax,%rdi
    caec:	e8 f1 ed ff ff       	call   b8e2 <_ZN3MPI6StatusaSERK20ompi_status_public_t>
    }
    return OPAL_INT_TO_BOOL(flag);
    caf1:	8b 45 dc             	mov    -0x24(%rbp),%eax
    caf4:	85 c0                	test   %eax,%eax
    caf6:	0f 95 c0             	setne  %al
}
    caf9:	48 8b 55 f8          	mov    -0x8(%rbp),%rdx
    cafd:	64 48 2b 14 25 28 00 	sub    %fs:0x28,%rdx
    cb04:	00 00 
    cb06:	74 05                	je     cb0d <_ZNK3MPI7Request10Get_statusERNS_6StatusE+0x7b>
    cb08:	e8 d3 d9 ff ff       	call   a4e0 <__stack_chk_fail@plt>
    cb0d:	c9                   	leave  
    cb0e:	c3                   	ret    
    cb0f:	90                   	nop

000000000000cb10 <_ZNK3MPI7Request10Get_statusEv>:

inline bool MPI::Request::Get_status() const
{
    cb10:	f3 0f 1e fa          	endbr64 
    cb14:	55                   	push   %rbp
    cb15:	48 89 e5             	mov    %rsp,%rbp
    cb18:	48 83 ec 20          	sub    $0x20,%rsp
    cb1c:	48 89 7d e8          	mov    %rdi,-0x18(%rbp)
    cb20:	64 48 8b 04 25 28 00 	mov    %fs:0x28,%rax
    cb27:	00 00 
    cb29:	48 89 45 f8          	mov    %rax,-0x8(%rbp)
    cb2d:	31 c0                	xor    %eax,%eax
    int flag;

    // Call the underlying MPI function rather than simply returning
    // status.mpi_status because we may have to invoke the generalized
    // request query function
    (void)MPI_Request_get_status(mpi_request, &flag, MPI_STATUS_IGNORE);
    cb2f:	48 8b 45 e8          	mov    -0x18(%rbp),%rax
    cb33:	48 8b 40 08          	mov    0x8(%rax),%rax
    cb37:	48 8d 4d f4          	lea    -0xc(%rbp),%rcx
    cb3b:	ba 00 00 00 00       	mov    $0x0,%edx
    cb40:	48 89 ce             	mov    %rcx,%rsi
    cb43:	48 89 c7             	mov    %rax,%rdi
    cb46:	e8 f5 d3 ff ff       	call   9f40 <MPI_Request_get_status@plt>
    return OPAL_INT_TO_BOOL(flag);
    cb4b:	8b 45 f4             	mov    -0xc(%rbp),%eax
    cb4e:	85 c0                	test   %eax,%eax
    cb50:	0f 95 c0             	setne  %al
}
    cb53:	48 8b 55 f8          	mov    -0x8(%rbp),%rdx
    cb57:	64 48 2b 14 25 28 00 	sub    %fs:0x28,%rdx
    cb5e:	00 00 
    cb60:	74 05                	je     cb67 <_ZNK3MPI7Request10Get_statusEv+0x57>
    cb62:	e8 79 d9 ff ff       	call   a4e0 <__stack_chk_fail@plt>
    cb67:	c9                   	leave  
    cb68:	c3                   	ret    
    cb69:	90                   	nop

000000000000cb6a <_ZN3MPI8Grequest8CompleteEv>:
    return(grequest);
}

inline void
MPI::Grequest::Complete()
{
    cb6a:	f3 0f 1e fa          	endbr64 
    cb6e:	55                   	push   %rbp
    cb6f:	48 89 e5             	mov    %rsp,%rbp
    cb72:	48 83 ec 10          	sub    $0x10,%rsp
    cb76:	48 89 7d f8          	mov    %rdi,-0x8(%rbp)
    (void) MPI_Grequest_complete(mpi_request);
    cb7a:	48 8b 45 f8          	mov    -0x8(%rbp),%rax
    cb7e:	48 8b 40 08          	mov    0x8(%rax),%rax
    cb82:	48 89 c7             	mov    %rax,%rdi
    cb85:	e8 16 d7 ff ff       	call   a2a0 <MPI_Grequest_complete@plt>
}
    cb8a:	90                   	nop
    cb8b:	c9                   	leave  
    cb8c:	c3                   	ret    
    cb8d:	90                   	nop

000000000000cb8e <_ZNK3MPI4Comm4SendEPKviRKNS_8DatatypeEii>:
//

inline void
MPI::Comm::Send(const void *buf, int count,
		const MPI::Datatype & datatype, int dest, int tag) const
{
    cb8e:	f3 0f 1e fa          	endbr64 
    cb92:	55                   	push   %rbp
    cb93:	48 89 e5             	mov    %rsp,%rbp
    cb96:	53                   	push   %rbx
    cb97:	48 83 ec 38          	sub    $0x38,%rsp
    cb9b:	48 89 7d e8          	mov    %rdi,-0x18(%rbp)
    cb9f:	48 89 75 e0          	mov    %rsi,-0x20(%rbp)
    cba3:	89 55 dc             	mov    %edx,-0x24(%rbp)
    cba6:	48 89 4d d0          	mov    %rcx,-0x30(%rbp)
    cbaa:	44 89 45 d8          	mov    %r8d,-0x28(%rbp)
    cbae:	44 89 4d cc          	mov    %r9d,-0x34(%rbp)
  (void)MPI_Send(const_cast<void *>(buf), count, datatype, dest, tag, mpi_comm);
    cbb2:	48 8b 45 e8          	mov    -0x18(%rbp),%rax
    cbb6:	48 8b 58 08          	mov    0x8(%rax),%rbx
    cbba:	48 8b 45 d0          	mov    -0x30(%rbp),%rax
    cbbe:	48 89 c7             	mov    %rax,%rdi
    cbc1:	e8 b8 ec ff ff       	call   b87e <_ZNK3MPI8DatatypecvP15ompi_datatype_tEv>
    cbc6:	48 89 c7             	mov    %rax,%rdi
    cbc9:	8b 4d cc             	mov    -0x34(%rbp),%ecx
    cbcc:	8b 55 d8             	mov    -0x28(%rbp),%edx
    cbcf:	8b 75 dc             	mov    -0x24(%rbp),%esi
    cbd2:	48 8b 45 e0          	mov    -0x20(%rbp),%rax
    cbd6:	49 89 d9             	mov    %rbx,%r9
    cbd9:	41 89 c8             	mov    %ecx,%r8d
    cbdc:	89 d1                	mov    %edx,%ecx
    cbde:	48 89 fa             	mov    %rdi,%rdx
    cbe1:	48 89 c7             	mov    %rax,%rdi
    cbe4:	e8 b7 d3 ff ff       	call   9fa0 <MPI_Send@plt>
}
    cbe9:	90                   	nop
    cbea:	48 8b 5d f8          	mov    -0x8(%rbp),%rbx
    cbee:	c9                   	leave  
    cbef:	c3                   	ret    

000000000000cbf0 <_ZNK3MPI4Comm4RecvEPviRKNS_8DatatypeEiiRNS_6StatusE>:

inline void
MPI::Comm::Recv(void *buf, int count, const MPI::Datatype & datatype,
		int source, int tag, MPI::Status & status) const
{
    cbf0:	f3 0f 1e fa          	endbr64 
    cbf4:	55                   	push   %rbp
    cbf5:	48 89 e5             	mov    %rsp,%rbp
    cbf8:	41 54                	push   %r12
    cbfa:	53                   	push   %rbx
    cbfb:	48 83 ec 30          	sub    $0x30,%rsp
    cbff:	48 89 7d e8          	mov    %rdi,-0x18(%rbp)
    cc03:	48 89 75 e0          	mov    %rsi,-0x20(%rbp)
    cc07:	89 55 dc             	mov    %edx,-0x24(%rbp)
    cc0a:	48 89 4d d0          	mov    %rcx,-0x30(%rbp)
    cc0e:	44 89 45 d8          	mov    %r8d,-0x28(%rbp)
    cc12:	44 89 4d cc          	mov    %r9d,-0x34(%rbp)
  (void)MPI_Recv(buf, count, datatype, source, tag, mpi_comm, &status.mpi_status);
    cc16:	48 8b 45 10          	mov    0x10(%rbp),%rax
    cc1a:	48 8d 58 08          	lea    0x8(%rax),%rbx
    cc1e:	48 8b 45 e8          	mov    -0x18(%rbp),%rax
    cc22:	4c 8b 60 08          	mov    0x8(%rax),%r12
    cc26:	48 8b 45 d0          	mov    -0x30(%rbp),%rax
    cc2a:	48 89 c7             	mov    %rax,%rdi
    cc2d:	e8 4c ec ff ff       	call   b87e <_ZNK3MPI8DatatypecvP15ompi_datatype_tEv>
    cc32:	48 89 c7             	mov    %rax,%rdi
    cc35:	8b 4d cc             	mov    -0x34(%rbp),%ecx
    cc38:	8b 55 d8             	mov    -0x28(%rbp),%edx
    cc3b:	8b 75 dc             	mov    -0x24(%rbp),%esi
    cc3e:	48 8b 45 e0          	mov    -0x20(%rbp),%rax
    cc42:	48 83 ec 08          	sub    $0x8,%rsp
    cc46:	53                   	push   %rbx
    cc47:	4d 89 e1             	mov    %r12,%r9
    cc4a:	41 89 c8             	mov    %ecx,%r8d
    cc4d:	89 d1                	mov    %edx,%ecx
    cc4f:	48 89 fa             	mov    %rdi,%rdx
    cc52:	48 89 c7             	mov    %rax,%rdi
    cc55:	e8 86 d6 ff ff       	call   a2e0 <MPI_Recv@plt>
    cc5a:	48 83 c4 10          	add    $0x10,%rsp
}
    cc5e:	90                   	nop
    cc5f:	48 8d 65 f0          	lea    -0x10(%rbp),%rsp
    cc63:	5b                   	pop    %rbx
    cc64:	41 5c                	pop    %r12
    cc66:	5d                   	pop    %rbp
    cc67:	c3                   	ret    

000000000000cc68 <_ZNK3MPI4Comm4RecvEPviRKNS_8DatatypeEii>:

inline void
MPI::Comm::Recv(void *buf, int count, const MPI::Datatype & datatype,
				    int source, int tag) const
{
    cc68:	f3 0f 1e fa          	endbr64 
    cc6c:	55                   	push   %rbp
    cc6d:	48 89 e5             	mov    %rsp,%rbp
    cc70:	53                   	push   %rbx
    cc71:	48 83 ec 38          	sub    $0x38,%rsp
    cc75:	48 89 7d e8          	mov    %rdi,-0x18(%rbp)
    cc79:	48 89 75 e0          	mov    %rsi,-0x20(%rbp)
    cc7d:	89 55 dc             	mov    %edx,-0x24(%rbp)
    cc80:	48 89 4d d0          	mov    %rcx,-0x30(%rbp)
    cc84:	44 89 45 d8          	mov    %r8d,-0x28(%rbp)
    cc88:	44 89 4d cc          	mov    %r9d,-0x34(%rbp)
  (void)MPI_Recv(buf, count, datatype, source,
		 tag, mpi_comm, MPI_STATUS_IGNORE);
    cc8c:	48 8b 45 e8          	mov    -0x18(%rbp),%rax
    cc90:	48 8b 58 08          	mov    0x8(%rax),%rbx
  (void)MPI_Recv(buf, count, datatype, source,
    cc94:	48 8b 45 d0          	mov    -0x30(%rbp),%rax
    cc98:	48 89 c7             	mov    %rax,%rdi
    cc9b:	e8 de eb ff ff       	call   b87e <_ZNK3MPI8DatatypecvP15ompi_datatype_tEv>
    cca0:	48 89 c7             	mov    %rax,%rdi
    cca3:	8b 4d cc             	mov    -0x34(%rbp),%ecx
    cca6:	8b 55 d8             	mov    -0x28(%rbp),%edx
    cca9:	8b 75 dc             	mov    -0x24(%rbp),%esi
    ccac:	48 8b 45 e0          	mov    -0x20(%rbp),%rax
    ccb0:	48 83 ec 08          	sub    $0x8,%rsp
    ccb4:	6a 00                	push   $0x0
    ccb6:	49 89 d9             	mov    %rbx,%r9
    ccb9:	41 89 c8             	mov    %ecx,%r8d
    ccbc:	89 d1                	mov    %edx,%ecx
    ccbe:	48 89 fa             	mov    %rdi,%rdx
    ccc1:	48 89 c7             	mov    %rax,%rdi
    ccc4:	e8 17 d6 ff ff       	call   a2e0 <MPI_Recv@plt>
    ccc9:	48 83 c4 10          	add    $0x10,%rsp
}
    cccd:	90                   	nop
    ccce:	48 8b 5d f8          	mov    -0x8(%rbp),%rbx
    ccd2:	c9                   	leave  
    ccd3:	c3                   	ret    

000000000000ccd4 <_ZNK3MPI4Comm5BsendEPKviRKNS_8DatatypeEii>:

inline void
MPI::Comm::Bsend(const void *buf, int count,
		 const MPI::Datatype & datatype, int dest, int tag) const
{
    ccd4:	f3 0f 1e fa          	endbr64 
    ccd8:	55                   	push   %rbp
    ccd9:	48 89 e5             	mov    %rsp,%rbp
    ccdc:	53                   	push   %rbx
    ccdd:	48 83 ec 38          	sub    $0x38,%rsp
    cce1:	48 89 7d e8          	mov    %rdi,-0x18(%rbp)
    cce5:	48 89 75 e0          	mov    %rsi,-0x20(%rbp)
    cce9:	89 55 dc             	mov    %edx,-0x24(%rbp)
    ccec:	48 89 4d d0          	mov    %rcx,-0x30(%rbp)
    ccf0:	44 89 45 d8          	mov    %r8d,-0x28(%rbp)
    ccf4:	44 89 4d cc          	mov    %r9d,-0x34(%rbp)
  (void)MPI_Bsend(const_cast<void *>(buf), count, datatype,
		  dest, tag, mpi_comm);
